Archive member included to satisfy reference by file (symbol)

c:/rtthread/env/tools/gnu_gcc/arm_gcc/mingw/bin/../lib/gcc/arm-none-eabi/5.4.1/../../../../arm-none-eabi/lib/armv7e-m/fpu\libc.a(lib_a-assert.o)
                              build\board\MCUX_Config\clock_config.o (__assert_func)
c:/rtthread/env/tools/gnu_gcc/arm_gcc/mingw/bin/../lib/gcc/arm-none-eabi/5.4.1/../../../../arm-none-eabi/lib/armv7e-m/fpu\libc.a(lib_a-fclose.o)
                              build\kernel\components\libc\compilers\newlib\stdio.o (fclose)
c:/rtthread/env/tools/gnu_gcc/arm_gcc/mingw/bin/../lib/gcc/arm-none-eabi/5.4.1/../../../../arm-none-eabi/lib/armv7e-m/fpu\libc.a(lib_a-fflush.o)
                              c:/rtthread/env/tools/gnu_gcc/arm_gcc/mingw/bin/../lib/gcc/arm-none-eabi/5.4.1/../../../../arm-none-eabi/lib/armv7e-m/fpu\libc.a(lib_a-fclose.o) (__sflush_r)
c:/rtthread/env/tools/gnu_gcc/arm_gcc/mingw/bin/../lib/gcc/arm-none-eabi/5.4.1/../../../../arm-none-eabi/lib/armv7e-m/fpu\libc.a(lib_a-fileno.o)
                              build\kernel\components\libc\compilers\newlib\stdio.o (fileno)
c:/rtthread/env/tools/gnu_gcc/arm_gcc/mingw/bin/../lib/gcc/arm-none-eabi/5.4.1/../../../../arm-none-eabi/lib/armv7e-m/fpu\libc.a(lib_a-findfp.o)
                              c:/rtthread/env/tools/gnu_gcc/arm_gcc/mingw/bin/../lib/gcc/arm-none-eabi/5.4.1/../../../../arm-none-eabi/lib/armv7e-m/fpu\libc.a(lib_a-fclose.o) (__sinit)
c:/rtthread/env/tools/gnu_gcc/arm_gcc/mingw/bin/../lib/gcc/arm-none-eabi/5.4.1/../../../../arm-none-eabi/lib/armv7e-m/fpu\libc.a(lib_a-fiprintf.o)
                              c:/rtthread/env/tools/gnu_gcc/arm_gcc/mingw/bin/../lib/gcc/arm-none-eabi/5.4.1/../../../../arm-none-eabi/lib/armv7e-m/fpu\libc.a(lib_a-assert.o) (fiprintf)
c:/rtthread/env/tools/gnu_gcc/arm_gcc/mingw/bin/../lib/gcc/arm-none-eabi/5.4.1/../../../../arm-none-eabi/lib/armv7e-m/fpu\libc.a(lib_a-fopen.o)
                              build\kernel\components\libc\compilers\newlib\stdio.o (fopen)
c:/rtthread/env/tools/gnu_gcc/arm_gcc/mingw/bin/../lib/gcc/arm-none-eabi/5.4.1/../../../../arm-none-eabi/lib/armv7e-m/fpu\libc.a(lib_a-fseek.o)
                              c:/rtthread/env/tools/gnu_gcc/arm_gcc/mingw/bin/../lib/gcc/arm-none-eabi/5.4.1/../../../../arm-none-eabi/lib/armv7e-m/fpu\libc.a(lib_a-fopen.o) (_fseek_r)
c:/rtthread/env/tools/gnu_gcc/arm_gcc/mingw/bin/../lib/gcc/arm-none-eabi/5.4.1/../../../../arm-none-eabi/lib/armv7e-m/fpu\libc.a(lib_a-fseeko.o)
                              c:/rtthread/env/tools/gnu_gcc/arm_gcc/mingw/bin/../lib/gcc/arm-none-eabi/5.4.1/../../../../arm-none-eabi/lib/armv7e-m/fpu\libc.a(lib_a-fseek.o) (_fseeko_r)
c:/rtthread/env/tools/gnu_gcc/arm_gcc/mingw/bin/../lib/gcc/arm-none-eabi/5.4.1/../../../../arm-none-eabi/lib/armv7e-m/fpu\libc.a(lib_a-fwalk.o)
                              c:/rtthread/env/tools/gnu_gcc/arm_gcc/mingw/bin/../lib/gcc/arm-none-eabi/5.4.1/../../../../arm-none-eabi/lib/armv7e-m/fpu\libc.a(lib_a-findfp.o) (_fwalk)
c:/rtthread/env/tools/gnu_gcc/arm_gcc/mingw/bin/../lib/gcc/arm-none-eabi/5.4.1/../../../../arm-none-eabi/lib/armv7e-m/fpu\libc.a(lib_a-impure.o)
                              build\kernel\components\libc\compilers\newlib\stdio.o (_global_impure_ptr)
c:/rtthread/env/tools/gnu_gcc/arm_gcc/mingw/bin/../lib/gcc/arm-none-eabi/5.4.1/../../../../arm-none-eabi/lib/armv7e-m/fpu\libc.a(lib_a-makebuf.o)
                              c:/rtthread/env/tools/gnu_gcc/arm_gcc/mingw/bin/../lib/gcc/arm-none-eabi/5.4.1/../../../../arm-none-eabi/lib/armv7e-m/fpu\libc.a(lib_a-fseeko.o) (__smakebuf_r)
c:/rtthread/env/tools/gnu_gcc/arm_gcc/mingw/bin/../lib/gcc/arm-none-eabi/5.4.1/../../../../arm-none-eabi/lib/armv7e-m/fpu\libc.a(lib_a-malloc.o)
                              libraries\MIMXRT1050\MIMXRT1052\drivers\fsl_common.o (malloc)
c:/rtthread/env/tools/gnu_gcc/arm_gcc/mingw/bin/../lib/gcc/arm-none-eabi/5.4.1/../../../../arm-none-eabi/lib/armv7e-m/fpu\libc.a(lib_a-memcmp.o)
                              build\kernel\components\finsh\shell.o (memcmp)
c:/rtthread/env/tools/gnu_gcc/arm_gcc/mingw/bin/../lib/gcc/arm-none-eabi/5.4.1/../../../../arm-none-eabi/lib/armv7e-m/fpu\libc.a(lib_a-memcpy.o)
                              build\kernel\components\dfs\filesystems\elmfat\dfs_elm.o (memcpy)
c:/rtthread/env/tools/gnu_gcc/arm_gcc/mingw/bin/../lib/gcc/arm-none-eabi/5.4.1/../../../../arm-none-eabi/lib/armv7e-m/fpu\libc.a(lib_a-memset.o)
                              build\kernel\components\dfs\src\dfs.o (memset)
c:/rtthread/env/tools/gnu_gcc/arm_gcc/mingw/bin/../lib/gcc/arm-none-eabi/5.4.1/../../../../arm-none-eabi/lib/armv7e-m/fpu\libc.a(lib_a-putenv.o)
                              build\kernel\components\libc\compilers\newlib\libc.o (putenv)
c:/rtthread/env/tools/gnu_gcc/arm_gcc/mingw/bin/../lib/gcc/arm-none-eabi/5.4.1/../../../../arm-none-eabi/lib/armv7e-m/fpu\libc.a(lib_a-putenv_r.o)
                              c:/rtthread/env/tools/gnu_gcc/arm_gcc/mingw/bin/../lib/gcc/arm-none-eabi/5.4.1/../../../../arm-none-eabi/lib/armv7e-m/fpu\libc.a(lib_a-putenv.o) (_putenv_r)
c:/rtthread/env/tools/gnu_gcc/arm_gcc/mingw/bin/../lib/gcc/arm-none-eabi/5.4.1/../../../../arm-none-eabi/lib/armv7e-m/fpu\libc.a(lib_a-refill.o)
                              c:/rtthread/env/tools/gnu_gcc/arm_gcc/mingw/bin/../lib/gcc/arm-none-eabi/5.4.1/../../../../arm-none-eabi/lib/armv7e-m/fpu\libc.a(lib_a-fseeko.o) (__srefill_r)
c:/rtthread/env/tools/gnu_gcc/arm_gcc/mingw/bin/../lib/gcc/arm-none-eabi/5.4.1/../../../../arm-none-eabi/lib/armv7e-m/fpu\libc.a(lib_a-rget.o)
                              build\kernel\components\finsh\shell.o (__srget_r)
c:/rtthread/env/tools/gnu_gcc/arm_gcc/mingw/bin/../lib/gcc/arm-none-eabi/5.4.1/../../../../arm-none-eabi/lib/armv7e-m/fpu\libc.a(lib_a-setenv_r.o)
                              c:/rtthread/env/tools/gnu_gcc/arm_gcc/mingw/bin/../lib/gcc/arm-none-eabi/5.4.1/../../../../arm-none-eabi/lib/armv7e-m/fpu\libc.a(lib_a-putenv_r.o) (_setenv_r)
c:/rtthread/env/tools/gnu_gcc/arm_gcc/mingw/bin/../lib/gcc/arm-none-eabi/5.4.1/../../../../arm-none-eabi/lib/armv7e-m/fpu\libc.a(lib_a-setvbuf.o)
                              build\kernel\components\libc\compilers\newlib\stdio.o (setvbuf)
c:/rtthread/env/tools/gnu_gcc/arm_gcc/mingw/bin/../lib/gcc/arm-none-eabi/5.4.1/../../../../arm-none-eabi/lib/armv7e-m/fpu\libc.a(lib_a-snprintf.o)
                              build\kernel\components\libc\compilers\newlib\stdio.o (snprintf)
c:/rtthread/env/tools/gnu_gcc/arm_gcc/mingw/bin/../lib/gcc/arm-none-eabi/5.4.1/../../../../arm-none-eabi/lib/armv7e-m/fpu\libc.a(lib_a-stdio.o)
                              c:/rtthread/env/tools/gnu_gcc/arm_gcc/mingw/bin/../lib/gcc/arm-none-eabi/5.4.1/../../../../arm-none-eabi/lib/armv7e-m/fpu\libc.a(lib_a-findfp.o) (__sread)
c:/rtthread/env/tools/gnu_gcc/arm_gcc/mingw/bin/../lib/gcc/arm-none-eabi/5.4.1/../../../../arm-none-eabi/lib/armv7e-m/fpu\libc.a(lib_a-strchr.o)
                              c:/rtthread/env/tools/gnu_gcc/arm_gcc/mingw/bin/../lib/gcc/arm-none-eabi/5.4.1/../../../../arm-none-eabi/lib/armv7e-m/fpu\libc.a(lib_a-putenv_r.o) (strchr)
c:/rtthread/env/tools/gnu_gcc/arm_gcc/mingw/bin/../lib/gcc/arm-none-eabi/5.4.1/../../../../arm-none-eabi/lib/armv7e-m/fpu\libc.a(lib_a-strcmp.o)
                              build\kernel\components\dfs\src\dfs.o (strcmp)
c:/rtthread/env/tools/gnu_gcc/arm_gcc/mingw/bin/../lib/gcc/arm-none-eabi/5.4.1/../../../../arm-none-eabi/lib/armv7e-m/fpu\libc.a(lib_a-strcpy.o)
                              build\kernel\components\finsh\shell.o (strcpy)
c:/rtthread/env/tools/gnu_gcc/arm_gcc/mingw/bin/../lib/gcc/arm-none-eabi/5.4.1/../../../../arm-none-eabi/lib/armv7e-m/fpu\libc.a(lib_a-strdup_r.o)
                              c:/rtthread/env/tools/gnu_gcc/arm_gcc/mingw/bin/../lib/gcc/arm-none-eabi/5.4.1/../../../../arm-none-eabi/lib/armv7e-m/fpu\libc.a(lib_a-putenv_r.o) (_strdup_r)
c:/rtthread/env/tools/gnu_gcc/arm_gcc/mingw/bin/../lib/gcc/arm-none-eabi/5.4.1/../../../../arm-none-eabi/lib/armv7e-m/fpu\libc.a(lib_a-strlen.o)
                              build\kernel\components\dfs\src\dfs.o (strlen)
c:/rtthread/env/tools/gnu_gcc/arm_gcc/mingw/bin/../lib/gcc/arm-none-eabi/5.4.1/../../../../arm-none-eabi/lib/armv7e-m/fpu\libc.a(lib_a-strncmp.o)
                              build\kernel\components\dfs\src\dfs_fs.o (strncmp)
c:/rtthread/env/tools/gnu_gcc/arm_gcc/mingw/bin/../lib/gcc/arm-none-eabi/5.4.1/../../../../arm-none-eabi/lib/armv7e-m/fpu\libc.a(lib_a-strncpy.o)
                              build\kernel\components\dfs\src\dfs_posix.o (strncpy)
c:/rtthread/env/tools/gnu_gcc/arm_gcc/mingw/bin/../lib/gcc/arm-none-eabi/5.4.1/../../../../arm-none-eabi/lib/armv7e-m/fpu\libc.a(lib_a-strrchr.o)
                              build\kernel\components\dfs\src\dfs_file.o (strrchr)
c:/rtthread/env/tools/gnu_gcc/arm_gcc/mingw/bin/../lib/gcc/arm-none-eabi/5.4.1/../../../../arm-none-eabi/lib/armv7e-m/fpu\libc.a(lib_a-strstr.o)
                              build\kernel\components\finsh\msh_file.o (strstr)
c:/rtthread/env/tools/gnu_gcc/arm_gcc/mingw/bin/../lib/gcc/arm-none-eabi/5.4.1/../../../../arm-none-eabi/lib/armv7e-m/fpu\libc.a(lib_a-svfprintf.o)
                              c:/rtthread/env/tools/gnu_gcc/arm_gcc/mingw/bin/../lib/gcc/arm-none-eabi/5.4.1/../../../../arm-none-eabi/lib/armv7e-m/fpu\libc.a(lib_a-snprintf.o) (_svfprintf_r)
c:/rtthread/env/tools/gnu_gcc/arm_gcc/mingw/bin/../lib/gcc/arm-none-eabi/5.4.1/../../../../arm-none-eabi/lib/armv7e-m/fpu\libc.a(lib_a-vfiprintf.o)
                              c:/rtthread/env/tools/gnu_gcc/arm_gcc/mingw/bin/../lib/gcc/arm-none-eabi/5.4.1/../../../../arm-none-eabi/lib/armv7e-m/fpu\libc.a(lib_a-fiprintf.o) (_vfiprintf_r)
c:/rtthread/env/tools/gnu_gcc/arm_gcc/mingw/bin/../lib/gcc/arm-none-eabi/5.4.1/../../../../arm-none-eabi/lib/armv7e-m/fpu\libc.a(lib_a-wsetup.o)
                              c:/rtthread/env/tools/gnu_gcc/arm_gcc/mingw/bin/../lib/gcc/arm-none-eabi/5.4.1/../../../../arm-none-eabi/lib/armv7e-m/fpu\libc.a(lib_a-vfiprintf.o) (__swsetup_r)
c:/rtthread/env/tools/gnu_gcc/arm_gcc/mingw/bin/../lib/gcc/arm-none-eabi/5.4.1/../../../../arm-none-eabi/lib/armv7e-m/fpu\libc.a(lib_a-dtoa.o)
                              c:/rtthread/env/tools/gnu_gcc/arm_gcc/mingw/bin/../lib/gcc/arm-none-eabi/5.4.1/../../../../arm-none-eabi/lib/armv7e-m/fpu\libc.a(lib_a-svfprintf.o) (_dtoa_r)
c:/rtthread/env/tools/gnu_gcc/arm_gcc/mingw/bin/../lib/gcc/arm-none-eabi/5.4.1/../../../../arm-none-eabi/lib/armv7e-m/fpu\libc.a(lib_a-environ.o)
                              c:/rtthread/env/tools/gnu_gcc/arm_gcc/mingw/bin/../lib/gcc/arm-none-eabi/5.4.1/../../../../arm-none-eabi/lib/armv7e-m/fpu\libc.a(lib_a-setenv_r.o) (environ)
c:/rtthread/env/tools/gnu_gcc/arm_gcc/mingw/bin/../lib/gcc/arm-none-eabi/5.4.1/../../../../arm-none-eabi/lib/armv7e-m/fpu\libc.a(lib_a-envlock.o)
                              c:/rtthread/env/tools/gnu_gcc/arm_gcc/mingw/bin/../lib/gcc/arm-none-eabi/5.4.1/../../../../arm-none-eabi/lib/armv7e-m/fpu\libc.a(lib_a-setenv_r.o) (__env_lock)
c:/rtthread/env/tools/gnu_gcc/arm_gcc/mingw/bin/../lib/gcc/arm-none-eabi/5.4.1/../../../../arm-none-eabi/lib/armv7e-m/fpu\libc.a(lib_a-flags.o)
                              c:/rtthread/env/tools/gnu_gcc/arm_gcc/mingw/bin/../lib/gcc/arm-none-eabi/5.4.1/../../../../arm-none-eabi/lib/armv7e-m/fpu\libc.a(lib_a-fopen.o) (__sflags)
c:/rtthread/env/tools/gnu_gcc/arm_gcc/mingw/bin/../lib/gcc/arm-none-eabi/5.4.1/../../../../arm-none-eabi/lib/armv7e-m/fpu\libc.a(lib_a-fputwc.o)
                              c:/rtthread/env/tools/gnu_gcc/arm_gcc/mingw/bin/../lib/gcc/arm-none-eabi/5.4.1/../../../../arm-none-eabi/lib/armv7e-m/fpu\libc.a(lib_a-vfiprintf.o) (_fputwc_r)
c:/rtthread/env/tools/gnu_gcc/arm_gcc/mingw/bin/../lib/gcc/arm-none-eabi/5.4.1/../../../../arm-none-eabi/lib/armv7e-m/fpu\libc.a(lib_a-fvwrite.o)
                              c:/rtthread/env/tools/gnu_gcc/arm_gcc/mingw/bin/../lib/gcc/arm-none-eabi/5.4.1/../../../../arm-none-eabi/lib/armv7e-m/fpu\libc.a(lib_a-vfiprintf.o) (__sfvwrite_r)
c:/rtthread/env/tools/gnu_gcc/arm_gcc/mingw/bin/../lib/gcc/arm-none-eabi/5.4.1/../../../../arm-none-eabi/lib/armv7e-m/fpu\libc.a(lib_a-getenv_r.o)
                              c:/rtthread/env/tools/gnu_gcc/arm_gcc/mingw/bin/../lib/gcc/arm-none-eabi/5.4.1/../../../../arm-none-eabi/lib/armv7e-m/fpu\libc.a(lib_a-setenv_r.o) (_findenv_r)
c:/rtthread/env/tools/gnu_gcc/arm_gcc/mingw/bin/../lib/gcc/arm-none-eabi/5.4.1/../../../../arm-none-eabi/lib/armv7e-m/fpu\libc.a(lib_a-locale.o)
                              c:/rtthread/env/tools/gnu_gcc/arm_gcc/mingw/bin/../lib/gcc/arm-none-eabi/5.4.1/../../../../arm-none-eabi/lib/armv7e-m/fpu\libc.a(lib_a-fputwc.o) (__locale_mb_cur_max)
c:/rtthread/env/tools/gnu_gcc/arm_gcc/mingw/bin/../lib/gcc/arm-none-eabi/5.4.1/../../../../arm-none-eabi/lib/armv7e-m/fpu\libc.a(lib_a-localeconv.o)
                              c:/rtthread/env/tools/gnu_gcc/arm_gcc/mingw/bin/../lib/gcc/arm-none-eabi/5.4.1/../../../../arm-none-eabi/lib/armv7e-m/fpu\libc.a(lib_a-svfprintf.o) (_localeconv_r)
c:/rtthread/env/tools/gnu_gcc/arm_gcc/mingw/bin/../lib/gcc/arm-none-eabi/5.4.1/../../../../arm-none-eabi/lib/armv7e-m/fpu\libc.a(lib_a-mbtowc_r.o)
                              c:/rtthread/env/tools/gnu_gcc/arm_gcc/mingw/bin/../lib/gcc/arm-none-eabi/5.4.1/../../../../arm-none-eabi/lib/armv7e-m/fpu\libc.a(lib_a-locale.o) (__ascii_mbtowc)
c:/rtthread/env/tools/gnu_gcc/arm_gcc/mingw/bin/../lib/gcc/arm-none-eabi/5.4.1/../../../../arm-none-eabi/lib/armv7e-m/fpu\libc.a(lib_a-memchr.o)
                              c:/rtthread/env/tools/gnu_gcc/arm_gcc/mingw/bin/../lib/gcc/arm-none-eabi/5.4.1/../../../../arm-none-eabi/lib/armv7e-m/fpu\libc.a(lib_a-strstr.o) (memchr)
c:/rtthread/env/tools/gnu_gcc/arm_gcc/mingw/bin/../lib/gcc/arm-none-eabi/5.4.1/../../../../arm-none-eabi/lib/armv7e-m/fpu\libc.a(lib_a-memmove.o)
                              c:/rtthread/env/tools/gnu_gcc/arm_gcc/mingw/bin/../lib/gcc/arm-none-eabi/5.4.1/../../../../arm-none-eabi/lib/armv7e-m/fpu\libc.a(lib_a-fvwrite.o) (memmove)
c:/rtthread/env/tools/gnu_gcc/arm_gcc/mingw/bin/../lib/gcc/arm-none-eabi/5.4.1/../../../../arm-none-eabi/lib/armv7e-m/fpu\libc.a(lib_a-mprec.o)
                              c:/rtthread/env/tools/gnu_gcc/arm_gcc/mingw/bin/../lib/gcc/arm-none-eabi/5.4.1/../../../../arm-none-eabi/lib/armv7e-m/fpu\libc.a(lib_a-dtoa.o) (_Balloc)
c:/rtthread/env/tools/gnu_gcc/arm_gcc/mingw/bin/../lib/gcc/arm-none-eabi/5.4.1/../../../../arm-none-eabi/lib/armv7e-m/fpu\libc.a(lib_a-svfiprintf.o)
                              c:/rtthread/env/tools/gnu_gcc/arm_gcc/mingw/bin/../lib/gcc/arm-none-eabi/5.4.1/../../../../arm-none-eabi/lib/armv7e-m/fpu\libc.a(lib_a-svfprintf.o) (__ssprint_r)
c:/rtthread/env/tools/gnu_gcc/arm_gcc/mingw/bin/../lib/gcc/arm-none-eabi/5.4.1/../../../../arm-none-eabi/lib/armv7e-m/fpu\libc.a(lib_a-wbuf.o)
                              c:/rtthread/env/tools/gnu_gcc/arm_gcc/mingw/bin/../lib/gcc/arm-none-eabi/5.4.1/../../../../arm-none-eabi/lib/armv7e-m/fpu\libc.a(lib_a-fputwc.o) (__swbuf_r)
c:/rtthread/env/tools/gnu_gcc/arm_gcc/mingw/bin/../lib/gcc/arm-none-eabi/5.4.1/../../../../arm-none-eabi/lib/armv7e-m/fpu\libc.a(lib_a-wcrtomb.o)
                              c:/rtthread/env/tools/gnu_gcc/arm_gcc/mingw/bin/../lib/gcc/arm-none-eabi/5.4.1/../../../../arm-none-eabi/lib/armv7e-m/fpu\libc.a(lib_a-fputwc.o) (_wcrtomb_r)
c:/rtthread/env/tools/gnu_gcc/arm_gcc/mingw/bin/../lib/gcc/arm-none-eabi/5.4.1/../../../../arm-none-eabi/lib/armv7e-m/fpu\libc.a(lib_a-wctomb_r.o)
                              c:/rtthread/env/tools/gnu_gcc/arm_gcc/mingw/bin/../lib/gcc/arm-none-eabi/5.4.1/../../../../arm-none-eabi/lib/armv7e-m/fpu\libc.a(lib_a-locale.o) (__ascii_wctomb)
c:/rtthread/env/tools/gnu_gcc/arm_gcc/mingw/bin/../lib/gcc/arm-none-eabi/5.4.1/../../../../arm-none-eabi/lib/armv7e-m/fpu\libc.a(lib_a-ctype_.o)
                              c:/rtthread/env/tools/gnu_gcc/arm_gcc/mingw/bin/../lib/gcc/arm-none-eabi/5.4.1/../../../../arm-none-eabi/lib/armv7e-m/fpu\libc.a(lib_a-locale.o) (_ctype_)
c:/rtthread/env/tools/gnu_gcc/arm_gcc/mingw/bin/../lib/gcc/arm-none-eabi/5.4.1/armv7e-m/fpu\libgcc.a(_arm_addsubdf3.o)
                              c:/rtthread/env/tools/gnu_gcc/arm_gcc/mingw/bin/../lib/gcc/arm-none-eabi/5.4.1/../../../../arm-none-eabi/lib/armv7e-m/fpu\libc.a(lib_a-dtoa.o) (__aeabi_dsub)
c:/rtthread/env/tools/gnu_gcc/arm_gcc/mingw/bin/../lib/gcc/arm-none-eabi/5.4.1/armv7e-m/fpu\libgcc.a(_arm_muldivdf3.o)
                              c:/rtthread/env/tools/gnu_gcc/arm_gcc/mingw/bin/../lib/gcc/arm-none-eabi/5.4.1/../../../../arm-none-eabi/lib/armv7e-m/fpu\libc.a(lib_a-dtoa.o) (__aeabi_dmul)
c:/rtthread/env/tools/gnu_gcc/arm_gcc/mingw/bin/../lib/gcc/arm-none-eabi/5.4.1/armv7e-m/fpu\libgcc.a(_arm_cmpdf2.o)
                              c:/rtthread/env/tools/gnu_gcc/arm_gcc/mingw/bin/../lib/gcc/arm-none-eabi/5.4.1/../../../../arm-none-eabi/lib/armv7e-m/fpu\libc.a(lib_a-svfprintf.o) (__aeabi_dcmpeq)
c:/rtthread/env/tools/gnu_gcc/arm_gcc/mingw/bin/../lib/gcc/arm-none-eabi/5.4.1/armv7e-m/fpu\libgcc.a(_arm_unorddf2.o)
                              c:/rtthread/env/tools/gnu_gcc/arm_gcc/mingw/bin/../lib/gcc/arm-none-eabi/5.4.1/../../../../arm-none-eabi/lib/armv7e-m/fpu\libc.a(lib_a-svfprintf.o) (__aeabi_dcmpun)
c:/rtthread/env/tools/gnu_gcc/arm_gcc/mingw/bin/../lib/gcc/arm-none-eabi/5.4.1/armv7e-m/fpu\libgcc.a(_arm_fixdfsi.o)
                              c:/rtthread/env/tools/gnu_gcc/arm_gcc/mingw/bin/../lib/gcc/arm-none-eabi/5.4.1/../../../../arm-none-eabi/lib/armv7e-m/fpu\libc.a(lib_a-dtoa.o) (__aeabi_d2iz)
c:/rtthread/env/tools/gnu_gcc/arm_gcc/mingw/bin/../lib/gcc/arm-none-eabi/5.4.1/armv7e-m/fpu\libgcc.a(_aeabi_uldivmod.o)
                              libraries\MIMXRT1050\MIMXRT1052\system_MIMXRT1052.o (__aeabi_uldivmod)
c:/rtthread/env/tools/gnu_gcc/arm_gcc/mingw/bin/../lib/gcc/arm-none-eabi/5.4.1/armv7e-m/fpu\libgcc.a(_udivmoddi4.o)
                              c:/rtthread/env/tools/gnu_gcc/arm_gcc/mingw/bin/../lib/gcc/arm-none-eabi/5.4.1/armv7e-m/fpu\libgcc.a(_aeabi_uldivmod.o) (__udivmoddi4)
c:/rtthread/env/tools/gnu_gcc/arm_gcc/mingw/bin/../lib/gcc/arm-none-eabi/5.4.1/armv7e-m/fpu\libgcc.a(_dvmd_tls.o)
                              c:/rtthread/env/tools/gnu_gcc/arm_gcc/mingw/bin/../lib/gcc/arm-none-eabi/5.4.1/armv7e-m/fpu\libgcc.a(_aeabi_uldivmod.o) (__aeabi_ldiv0)

Allocating common symbols
Common symbol       size              file

rt_interrupt_to_thread
                    0x4               build\kernel\libcpu\arm\cortex-m7\cpuport.o
rt_interrupt_from_thread
                    0x4               build\kernel\libcpu\arm\cortex-m7\cpuport.o
g_UsbHostInstance   0x5e0             libraries\drivers\usb\host\usb_host_hci.o
mouse_thread        0x4               build\kernel\components\drivers\usb\usbhost\class\umouse.o
shell               0x4               build\kernel\components\finsh\shell.o
g_xtalFreq          0x4               libraries\MIMXRT1050\MIMXRT1052\drivers\fsl_clock.o
rt_thread_switch_interrupt_flag
                    0x4               build\kernel\libcpu\arm\cortex-m7\cpuport.o
usbh0_thread        0x4               libraries\drivers\drv_usbh.o
rt_thread_priority_table
                    0x100             build\kernel\src\scheduler.o
rt_object_put_hook  0x4               build\kernel\src\object.o
rt_current_priority
                    0x1               build\kernel\src\scheduler.o
filesystem_table    0x20              build\kernel\components\dfs\src\dfs.o
rt_assert_hook      0x4               build\kernel\src\kservice.o
rt_object_take_hook
                    0x4               build\kernel\src\object.o
rt_thread_ready_priority_group
                    0x4               build\kernel\src\scheduler.o
rt_thread_defunct   0x8               build\kernel\src\scheduler.o
g_rtcXtalFreq       0x4               libraries\MIMXRT1050\MIMXRT1052\drivers\fsl_clock.o
usbh1_thread        0x4               libraries\drivers\drv_usbh.o
filesystem_operation_table
                    0x8               build\kernel\components\dfs\src\dfs.o
rt_object_trytake_hook
                    0x4               build\kernel\src\object.o

Discarded input sections

 .text          0x00000000        0x0 build\applications\main.o
 .data          0x00000000        0x0 build\applications\main.o
 .bss           0x00000000        0x0 build\applications\main.o
 .text          0x00000000        0x0 build\board\board.o
 .data          0x00000000        0x0 build\board\board.o
 .bss           0x00000000        0x0 build\board\board.o
 .text          0x00000000        0x0 build\board\MCUX_Config\clock_config.o
 .data          0x00000000        0x0 build\board\MCUX_Config\clock_config.o
 .bss           0x00000000        0x0 build\board\MCUX_Config\clock_config.o
 .text.BOARD_InitBootClocks
                0x00000000        0xc build\board\MCUX_Config\clock_config.o
 .rodata.sysPllConfig_BOARD_BootClockRUN
                0x00000000       0x14 build\board\MCUX_Config\clock_config.o
 .rodata.usb1PllConfig_BOARD_BootClockRUN
                0x00000000        0x2 build\board\MCUX_Config\clock_config.o
 .text          0x00000000        0x0 build\board\MCUX_Config\pin_mux.o
 .data          0x00000000        0x0 build\board\MCUX_Config\pin_mux.o
 .bss           0x00000000        0x0 build\board\MCUX_Config\pin_mux.o
 .text.BOARD_InitBootPins
                0x00000000       0x10 build\board\MCUX_Config\pin_mux.o
 .text          0x00000000        0x0 build\xip\fsl_flexspi_nor_boot.o
 .data          0x00000000        0x0 build\xip\fsl_flexspi_nor_boot.o
 .bss           0x00000000        0x0 build\xip\fsl_flexspi_nor_boot.o
 .text          0x00000000        0x0 build\xip\fsl_flexspi_nor_config.o
 .data          0x00000000        0x0 build\xip\fsl_flexspi_nor_config.o
 .bss           0x00000000        0x0 build\xip\fsl_flexspi_nor_config.o
 .text          0x00000000        0x0 build\kernel\src\clock.o
 .data          0x00000000        0x0 build\kernel\src\clock.o
 .bss           0x00000000        0x0 build\kernel\src\clock.o
 .text.rt_tick_set
                0x00000000       0x28 build\kernel\src\clock.o
 .text.rt_tick_get_millisecond
                0x00000000       0x18 build\kernel\src\clock.o
 .text          0x00000000        0x0 build\kernel\src\components.o
 .data          0x00000000        0x0 build\kernel\src\components.o
 .bss           0x00000000        0x0 build\kernel\src\components.o
 .text          0x00000000        0x0 build\kernel\src\device.o
 .data          0x00000000        0x0 build\kernel\src\device.o
 .bss           0x00000000        0x0 build\kernel\src\device.o
 .text.rt_device_init_all
                0x00000000       0x10 build\kernel\src\device.o
 .text.rt_device_create
                0x00000000       0x4c build\kernel\src\device.o
 .text.rt_device_destroy
                0x00000000       0x70 build\kernel\src\device.o
 .text.rt_device_set_tx_complete
                0x00000000       0x54 build\kernel\src\device.o
 .rodata.__FUNCTION__.6848
                0x00000000       0x12 build\kernel\src\device.o
 .rodata.__FUNCTION__.6898
                0x00000000       0x1a build\kernel\src\device.o
 .text          0x00000000        0x0 build\kernel\src\idle.o
 .data          0x00000000        0x0 build\kernel\src\idle.o
 .bss           0x00000000        0x0 build\kernel\src\idle.o
 .text.rt_thread_idle_sethook
                0x00000000       0x58 build\kernel\src\idle.o
 .text.rt_thread_idle_delhook
                0x00000000       0x58 build\kernel\src\idle.o
 .text.rt_thread_idle_gethandler
                0x00000000       0x18 build\kernel\src\idle.o
 .text          0x00000000        0x0 build\kernel\src\ipc.o
 .data          0x00000000        0x0 build\kernel\src\ipc.o
 .bss           0x00000000        0x0 build\kernel\src\ipc.o
 .text.rt_sem_trytake
                0x00000000       0x1c build\kernel\src\ipc.o
 .text.rt_sem_control
                0x00000000       0x84 build\kernel\src\ipc.o
 .text.rt_mutex_control
                0x00000000       0x50 build\kernel\src\ipc.o
 .text.rt_event_init
                0x00000000       0x54 build\kernel\src\ipc.o
 .text.rt_event_detach
                0x00000000       0x7c build\kernel\src\ipc.o
 .text.rt_event_control
                0x00000000       0x80 build\kernel\src\ipc.o
 .text.rt_mb_detach
                0x00000000       0x84 build\kernel\src\ipc.o
 .text.rt_mb_create
                0x00000000       0xbc build\kernel\src\ipc.o
 .text.rt_mb_delete
                0x00000000       0xc0 build\kernel\src\ipc.o
 .text.rt_mb_urgent
                0x00000000       0xf4 build\kernel\src\ipc.o
 .text.rt_mb_control
                0x00000000       0x94 build\kernel\src\ipc.o
 .text.rt_mq_init
                0x00000000       0xcc build\kernel\src\ipc.o
 .text.rt_mq_detach
                0x00000000       0x84 build\kernel\src\ipc.o
 .text.rt_mq_delete
                0x00000000       0xc0 build\kernel\src\ipc.o
 .text.rt_mq_urgent
                0x00000000      0x160 build\kernel\src\ipc.o
 .text.rt_mq_control
                0x00000000       0xc0 build\kernel\src\ipc.o
 .rodata.__FUNCTION__.5783
                0x00000000        0xf build\kernel\src\ipc.o
 .rodata.__FUNCTION__.5830
                0x00000000       0x11 build\kernel\src\ipc.o
 .rodata.__FUNCTION__.5836
                0x00000000        0xe build\kernel\src\ipc.o
 .rodata.__FUNCTION__.5840
                0x00000000       0x10 build\kernel\src\ipc.o
 .rodata.__FUNCTION__.5885
                0x00000000       0x11 build\kernel\src\ipc.o
 .rodata.__FUNCTION__.5897
                0x00000000        0xd build\kernel\src\ipc.o
 .rodata.__FUNCTION__.5905
                0x00000000        0xd build\kernel\src\ipc.o
 .rodata.__FUNCTION__.5910
                0x00000000        0xd build\kernel\src\ipc.o
 .rodata.__FUNCTION__.5934
                0x00000000        0xd build\kernel\src\ipc.o
 .rodata.__FUNCTION__.5955
                0x00000000        0xe build\kernel\src\ipc.o
 .rodata.__FUNCTION__.5968
                0x00000000        0xb build\kernel\src\ipc.o
 .rodata.__FUNCTION__.5975
                0x00000000        0xd build\kernel\src\ipc.o
 .rodata.__FUNCTION__.5994
                0x00000000        0xd build\kernel\src\ipc.o
 .rodata.__FUNCTION__.6023
                0x00000000        0xd build\kernel\src\ipc.o
 .rodata.__FUNCTION__.6047
                0x00000000        0xe build\kernel\src\ipc.o
 .text          0x00000000        0x0 build\kernel\src\irq.o
 .data          0x00000000        0x0 build\kernel\src\irq.o
 .bss           0x00000000        0x0 build\kernel\src\irq.o
 .text.rt_interrupt_enter_sethook
                0x00000000       0x20 build\kernel\src\irq.o
 .text.rt_interrupt_leave_sethook
                0x00000000       0x20 build\kernel\src\irq.o
 .text          0x00000000        0x0 build\kernel\src\kservice.o
 .data          0x00000000        0x0 build\kernel\src\kservice.o
 .bss           0x00000000        0x0 build\kernel\src\kservice.o
 .text.rt_get_errno
                0x00000000       0x38 build\kernel\src\kservice.o
 .text.rt_memcmp
                0x00000000       0x58 build\kernel\src\kservice.o
 .text.rt_strstr
                0x00000000       0x60 build\kernel\src\kservice.o
 .text.rt_strcasecmp
                0x00000000       0x64 build\kernel\src\kservice.o
 .text.rt_strnlen
                0x00000000       0x40 build\kernel\src\kservice.o
 .text.rt_kputs
                0x00000000       0x64 build\kernel\src\kservice.o
 .text.rt_assert_set_hook
                0x00000000       0x20 build\kernel\src\kservice.o
 .text          0x00000000        0x0 build\kernel\src\memheap.o
 .data          0x00000000        0x0 build\kernel\src\memheap.o
 .bss           0x00000000        0x0 build\kernel\src\memheap.o
 .text.rt_memheap_detach
                0x00000000       0x74 build\kernel\src\memheap.o
 .text.rt_memory_info
                0x00000000       0x4c build\kernel\src\memheap.o
 .rodata.__FUNCTION__.5711
                0x00000000       0x12 build\kernel\src\memheap.o
 .text          0x00000000        0x0 build\kernel\src\mempool.o
 .data          0x00000000        0x0 build\kernel\src\mempool.o
 .bss           0x00000000        0x0 build\kernel\src\mempool.o
 .text.rt_list_init
                0x00000000       0x24 build\kernel\src\mempool.o
 .text.rt_list_insert_after
                0x00000000       0x34 build\kernel\src\mempool.o
 .text.rt_list_isempty
                0x00000000       0x24 build\kernel\src\mempool.o
 .bss.rt_mp_alloc_hook
                0x00000000        0x4 build\kernel\src\mempool.o
 .bss.rt_mp_free_hook
                0x00000000        0x4 build\kernel\src\mempool.o
 .text.rt_mp_alloc_sethook
                0x00000000       0x20 build\kernel\src\mempool.o
 .text.rt_mp_free_sethook
                0x00000000       0x20 build\kernel\src\mempool.o
 .rodata        0x00000000      0x14d build\kernel\src\mempool.o
 .text.rt_mp_init
                0x00000000      0x10c build\kernel\src\mempool.o
 .text.rt_mp_detach
                0x00000000       0xa4 build\kernel\src\mempool.o
 .text.rt_mp_create
                0x00000000      0x134 build\kernel\src\mempool.o
 .text.rt_mp_delete
                0x00000000       0xe4 build\kernel\src\mempool.o
 .text.rt_mp_alloc
                0x00000000      0x168 build\kernel\src\mempool.o
 .text.rt_mp_free
                0x00000000       0x90 build\kernel\src\mempool.o
 .rodata.__FUNCTION__.5725
                0x00000000        0xb build\kernel\src\mempool.o
 .rodata.__FUNCTION__.5734
                0x00000000        0xd build\kernel\src\mempool.o
 .rodata.__FUNCTION__.5747
                0x00000000        0xd build\kernel\src\mempool.o
 .rodata.__FUNCTION__.5757
                0x00000000        0xd build\kernel\src\mempool.o
 .rodata.__FUNCTION__.5769
                0x00000000        0xc build\kernel\src\mempool.o
 .debug_info    0x00000000      0x8e0 build\kernel\src\mempool.o
 .debug_abbrev  0x00000000      0x1f2 build\kernel\src\mempool.o
 .debug_loc     0x00000000      0x3ac build\kernel\src\mempool.o
 .debug_aranges
                0x00000000       0x70 build\kernel\src\mempool.o
 .debug_ranges  0x00000000       0x60 build\kernel\src\mempool.o
 .debug_line    0x00000000      0x2a5 build\kernel\src\mempool.o
 .debug_str     0x00000000      0x606 build\kernel\src\mempool.o
 .comment       0x00000000       0x6f build\kernel\src\mempool.o
 .debug_frame   0x00000000      0x1c8 build\kernel\src\mempool.o
 .ARM.attributes
                0x00000000       0x39 build\kernel\src\mempool.o
 .text          0x00000000        0x0 build\kernel\src\object.o
 .data          0x00000000        0x0 build\kernel\src\object.o
 .bss           0x00000000        0x0 build\kernel\src\object.o
 .text.rt_object_attach_sethook
                0x00000000       0x20 build\kernel\src\object.o
 .text.rt_object_detach_sethook
                0x00000000       0x20 build\kernel\src\object.o
 .text.rt_object_trytake_sethook
                0x00000000       0x20 build\kernel\src\object.o
 .text.rt_object_take_sethook
                0x00000000       0x20 build\kernel\src\object.o
 .text.rt_object_put_sethook
                0x00000000       0x20 build\kernel\src\object.o
 .text.rt_object_get_length
                0x00000000       0x64 build\kernel\src\object.o
 .text.rt_object_get_pointers
                0x00000000       0x90 build\kernel\src\object.o
 .text          0x00000000        0x0 build\kernel\src\scheduler.o
 .data          0x00000000        0x0 build\kernel\src\scheduler.o
 .bss           0x00000000        0x0 build\kernel\src\scheduler.o
 .text.rt_scheduler_sethook
                0x00000000       0x20 build\kernel\src\scheduler.o
 .text.rt_critical_level
                0x00000000       0x1c build\kernel\src\scheduler.o
 .text          0x00000000        0x0 build\kernel\src\thread.o
 .data          0x00000000        0x0 build\kernel\src\thread.o
 .bss           0x00000000        0x0 build\kernel\src\thread.o
 .text.rt_thread_suspend_sethook
                0x00000000       0x20 build\kernel\src\thread.o
 .text.rt_thread_resume_sethook
                0x00000000       0x20 build\kernel\src\thread.o
 .text.rt_thread_inited_sethook
                0x00000000       0x20 build\kernel\src\thread.o
 .text.rt_thread_yield
                0x00000000       0x40 build\kernel\src\thread.o
 .text.rt_thread_delay_until
                0x00000000       0xdc build\kernel\src\thread.o
 .text.rt_thread_find
                0x00000000       0x1c build\kernel\src\thread.o
 .rodata.__FUNCTION__.5802
                0x00000000       0x16 build\kernel\src\thread.o
 .text          0x00000000        0x0 build\kernel\src\timer.o
 .data          0x00000000        0x0 build\kernel\src\timer.o
 .bss           0x00000000        0x0 build\kernel\src\timer.o
 .text.rt_timer_enter_sethook
                0x00000000       0x20 build\kernel\src\timer.o
 .text.rt_timer_exit_sethook
                0x00000000       0x20 build\kernel\src\timer.o
 .text.rt_timer_list_next_timeout
                0x00000000       0x40 build\kernel\src\timer.o
 .text.rt_timer_create
                0x00000000       0x40 build\kernel\src\timer.o
 .text.rt_timer_delete
                0x00000000       0x90 build\kernel\src\timer.o
 .text.rt_timer_next_timeout_tick
                0x00000000       0x14 build\kernel\src\timer.o
 .rodata.__FUNCTION__.5770
                0x00000000       0x10 build\kernel\src\timer.o
 .text          0x00000000        0x0 build\kernel\libcpu\arm\common\backtrace.o
 .data          0x00000000        0x0 build\kernel\libcpu\arm\common\backtrace.o
 .bss           0x00000000        0x0 build\kernel\libcpu\arm\common\backtrace.o
 .rodata        0x00000000       0x19 build\kernel\libcpu\arm\common\backtrace.o
 .text.rt_hw_backtrace
                0x00000000       0x78 build\kernel\libcpu\arm\common\backtrace.o
 .debug_info    0x00000000       0xf3 build\kernel\libcpu\arm\common\backtrace.o
 .debug_abbrev  0x00000000       0x98 build\kernel\libcpu\arm\common\backtrace.o
 .debug_loc     0x00000000       0x50 build\kernel\libcpu\arm\common\backtrace.o
 .debug_aranges
                0x00000000       0x20 build\kernel\libcpu\arm\common\backtrace.o
 .debug_ranges  0x00000000       0x10 build\kernel\libcpu\arm\common\backtrace.o
 .debug_line    0x00000000       0x9a build\kernel\libcpu\arm\common\backtrace.o
 .debug_str     0x00000000      0x1e4 build\kernel\libcpu\arm\common\backtrace.o
 .comment       0x00000000       0x6f build\kernel\libcpu\arm\common\backtrace.o
 .debug_frame   0x00000000       0x34 build\kernel\libcpu\arm\common\backtrace.o
 .ARM.attributes
                0x00000000       0x39 build\kernel\libcpu\arm\common\backtrace.o
 .text          0x00000000        0x0 build\kernel\libcpu\arm\common\div0.o
 .data          0x00000000        0x0 build\kernel\libcpu\arm\common\div0.o
 .bss           0x00000000        0x0 build\kernel\libcpu\arm\common\div0.o
 .text.__div0   0x00000000        0x8 build\kernel\libcpu\arm\common\div0.o
 .debug_info    0x00000000       0x40 build\kernel\libcpu\arm\common\div0.o
 .debug_abbrev  0x00000000       0x2e build\kernel\libcpu\arm\common\div0.o
 .debug_loc     0x00000000       0x2c build\kernel\libcpu\arm\common\div0.o
 .debug_aranges
                0x00000000       0x20 build\kernel\libcpu\arm\common\div0.o
 .debug_ranges  0x00000000       0x10 build\kernel\libcpu\arm\common\div0.o
 .debug_line    0x00000000       0x57 build\kernel\libcpu\arm\common\div0.o
 .debug_str     0x00000000      0x146 build\kernel\libcpu\arm\common\div0.o
 .comment       0x00000000       0x6f build\kernel\libcpu\arm\common\div0.o
 .debug_frame   0x00000000       0x28 build\kernel\libcpu\arm\common\div0.o
 .ARM.attributes
                0x00000000       0x39 build\kernel\libcpu\arm\common\div0.o
 .text          0x00000000        0x0 build\kernel\libcpu\arm\common\showmem.o
 .data          0x00000000        0x0 build\kernel\libcpu\arm\common\showmem.o
 .bss           0x00000000        0x0 build\kernel\libcpu\arm\common\showmem.o
 .rodata        0x00000000       0x22 build\kernel\libcpu\arm\common\showmem.o
 .text.rt_hw_show_memory
                0x00000000       0x94 build\kernel\libcpu\arm\common\showmem.o
 .rodata.__FUNCTION__.5632
                0x00000000       0x12 build\kernel\libcpu\arm\common\showmem.o
 .debug_info    0x00000000      0x109 build\kernel\libcpu\arm\common\showmem.o
 .debug_abbrev  0x00000000       0x97 build\kernel\libcpu\arm\common\showmem.o
 .debug_loc     0x00000000       0x50 build\kernel\libcpu\arm\common\showmem.o
 .debug_aranges
                0x00000000       0x20 build\kernel\libcpu\arm\common\showmem.o
 .debug_ranges  0x00000000       0x10 build\kernel\libcpu\arm\common\showmem.o
 .debug_line    0x00000000       0xa3 build\kernel\libcpu\arm\common\showmem.o
 .debug_str     0x00000000      0x1e3 build\kernel\libcpu\arm\common\showmem.o
 .comment       0x00000000       0x6f build\kernel\libcpu\arm\common\showmem.o
 .debug_frame   0x00000000       0x34 build\kernel\libcpu\arm\common\showmem.o
 .ARM.attributes
                0x00000000       0x39 build\kernel\libcpu\arm\common\showmem.o
 .text          0x00000000        0x0 build\kernel\libcpu\arm\cortex-m7\cpu_cache.o
 .data          0x00000000        0x0 build\kernel\libcpu\arm\cortex-m7\cpu_cache.o
 .bss           0x00000000        0x0 build\kernel\libcpu\arm\cortex-m7\cpu_cache.o
 .text.SCB_EnableICache
                0x00000000       0x40 build\kernel\libcpu\arm\cortex-m7\cpu_cache.o
 .text.SCB_DisableICache
                0x00000000       0x38 build\kernel\libcpu\arm\cortex-m7\cpu_cache.o
 .text.SCB_EnableDCache
                0x00000000       0x80 build\kernel\libcpu\arm\cortex-m7\cpu_cache.o
 .text.SCB_DisableDCache
                0x00000000       0x68 build\kernel\libcpu\arm\cortex-m7\cpu_cache.o
 .text.SCB_InvalidateDCache_by_Addr
                0x00000000       0x54 build\kernel\libcpu\arm\cortex-m7\cpu_cache.o
 .text.SCB_CleanDCache_by_Addr
                0x00000000       0x54 build\kernel\libcpu\arm\cortex-m7\cpu_cache.o
 .text.SCB_CleanInvalidateDCache_by_Addr
                0x00000000       0x54 build\kernel\libcpu\arm\cortex-m7\cpu_cache.o
 .text.rt_hw_cpu_icache_enable
                0x00000000        0xc build\kernel\libcpu\arm\cortex-m7\cpu_cache.o
 .text.rt_hw_cpu_icache_disable
                0x00000000        0xc build\kernel\libcpu\arm\cortex-m7\cpu_cache.o
 .text.rt_hw_cpu_icache_status
                0x00000000       0x10 build\kernel\libcpu\arm\cortex-m7\cpu_cache.o
 .text.rt_hw_cpu_icache_ops
                0x00000000       0x6c build\kernel\libcpu\arm\cortex-m7\cpu_cache.o
 .text.rt_hw_cpu_dcache_enable
                0x00000000        0xc build\kernel\libcpu\arm\cortex-m7\cpu_cache.o
 .text.rt_hw_cpu_dcache_disable
                0x00000000        0xc build\kernel\libcpu\arm\cortex-m7\cpu_cache.o
 .text.rt_hw_cpu_dcache_status
                0x00000000       0x10 build\kernel\libcpu\arm\cortex-m7\cpu_cache.o
 .rodata        0x00000000        0x2 build\kernel\libcpu\arm\cortex-m7\cpu_cache.o
 .text.rt_hw_cpu_dcache_ops
                0x00000000       0x84 build\kernel\libcpu\arm\cortex-m7\cpu_cache.o
 .rodata.__FUNCTION__.10608
                0x00000000       0x15 build\kernel\libcpu\arm\cortex-m7\cpu_cache.o
 .debug_info    0x00000000      0xa80 build\kernel\libcpu\arm\cortex-m7\cpu_cache.o
 .debug_abbrev  0x00000000      0x1e0 build\kernel\libcpu\arm\cortex-m7\cpu_cache.o
 .debug_loc     0x00000000      0x420 build\kernel\libcpu\arm\cortex-m7\cpu_cache.o
 .debug_aranges
                0x00000000       0x90 build\kernel\libcpu\arm\cortex-m7\cpu_cache.o
 .debug_ranges  0x00000000       0x80 build\kernel\libcpu\arm\cortex-m7\cpu_cache.o
 .debug_line    0x00000000      0x40b build\kernel\libcpu\arm\cortex-m7\cpu_cache.o
 .debug_str     0x00000000      0x588 build\kernel\libcpu\arm\cortex-m7\cpu_cache.o
 .comment       0x00000000       0x6f build\kernel\libcpu\arm\cortex-m7\cpu_cache.o
 .debug_frame   0x00000000      0x214 build\kernel\libcpu\arm\cortex-m7\cpu_cache.o
 .ARM.attributes
                0x00000000       0x39 build\kernel\libcpu\arm\cortex-m7\cpu_cache.o
 .text          0x00000000        0x0 build\kernel\libcpu\arm\cortex-m7\cpuport.o
 .data          0x00000000        0x0 build\kernel\libcpu\arm\cortex-m7\cpuport.o
 .bss           0x00000000        0x0 build\kernel\libcpu\arm\cortex-m7\cpuport.o
 .text.rt_hw_exception_install
                0x00000000       0x20 build\kernel\libcpu\arm\cortex-m7\cpuport.o
 .text.rt_hw_cpu_shutdown
                0x00000000       0x28 build\kernel\libcpu\arm\cortex-m7\cpuport.o
 .text.rt_hw_cpu_reset
                0x00000000       0x1c build\kernel\libcpu\arm\cortex-m7\cpuport.o
 .rodata.__FUNCTION__.5749
                0x00000000       0x13 build\kernel\libcpu\arm\cortex-m7\cpuport.o
 .data          0x00000000        0x0 build\kernel\libcpu\arm\cortex-m7\context_gcc.o
 .bss           0x00000000        0x0 build\kernel\libcpu\arm\cortex-m7\context_gcc.o
 .text          0x00000000        0x0 build\kernel\components\dfs\src\dfs.o
 .data          0x00000000        0x0 build\kernel\components\dfs\src\dfs.o
 .bss           0x00000000        0x0 build\kernel\components\dfs\src\dfs.o
 .text          0x00000000        0x0 build\kernel\components\dfs\src\dfs_file.o
 .data          0x00000000        0x0 build\kernel\components\dfs\src\dfs_file.o
 .bss           0x00000000        0x0 build\kernel\components\dfs\src\dfs_file.o
 .text.dfs_file_ioctl
                0x00000000       0x94 build\kernel\components\dfs\src\dfs_file.o
 .text.dfs_file_flush
                0x00000000       0x38 build\kernel\components\dfs\src\dfs_file.o
 .text.dfs_file_ftruncate
                0x00000000       0x60 build\kernel\components\dfs\src\dfs_file.o
 .text          0x00000000        0x0 build\kernel\components\dfs\src\dfs_fs.o
 .data          0x00000000        0x0 build\kernel\components\dfs\src\dfs_fs.o
 .bss           0x00000000        0x0 build\kernel\components\dfs\src\dfs_fs.o
 .text          0x00000000        0x0 build\kernel\components\dfs\src\dfs_posix.o
 .data          0x00000000        0x0 build\kernel\components\dfs\src\dfs_posix.o
 .bss           0x00000000        0x0 build\kernel\components\dfs\src\dfs_posix.o
 .text.fstat    0x00000000       0x78 build\kernel\components\dfs\src\dfs_posix.o
 .text.fsync    0x00000000       0x3c build\kernel\components\dfs\src\dfs_posix.o
 .text.fcntl    0x00000000       0x6c build\kernel\components\dfs\src\dfs_posix.o
 .text.ioctl    0x00000000       0x34 build\kernel\components\dfs\src\dfs_posix.o
 .text.ftruncate
                0x00000000       0x74 build\kernel\components\dfs\src\dfs_posix.o
 .text.statfs   0x00000000       0x30 build\kernel\components\dfs\src\dfs_posix.o
 .text.rmdir    0x00000000       0x2c build\kernel\components\dfs\src\dfs_posix.o
 .text.telldir  0x00000000       0x4c build\kernel\components\dfs\src\dfs_posix.o
 .text.seekdir  0x00000000       0x54 build\kernel\components\dfs\src\dfs_posix.o
 .text.access   0x00000000       0x2c build\kernel\components\dfs\src\dfs_posix.o
 .text          0x00000000        0x0 build\kernel\components\dfs\src\poll.o
 .data          0x00000000        0x0 build\kernel\components\dfs\src\poll.o
 .bss           0x00000000        0x0 build\kernel\components\dfs\src\poll.o
 .text.rt_list_init
                0x00000000       0x24 build\kernel\components\dfs\src\poll.o
 .text.__wqueue_pollwake
                0x00000000       0x40 build\kernel\components\dfs\src\poll.o
 .text._poll_add
                0x00000000       0x6c build\kernel\components\dfs\src\poll.o
 .text.poll_table_init
                0x00000000       0x30 build\kernel\components\dfs\src\poll.o
 .text.poll_wait_timeout
                0x00000000       0x88 build\kernel\components\dfs\src\poll.o
 .text.do_pollfd
                0x00000000       0x9c build\kernel\components\dfs\src\poll.o
 .text.poll_do  0x00000000       0xa8 build\kernel\components\dfs\src\poll.o
 .text.poll_teardown
                0x00000000       0x38 build\kernel\components\dfs\src\poll.o
 .text.poll     0x00000000       0x3c build\kernel\components\dfs\src\poll.o
 .debug_info    0x00000000     0x11a2 build\kernel\components\dfs\src\poll.o
 .debug_abbrev  0x00000000      0x1bb build\kernel\components\dfs\src\poll.o
 .debug_loc     0x00000000      0x2dc build\kernel\components\dfs\src\poll.o
 .debug_aranges
                0x00000000       0x60 build\kernel\components\dfs\src\poll.o
 .debug_ranges  0x00000000       0x50 build\kernel\components\dfs\src\poll.o
 .debug_line    0x00000000      0x36b build\kernel\components\dfs\src\poll.o
 .debug_str     0x00000000      0x9b6 build\kernel\components\dfs\src\poll.o
 .comment       0x00000000       0x6f build\kernel\components\dfs\src\poll.o
 .debug_frame   0x00000000      0x158 build\kernel\components\dfs\src\poll.o
 .ARM.attributes
                0x00000000       0x39 build\kernel\components\dfs\src\poll.o
 .text          0x00000000        0x0 build\kernel\components\dfs\src\select.o
 .data          0x00000000        0x0 build\kernel\components\dfs\src\select.o
 .bss           0x00000000        0x0 build\kernel\components\dfs\src\select.o
 .text.fdszero  0x00000000       0x3c build\kernel\components\dfs\src\select.o
 .rodata        0x00000000        0xd build\kernel\components\dfs\src\select.o
 .text.select   0x00000000      0x350 build\kernel\components\dfs\src\select.o
 .rodata.__FUNCTION__.8438
                0x00000000        0x7 build\kernel\components\dfs\src\select.o
 .debug_info    0x00000000      0x2ad build\kernel\components\dfs\src\select.o
 .debug_abbrev  0x00000000      0x10e build\kernel\components\dfs\src\select.o
 .debug_loc     0x00000000       0xa0 build\kernel\components\dfs\src\select.o
 .debug_aranges
                0x00000000       0x28 build\kernel\components\dfs\src\select.o
 .debug_ranges  0x00000000       0x18 build\kernel\components\dfs\src\select.o
 .debug_line    0x00000000      0x1bd build\kernel\components\dfs\src\select.o
 .debug_str     0x00000000      0x27d build\kernel\components\dfs\src\select.o
 .comment       0x00000000       0x6f build\kernel\components\dfs\src\select.o
 .debug_frame   0x00000000       0x5c build\kernel\components\dfs\src\select.o
 .ARM.attributes
                0x00000000       0x39 build\kernel\components\dfs\src\select.o
 .text          0x00000000        0x0 build\kernel\components\dfs\filesystems\devfs\devfs.o
 .data          0x00000000        0x0 build\kernel\components\dfs\filesystems\devfs\devfs.o
 .bss           0x00000000        0x0 build\kernel\components\dfs\filesystems\devfs\devfs.o
 .text          0x00000000        0x0 build\kernel\components\dfs\filesystems\elmfat\dfs_elm.o
 .data          0x00000000        0x0 build\kernel\components\dfs\filesystems\elmfat\dfs_elm.o
 .bss           0x00000000        0x0 build\kernel\components\dfs\filesystems\elmfat\dfs_elm.o
 .text          0x00000000        0x0 build\kernel\components\dfs\filesystems\elmfat\ff.o
 .data          0x00000000        0x0 build\kernel\components\dfs\filesystems\elmfat\ff.o
 .bss           0x00000000        0x0 build\kernel\components\dfs\filesystems\elmfat\ff.o
 .text.f_closedir
                0x00000000       0x3c build\kernel\components\dfs\filesystems\elmfat\ff.o
 .text          0x00000000        0x0 build\kernel\components\dfs\filesystems\elmfat\ffunicode.o
 .data          0x00000000        0x0 build\kernel\components\dfs\filesystems\elmfat\ffunicode.o
 .bss           0x00000000        0x0 build\kernel\components\dfs\filesystems\elmfat\ffunicode.o
 .text          0x00000000        0x0 build\kernel\components\drivers\cputime\cputime.o
 .data          0x00000000        0x0 build\kernel\components\drivers\cputime\cputime.o
 .bss           0x00000000        0x0 build\kernel\components\drivers\cputime\cputime.o
 .bss._cputime_ops
                0x00000000        0x4 build\kernel\components\drivers\cputime\cputime.o
 .text.clock_cpu_getres
                0x00000000       0x34 build\kernel\components\drivers\cputime\cputime.o
 .text.clock_cpu_gettime
                0x00000000       0x2c build\kernel\components\drivers\cputime\cputime.o
 .text.clock_cpu_microsecond
                0x00000000       0x40 build\kernel\components\drivers\cputime\cputime.o
 .text.clock_cpu_millisecond
                0x00000000       0x40 build\kernel\components\drivers\cputime\cputime.o
 .rodata        0x00000000       0x40 build\kernel\components\drivers\cputime\cputime.o
 .text.clock_cpu_setops
                0x00000000       0x54 build\kernel\components\drivers\cputime\cputime.o
 .rodata.__FUNCTION__.6842
                0x00000000       0x11 build\kernel\components\drivers\cputime\cputime.o
 .debug_info    0x00000000      0x200 build\kernel\components\drivers\cputime\cputime.o
 .debug_abbrev  0x00000000       0xf2 build\kernel\components\drivers\cputime\cputime.o
 .debug_loc     0x00000000      0x148 build\kernel\components\drivers\cputime\cputime.o
 .debug_aranges
                0x00000000       0x40 build\kernel\components\drivers\cputime\cputime.o
 .debug_ranges  0x00000000       0x30 build\kernel\components\drivers\cputime\cputime.o
 .debug_line    0x00000000      0x1ad build\kernel\components\drivers\cputime\cputime.o
 .debug_str     0x00000000      0x28d build\kernel\components\drivers\cputime\cputime.o
 .comment       0x00000000       0x6f build\kernel\components\drivers\cputime\cputime.o
 .debug_frame   0x00000000       0xb4 build\kernel\components\drivers\cputime\cputime.o
 .ARM.attributes
                0x00000000       0x39 build\kernel\components\drivers\cputime\cputime.o
 .text          0x00000000        0x0 build\kernel\components\drivers\misc\pin.o
 .data          0x00000000        0x0 build\kernel\components\drivers\misc\pin.o
 .bss           0x00000000        0x0 build\kernel\components\drivers\misc\pin.o
 .text.rt_pin_attach_irq
                0x00000000       0x58 build\kernel\components\drivers\misc\pin.o
 .text.rt_pin_detach_irq
                0x00000000       0x4c build\kernel\components\drivers\misc\pin.o
 .text.rt_pin_irq_enable
                0x00000000       0x50 build\kernel\components\drivers\misc\pin.o
 .rodata.__FUNCTION__.8347
                0x00000000       0x12 build\kernel\components\drivers\misc\pin.o
 .rodata.__FUNCTION__.8351
                0x00000000       0x12 build\kernel\components\drivers\misc\pin.o
 .rodata.__FUNCTION__.8356
                0x00000000       0x12 build\kernel\components\drivers\misc\pin.o
 .text          0x00000000        0x0 build\kernel\components\drivers\misc\pulse_encoder.o
 .data          0x00000000        0x0 build\kernel\components\drivers\misc\pulse_encoder.o
 .bss           0x00000000        0x0 build\kernel\components\drivers\misc\pulse_encoder.o
 .text          0x00000000        0x0 build\kernel\components\drivers\sdio\block_dev.o
 .data          0x00000000        0x0 build\kernel\components\drivers\sdio\block_dev.o
 .bss           0x00000000        0x0 build\kernel\components\drivers\sdio\block_dev.o
 .text.mmcsd_num_wr_blocks
                0x00000000      0x148 build\kernel\components\drivers\sdio\block_dev.o
 .text.rt_mmcsd_blk_init
                0x00000000       0x10 build\kernel\components\drivers\sdio\block_dev.o
 .text          0x00000000        0x0 build\kernel\components\drivers\sdio\mmcsd_core.o
 .data          0x00000000        0x0 build\kernel\components\drivers\sdio\mmcsd_core.o
 .bss           0x00000000        0x0 build\kernel\components\drivers\sdio\mmcsd_core.o
 .text.mmcsd_deselect_cards
                0x00000000       0x20 build\kernel\components\drivers\sdio\mmcsd_core.o
 .text.mmcsd_wait_cd_changed
                0x00000000       0x3c build\kernel\components\drivers\sdio\mmcsd_core.o
 .text          0x00000000        0x0 build\kernel\components\drivers\sdio\sd.o
 .data          0x00000000        0x0 build\kernel\components\drivers\sdio\sd.o
 .bss           0x00000000        0x0 build\kernel\components\drivers\sdio\sd.o
 .text          0x00000000        0x0 build\kernel\components\drivers\sdio\sdio.o
 .data          0x00000000        0x0 build\kernel\components\drivers\sdio\sdio.o
 .bss           0x00000000        0x0 build\kernel\components\drivers\sdio\sdio.o
 .text.rt_list_remove
                0x00000000       0x38 build\kernel\components\drivers\sdio\sdio.o
 .text.sdio_io_rw_extended
                0x00000000      0x1e4 build\kernel\components\drivers\sdio\sdio.o
 .text.sdio_max_block_size
                0x00000000       0x48 build\kernel\components\drivers\sdio\sdio.o
 .text.sdio_io_rw_extended_block
                0x00000000      0x15c build\kernel\components\drivers\sdio\sdio.o
 .text.sdio_io_readw
                0x00000000       0x50 build\kernel\components\drivers\sdio\sdio.o
 .text.sdio_io_writew
                0x00000000       0x34 build\kernel\components\drivers\sdio\sdio.o
 .text.sdio_io_readl
                0x00000000       0x4c build\kernel\components\drivers\sdio\sdio.o
 .text.sdio_io_writel
                0x00000000       0x30 build\kernel\components\drivers\sdio\sdio.o
 .text.sdio_io_read_multi_fifo_b
                0x00000000       0x2c build\kernel\components\drivers\sdio\sdio.o
 .text.sdio_io_write_multi_fifo_b
                0x00000000       0x2c build\kernel\components\drivers\sdio\sdio.o
 .text.sdio_io_read_multi_incr_b
                0x00000000       0x2c build\kernel\components\drivers\sdio\sdio.o
 .text.sdio_io_write_multi_incr_b
                0x00000000       0x2c build\kernel\components\drivers\sdio\sdio.o
 .text.sdio_irq_thread
                0x00000000       0xf0 build\kernel\components\drivers\sdio\sdio.o
 .text.sdio_irq_thread_create
                0x00000000       0x98 build\kernel\components\drivers\sdio\sdio.o
 .text.sdio_irq_thread_delete
                0x00000000       0x88 build\kernel\components\drivers\sdio\sdio.o
 .text.sdio_attach_irq
                0x00000000       0xd0 build\kernel\components\drivers\sdio\sdio.o
 .text.sdio_detach_irq
                0x00000000       0xc4 build\kernel\components\drivers\sdio\sdio.o
 .text.sdio_irq_wakeup
                0x00000000       0x40 build\kernel\components\drivers\sdio\sdio.o
 .text.sdio_enable_func
                0x00000000      0x100 build\kernel\components\drivers\sdio\sdio.o
 .text.sdio_disable_func
                0x00000000       0xa0 build\kernel\components\drivers\sdio\sdio.o
 .text.sdio_set_drvdata
                0x00000000       0x1c build\kernel\components\drivers\sdio\sdio.o
 .text.sdio_get_drvdata
                0x00000000       0x18 build\kernel\components\drivers\sdio\sdio.o
 .text.sdio_set_block_size
                0x00000000       0xa4 build\kernel\components\drivers\sdio\sdio.o
 .text.sdio_match_driver
                0x00000000       0x4c build\kernel\components\drivers\sdio\sdio.o
 .text.sdio_register_driver
                0x00000000       0x8c build\kernel\components\drivers\sdio\sdio.o
 .text.sdio_unregister_driver
                0x00000000       0xb0 build\kernel\components\drivers\sdio\sdio.o
 .rodata.__FUNCTION__.6032
                0x00000000       0x14 build\kernel\components\drivers\sdio\sdio.o
 .rodata.__FUNCTION__.6245
                0x00000000       0x10 build\kernel\components\drivers\sdio\sdio.o
 .rodata.__FUNCTION__.6257
                0x00000000       0x17 build\kernel\components\drivers\sdio\sdio.o
 .rodata.__FUNCTION__.6262
                0x00000000       0x17 build\kernel\components\drivers\sdio\sdio.o
 .rodata.__FUNCTION__.6270
                0x00000000       0x10 build\kernel\components\drivers\sdio\sdio.o
 .rodata.__FUNCTION__.6277
                0x00000000       0x10 build\kernel\components\drivers\sdio\sdio.o
 .rodata.__FUNCTION__.6288
                0x00000000       0x11 build\kernel\components\drivers\sdio\sdio.o
 .rodata.__FUNCTION__.6298
                0x00000000       0x12 build\kernel\components\drivers\sdio\sdio.o
 .text          0x00000000        0x0 build\kernel\components\drivers\sdio\mmc.o
 .data          0x00000000        0x0 build\kernel\components\drivers\sdio\mmc.o
 .bss           0x00000000        0x0 build\kernel\components\drivers\sdio\mmc.o
 .text          0x00000000        0x0 build\kernel\components\drivers\serial\serial.o
 .data          0x00000000        0x0 build\kernel\components\drivers\serial\serial.o
 .bss           0x00000000        0x0 build\kernel\components\drivers\serial\serial.o
 .text          0x00000000        0x0 build\kernel\components\drivers\src\completion.o
 .data          0x00000000        0x0 build\kernel\components\drivers\src\completion.o
 .bss           0x00000000        0x0 build\kernel\components\drivers\src\completion.o
 .text          0x00000000        0x0 build\kernel\components\drivers\src\dataqueue.o
 .data          0x00000000        0x0 build\kernel\components\drivers\src\dataqueue.o
 .bss           0x00000000        0x0 build\kernel\components\drivers\src\dataqueue.o
 .text          0x00000000        0x0 build\kernel\components\drivers\src\pipe.o
 .data          0x00000000        0x0 build\kernel\components\drivers\src\pipe.o
 .bss           0x00000000        0x0 build\kernel\components\drivers\src\pipe.o
 .text.rt_list_init
                0x00000000       0x24 build\kernel\components\drivers\src\pipe.o
 .rodata        0x00000000       0x34 build\kernel\components\drivers\src\pipe.o
 .text.rt_wqueue_init
                0x00000000       0x38 build\kernel\components\drivers\src\pipe.o
 .text.rt_poll_add
                0x00000000       0x30 build\kernel\components\drivers\src\pipe.o
 .text.pipe_fops_open
                0x00000000       0xd8 build\kernel\components\drivers\src\pipe.o
 .text.pipe_fops_close
                0x00000000      0x10c build\kernel\components\drivers\src\pipe.o
 .text.pipe_fops_ioctl
                0x00000000       0x74 build\kernel\components\drivers\src\pipe.o
 .text.pipe_fops_read
                0x00000000       0xc8 build\kernel\components\drivers\src\pipe.o
 .text.pipe_fops_write
                0x00000000      0x118 build\kernel\components\drivers\src\pipe.o
 .text.pipe_fops_poll
                0x00000000       0xd4 build\kernel\components\drivers\src\pipe.o
 .rodata.pipe_fops
                0x00000000       0x24 build\kernel\components\drivers\src\pipe.o
 .text.rt_pipe_open
                0x00000000       0x6c build\kernel\components\drivers\src\pipe.o
 .text.rt_pipe_close
                0x00000000       0x54 build\kernel\components\drivers\src\pipe.o
 .text.rt_pipe_read
                0x00000000       0x94 build\kernel\components\drivers\src\pipe.o
 .text.rt_pipe_write
                0x00000000       0x94 build\kernel\components\drivers\src\pipe.o
 .text.rt_pipe_control
                0x00000000       0x1c build\kernel\components\drivers\src\pipe.o
 .text.rt_pipe_create
                0x00000000       0xf4 build\kernel\components\drivers\src\pipe.o
 .text.rt_pipe_delete
                0x00000000       0x7c build\kernel\components\drivers\src\pipe.o
 .text.pipe     0x00000000       0xb8 build\kernel\components\drivers\src\pipe.o
 .text.mkfifo   0x00000000       0x2c build\kernel\components\drivers\src\pipe.o
 .rodata.__FUNCTION__.8591
                0x00000000        0xf build\kernel\components\drivers\src\pipe.o
 .rodata.__FUNCTION__.5876
                0x00000000        0xf build\kernel\components\drivers\src\pipe.o
 .bss.pipeno.8604
                0x00000000        0x4 build\kernel\components\drivers\src\pipe.o
 .debug_info    0x00000000     0x160f build\kernel\components\drivers\src\pipe.o
 .debug_abbrev  0x00000000      0x29b build\kernel\components\drivers\src\pipe.o
 .debug_loc     0x00000000      0x5ba build\kernel\components\drivers\src\pipe.o
 .debug_aranges
                0x00000000       0xa8 build\kernel\components\drivers\src\pipe.o
 .debug_ranges  0x00000000       0xc8 build\kernel\components\drivers\src\pipe.o
 .debug_line    0x00000000      0x4fa build\kernel\components\drivers\src\pipe.o
 .debug_str     0x00000000      0xb14 build\kernel\components\drivers\src\pipe.o
 .comment       0x00000000       0x6f build\kernel\components\drivers\src\pipe.o
 .debug_frame   0x00000000      0x2ac build\kernel\components\drivers\src\pipe.o
 .ARM.attributes
                0x00000000       0x39 build\kernel\components\drivers\src\pipe.o
 .text          0x00000000        0x0 build\kernel\components\drivers\src\ringblk_buf.o
 .data          0x00000000        0x0 build\kernel\components\drivers\src\ringblk_buf.o
 .bss           0x00000000        0x0 build\kernel\components\drivers\src\ringblk_buf.o
 .text.rt_slist_init
                0x00000000       0x1c build\kernel\components\drivers\src\ringblk_buf.o
 .text.rt_slist_append
                0x00000000       0x38 build\kernel\components\drivers\src\ringblk_buf.o
 .text.rt_slist_len
                0x00000000       0x34 build\kernel\components\drivers\src\ringblk_buf.o
 .text.rt_slist_remove
                0x00000000       0x48 build\kernel\components\drivers\src\ringblk_buf.o
 .text.rt_slist_first
                0x00000000       0x18 build\kernel\components\drivers\src\ringblk_buf.o
 .text.rt_slist_tail
                0x00000000       0x28 build\kernel\components\drivers\src\ringblk_buf.o
 .text.rt_slist_next
                0x00000000       0x18 build\kernel\components\drivers\src\ringblk_buf.o
 .text.rt_slist_isempty
                0x00000000       0x24 build\kernel\components\drivers\src\ringblk_buf.o
 .rodata        0x00000000       0x86 build\kernel\components\drivers\src\ringblk_buf.o
 .text.rt_rbb_init
                0x00000000       0xa0 build\kernel\components\drivers\src\ringblk_buf.o
 .text.rt_rbb_create
                0x00000000       0x7c build\kernel\components\drivers\src\ringblk_buf.o
 .text.rt_rbb_destroy
                0x00000000       0x44 build\kernel\components\drivers\src\ringblk_buf.o
 .text.find_empty_blk_in_set
                0x00000000       0x68 build\kernel\components\drivers\src\ringblk_buf.o
 .text.rt_rbb_blk_alloc
                0x00000000      0x200 build\kernel\components\drivers\src\ringblk_buf.o
 .text.rt_rbb_blk_put
                0x00000000       0x44 build\kernel\components\drivers\src\ringblk_buf.o
 .text.rt_rbb_blk_get
                0x00000000       0x88 build\kernel\components\drivers\src\ringblk_buf.o
 .text.rt_rbb_blk_size
                0x00000000       0x34 build\kernel\components\drivers\src\ringblk_buf.o
 .text.rt_rbb_blk_buf
                0x00000000       0x30 build\kernel\components\drivers\src\ringblk_buf.o
 .text.rt_rbb_blk_free
                0x00000000       0x80 build\kernel\components\drivers\src\ringblk_buf.o
 .text.rt_rbb_blk_queue_get
                0x00000000      0x118 build\kernel\components\drivers\src\ringblk_buf.o
 .text.rt_rbb_blk_queue_len
                0x00000000       0x64 build\kernel\components\drivers\src\ringblk_buf.o
 .text.rt_rbb_blk_queue_buf
                0x00000000       0x30 build\kernel\components\drivers\src\ringblk_buf.o
 .text.rt_rbb_blk_queue_free
                0x00000000       0x70 build\kernel\components\drivers\src\ringblk_buf.o
 .text.rt_rbb_next_blk_queue_len
                0x00000000       0xb8 build\kernel\components\drivers\src\ringblk_buf.o
 .text.rt_rbb_get_buf_size
                0x00000000       0x30 build\kernel\components\drivers\src\ringblk_buf.o
 .rodata.__FUNCTION__.6906
                0x00000000        0xc build\kernel\components\drivers\src\ringblk_buf.o
 .rodata.__FUNCTION__.6920
                0x00000000        0xf build\kernel\components\drivers\src\ringblk_buf.o
 .rodata.__FUNCTION__.6925
                0x00000000       0x16 build\kernel\components\drivers\src\ringblk_buf.o
 .rodata.__FUNCTION__.6939
                0x00000000       0x11 build\kernel\components\drivers\src\ringblk_buf.o
 .rodata.__FUNCTION__.6943
                0x00000000        0xf build\kernel\components\drivers\src\ringblk_buf.o
 .rodata.__FUNCTION__.6950
                0x00000000        0xf build\kernel\components\drivers\src\ringblk_buf.o
 .rodata.__FUNCTION__.6958
                0x00000000       0x10 build\kernel\components\drivers\src\ringblk_buf.o
 .rodata.__FUNCTION__.6962
                0x00000000        0xf build\kernel\components\drivers\src\ringblk_buf.o
 .rodata.__FUNCTION__.6968
                0x00000000       0x10 build\kernel\components\drivers\src\ringblk_buf.o
 .rodata.__FUNCTION__.6979
                0x00000000       0x15 build\kernel\components\drivers\src\ringblk_buf.o
 .rodata.__FUNCTION__.6989
                0x00000000       0x15 build\kernel\components\drivers\src\ringblk_buf.o
 .rodata.__FUNCTION__.6996
                0x00000000       0x15 build\kernel\components\drivers\src\ringblk_buf.o
 .rodata.__FUNCTION__.7002
                0x00000000       0x16 build\kernel\components\drivers\src\ringblk_buf.o
 .rodata.__FUNCTION__.7014
                0x00000000       0x1a build\kernel\components\drivers\src\ringblk_buf.o
 .rodata.__FUNCTION__.7022
                0x00000000       0x14 build\kernel\components\drivers\src\ringblk_buf.o
 .debug_info    0x00000000      0xa7b build\kernel\components\drivers\src\ringblk_buf.o
 .debug_abbrev  0x00000000      0x22c build\kernel\components\drivers\src\ringblk_buf.o
 .debug_loc     0x00000000      0x7e0 build\kernel\components\drivers\src\ringblk_buf.o
 .debug_aranges
                0x00000000       0xd8 build\kernel\components\drivers\src\ringblk_buf.o
 .debug_ranges  0x00000000       0xc8 build\kernel\components\drivers\src\ringblk_buf.o
 .debug_line    0x00000000      0x494 build\kernel\components\drivers\src\ringblk_buf.o
 .debug_str     0x00000000      0x523 build\kernel\components\drivers\src\ringblk_buf.o
 .comment       0x00000000       0x6f build\kernel\components\drivers\src\ringblk_buf.o
 .debug_frame   0x00000000      0x390 build\kernel\components\drivers\src\ringblk_buf.o
 .ARM.attributes
                0x00000000       0x39 build\kernel\components\drivers\src\ringblk_buf.o
 .text          0x00000000        0x0 build\kernel\components\drivers\src\ringbuffer.o
 .data          0x00000000        0x0 build\kernel\components\drivers\src\ringbuffer.o
 .bss           0x00000000        0x0 build\kernel\components\drivers\src\ringbuffer.o
 .text.rt_ringbuffer_status
                0x00000000       0x50 build\kernel\components\drivers\src\ringbuffer.o
 .rodata        0x00000000       0x19 build\kernel\components\drivers\src\ringbuffer.o
 .text.rt_ringbuffer_init
                0x00000000       0xa4 build\kernel\components\drivers\src\ringbuffer.o
 .text.rt_ringbuffer_put
                0x00000000      0x16c build\kernel\components\drivers\src\ringbuffer.o
 .text.rt_ringbuffer_put_force
                0x00000000      0x1d0 build\kernel\components\drivers\src\ringbuffer.o
 .text.rt_ringbuffer_get
                0x00000000      0x15c build\kernel\components\drivers\src\ringbuffer.o
 .text.rt_ringbuffer_peak
                0x00000000       0xdc build\kernel\components\drivers\src\ringbuffer.o
 .text.rt_ringbuffer_putchar
                0x00000000       0xb8 build\kernel\components\drivers\src\ringbuffer.o
 .text.rt_ringbuffer_putchar_force
                0x00000000      0x100 build\kernel\components\drivers\src\ringbuffer.o
 .text.rt_ringbuffer_getchar
                0x00000000       0xb4 build\kernel\components\drivers\src\ringbuffer.o
 .text.rt_ringbuffer_data_len
                0x00000000       0x84 build\kernel\components\drivers\src\ringbuffer.o
 .text.rt_ringbuffer_reset
                0x00000000       0x54 build\kernel\components\drivers\src\ringbuffer.o
 .text.rt_ringbuffer_create
                0x00000000       0x74 build\kernel\components\drivers\src\ringbuffer.o
 .text.rt_ringbuffer_destroy
                0x00000000       0x3c build\kernel\components\drivers\src\ringbuffer.o
 .rodata.__FUNCTION__.7011
                0x00000000       0x13 build\kernel\components\drivers\src\ringbuffer.o
 .rodata.__FUNCTION__.7018
                0x00000000       0x12 build\kernel\components\drivers\src\ringbuffer.o
 .rodata.__FUNCTION__.7025
                0x00000000       0x18 build\kernel\components\drivers\src\ringbuffer.o
 .rodata.__FUNCTION__.7032
                0x00000000       0x12 build\kernel\components\drivers\src\ringbuffer.o
 .rodata.__FUNCTION__.7037
                0x00000000       0x13 build\kernel\components\drivers\src\ringbuffer.o
 .rodata.__FUNCTION__.7043
                0x00000000       0x16 build\kernel\components\drivers\src\ringbuffer.o
 .rodata.__FUNCTION__.7049
                0x00000000       0x1c build\kernel\components\drivers\src\ringbuffer.o
 .rodata.__FUNCTION__.7054
                0x00000000       0x16 build\kernel\components\drivers\src\ringbuffer.o
 .rodata.__FUNCTION__.7065
                0x00000000       0x14 build\kernel\components\drivers\src\ringbuffer.o
 .rodata.__FUNCTION__.7071
                0x00000000       0x15 build\kernel\components\drivers\src\ringbuffer.o
 .rodata.__FUNCTION__.7076
                0x00000000       0x16 build\kernel\components\drivers\src\ringbuffer.o
 .debug_info    0x00000000      0x61f build\kernel\components\drivers\src\ringbuffer.o
 .debug_abbrev  0x00000000      0x1b1 build\kernel\components\drivers\src\ringbuffer.o
 .debug_loc     0x00000000      0x41c build\kernel\components\drivers\src\ringbuffer.o
 .debug_aranges
                0x00000000       0x80 build\kernel\components\drivers\src\ringbuffer.o
 .debug_ranges  0x00000000       0x70 build\kernel\components\drivers\src\ringbuffer.o
 .debug_line    0x00000000      0x275 build\kernel\components\drivers\src\ringbuffer.o
 .debug_str     0x00000000      0x3e9 build\kernel\components\drivers\src\ringbuffer.o
 .comment       0x00000000       0x6f build\kernel\components\drivers\src\ringbuffer.o
 .debug_frame   0x00000000      0x1f8 build\kernel\components\drivers\src\ringbuffer.o
 .ARM.attributes
                0x00000000       0x39 build\kernel\components\drivers\src\ringbuffer.o
 .text          0x00000000        0x0 build\kernel\components\drivers\src\waitqueue.o
 .data          0x00000000        0x0 build\kernel\components\drivers\src\waitqueue.o
 .bss           0x00000000        0x0 build\kernel\components\drivers\src\waitqueue.o
 .text          0x00000000        0x0 build\kernel\components\drivers\src\workqueue.o
 .data          0x00000000        0x0 build\kernel\components\drivers\src\workqueue.o
 .bss           0x00000000        0x0 build\kernel\components\drivers\src\workqueue.o
 .text.rt_list_init
                0x00000000       0x24 build\kernel\components\drivers\src\workqueue.o
 .text.rt_list_insert_after
                0x00000000       0x34 build\kernel\components\drivers\src\workqueue.o
 .text.rt_list_remove
                0x00000000       0x38 build\kernel\components\drivers\src\workqueue.o
 .text.rt_list_isempty
                0x00000000       0x24 build\kernel\components\drivers\src\workqueue.o
 .text.rt_work_init
                0x00000000       0x3c build\kernel\components\drivers\src\workqueue.o
 .text._workqueue_work_completion
                0x00000000       0x4c build\kernel\components\drivers\src\workqueue.o
 .rodata        0x00000000       0x34 build\kernel\components\drivers\src\workqueue.o
 .text._workqueue_thread_entry
                0x00000000       0xa0 build\kernel\components\drivers\src\workqueue.o
 .text._workqueue_submit_work
                0x00000000       0x90 build\kernel\components\drivers\src\workqueue.o
 .text._workqueue_cancel_work
                0x00000000       0x4c build\kernel\components\drivers\src\workqueue.o
 .text._workqueue_cancel_delayed_work
                0x00000000       0xa4 build\kernel\components\drivers\src\workqueue.o
 .text._workqueue_submit_delayed_work
                0x00000000       0xbc build\kernel\components\drivers\src\workqueue.o
 .text._delayed_work_timeout_handler
                0x00000000       0x5c build\kernel\components\drivers\src\workqueue.o
 .text.rt_workqueue_create
                0x00000000       0x8c build\kernel\components\drivers\src\workqueue.o
 .text.rt_workqueue_destroy
                0x00000000       0x3c build\kernel\components\drivers\src\workqueue.o
 .text.rt_workqueue_dowork
                0x00000000       0x4c build\kernel\components\drivers\src\workqueue.o
 .text.rt_workqueue_submit_work
                0x00000000       0x7c build\kernel\components\drivers\src\workqueue.o
 .text.rt_workqueue_critical_work
                0x00000000       0x9c build\kernel\components\drivers\src\workqueue.o
 .text.rt_workqueue_cancel_work
                0x00000000       0x64 build\kernel\components\drivers\src\workqueue.o
 .text.rt_workqueue_cancel_work_sync
                0x00000000       0x80 build\kernel\components\drivers\src\workqueue.o
 .text.rt_workqueue_cancel_all_work
                0x00000000       0x54 build\kernel\components\drivers\src\workqueue.o
 .text.rt_delayed_work_init
                0x00000000       0x20 build\kernel\components\drivers\src\workqueue.o
 .rodata.__FUNCTION__.6912
                0x00000000       0x18 build\kernel\components\drivers\src\workqueue.o
 .rodata.__FUNCTION__.6952
                0x00000000       0x15 build\kernel\components\drivers\src\workqueue.o
 .rodata.__FUNCTION__.6957
                0x00000000       0x14 build\kernel\components\drivers\src\workqueue.o
 .rodata.__FUNCTION__.6963
                0x00000000       0x19 build\kernel\components\drivers\src\workqueue.o
 .rodata.__FUNCTION__.6969
                0x00000000       0x1b build\kernel\components\drivers\src\workqueue.o
 .rodata.__FUNCTION__.6974
                0x00000000       0x19 build\kernel\components\drivers\src\workqueue.o
 .rodata.__FUNCTION__.6980
                0x00000000       0x1e build\kernel\components\drivers\src\workqueue.o
 .rodata.__FUNCTION__.6986
                0x00000000       0x1d build\kernel\components\drivers\src\workqueue.o
 .debug_info    0x00000000      0xbc4 build\kernel\components\drivers\src\workqueue.o
 .debug_abbrev  0x00000000      0x21b build\kernel\components\drivers\src\workqueue.o
 .debug_loc     0x00000000      0x6a8 build\kernel\components\drivers\src\workqueue.o
 .debug_aranges
                0x00000000       0xc0 build\kernel\components\drivers\src\workqueue.o
 .debug_ranges  0x00000000       0xb0 build\kernel\components\drivers\src\workqueue.o
 .debug_line    0x00000000      0x35c build\kernel\components\drivers\src\workqueue.o
 .debug_str     0x00000000      0x65a build\kernel\components\drivers\src\workqueue.o
 .comment       0x00000000       0x6f build\kernel\components\drivers\src\workqueue.o
 .debug_frame   0x00000000      0x314 build\kernel\components\drivers\src\workqueue.o
 .ARM.attributes
                0x00000000       0x39 build\kernel\components\drivers\src\workqueue.o
 .text          0x00000000        0x0 build\kernel\components\drivers\usb\usbhost\core\usbhost_core.o
 .data          0x00000000        0x0 build\kernel\components\drivers\usb\usbhost\core\usbhost_core.o
 .bss           0x00000000        0x0 build\kernel\components\drivers\usb\usbhost\core\usbhost_core.o
 .text.rt_usbh_set_interface
                0x00000000       0x64 build\kernel\components\drivers\usb\usbhost\core\usbhost_core.o
 .rodata.__FUNCTION__.6098
                0x00000000       0x16 build\kernel\components\drivers\usb\usbhost\core\usbhost_core.o
 .text          0x00000000        0x0 build\kernel\components\drivers\usb\usbhost\core\driver.o
 .data          0x00000000        0x0 build\kernel\components\drivers\usb\usbhost\core\driver.o
 .bss           0x00000000        0x0 build\kernel\components\drivers\usb\usbhost\core\driver.o
 .text.rt_list_remove
                0x00000000       0x38 build\kernel\components\drivers\usb\usbhost\core\driver.o
 .text.rt_usbh_class_driver_unregister
                0x00000000       0x34 build\kernel\components\drivers\usb\usbhost\core\driver.o
 .rodata.__FUNCTION__.6037
                0x00000000       0x20 build\kernel\components\drivers\usb\usbhost\core\driver.o
 .text          0x00000000        0x0 build\kernel\components\drivers\usb\usbhost\core\usbhost.o
 .data          0x00000000        0x0 build\kernel\components\drivers\usb\usbhost\core\usbhost.o
 .bss           0x00000000        0x0 build\kernel\components\drivers\usb\usbhost\core\usbhost.o
 .text          0x00000000        0x0 build\kernel\components\drivers\usb\usbhost\core\hub.o
 .data          0x00000000        0x0 build\kernel\components\drivers\usb\usbhost\core\hub.o
 .bss           0x00000000        0x0 build\kernel\components\drivers\usb\usbhost\core\hub.o
 .text.rt_usbh_hub_get_status
                0x00000000       0x7c build\kernel\components\drivers\usb\usbhost\core\hub.o
 .rodata.__FUNCTION__.6079
                0x00000000       0x17 build\kernel\components\drivers\usb\usbhost\core\hub.o
 .text          0x00000000        0x0 build\kernel\components\drivers\usb\usbhost\class\mass.o
 .data          0x00000000        0x0 build\kernel\components\drivers\usb\usbhost\class\mass.o
 .bss           0x00000000        0x0 build\kernel\components\drivers\usb\usbhost\class\mass.o
 .text          0x00000000        0x0 build\kernel\components\drivers\usb\usbhost\class\udisk.o
 .data          0x00000000        0x0 build\kernel\components\drivers\usb\usbhost\class\udisk.o
 .bss           0x00000000        0x0 build\kernel\components\drivers\usb\usbhost\class\udisk.o
 .text          0x00000000        0x0 build\kernel\components\drivers\usb\usbhost\class\hid.o
 .data          0x00000000        0x0 build\kernel\components\drivers\usb\usbhost\class\hid.o
 .bss           0x00000000        0x0 build\kernel\components\drivers\usb\usbhost\class\hid.o
 .text.rt_usbh_hid_get_report
                0x00000000       0xa4 build\kernel\components\drivers\usb\usbhost\class\hid.o
 .text.rt_usbh_hid_set_report
                0x00000000       0x94 build\kernel\components\drivers\usb\usbhost\class\hid.o
 .text.rt_usbh_hid_get_report_descriptor
                0x00000000       0xc0 build\kernel\components\drivers\usb\usbhost\class\hid.o
 .text.rt_usbh_hid_callback
                0x00000000       0x7c build\kernel\components\drivers\usb\usbhost\class\hid.o
 .rodata.__FUNCTION__.6075
                0x00000000       0x17 build\kernel\components\drivers\usb\usbhost\class\hid.o
 .rodata.__FUNCTION__.6086
                0x00000000       0x17 build\kernel\components\drivers\usb\usbhost\class\hid.o
 .rodata.__FUNCTION__.6104
                0x00000000       0x22 build\kernel\components\drivers\usb\usbhost\class\hid.o
 .rodata.__FUNCTION__.6115
                0x00000000       0x15 build\kernel\components\drivers\usb\usbhost\class\hid.o
 .text          0x00000000        0x0 build\kernel\components\drivers\usb\usbhost\class\umouse.o
 .data          0x00000000        0x0 build\kernel\components\drivers\usb\usbhost\class\umouse.o
 .bss           0x00000000        0x0 build\kernel\components\drivers\usb\usbhost\class\umouse.o
 .text          0x00000000        0x0 build\kernel\components\finsh\shell.o
 .data          0x00000000        0x0 build\kernel\components\finsh\shell.o
 .bss           0x00000000        0x0 build\kernel\components\finsh\shell.o
 .text.finsh_set_prompt
                0x00000000       0x60 build\kernel\components\finsh\shell.o
 .text.finsh_get_prompt_mode
                0x00000000       0x34 build\kernel\components\finsh\shell.o
 .text.finsh_set_echo
                0x00000000       0x4c build\kernel\components\finsh\shell.o
 .text.finsh_get_echo
                0x00000000       0x38 build\kernel\components\finsh\shell.o
 .rodata.__FUNCTION__.8705
                0x00000000       0x16 build\kernel\components\finsh\shell.o
 .rodata.__FUNCTION__.8716
                0x00000000        0xf build\kernel\components\finsh\shell.o
 .rodata.__FUNCTION__.8719
                0x00000000        0xf build\kernel\components\finsh\shell.o
 .text          0x00000000        0x0 build\kernel\components\finsh\cmd.o
 .data          0x00000000        0x0 build\kernel\components\finsh\cmd.o
 .bss           0x00000000        0x0 build\kernel\components\finsh\cmd.o
 .text          0x00000000        0x0 build\kernel\components\finsh\msh.o
 .data          0x00000000        0x0 build\kernel\components\finsh\msh.o
 .bss           0x00000000        0x0 build\kernel\components\finsh\msh.o
 .text          0x00000000        0x0 build\kernel\components\finsh\msh_file.o
 .data          0x00000000        0x0 build\kernel\components\finsh\msh_file.o
 .bss           0x00000000        0x0 build\kernel\components\finsh\msh_file.o
 .text          0x00000000        0x0 build\kernel\components\libc\compilers\common\time.o
 .data          0x00000000        0x0 build\kernel\components\libc\compilers\common\time.o
 .bss           0x00000000        0x0 build\kernel\components\libc\compilers\common\time.o
 .rodata.days   0x00000000       0x1d build\kernel\components\libc\compilers\common\time.o
 .rodata.months
                0x00000000       0x31 build\kernel\components\libc\compilers\common\time.o
 .text.gmtime   0x00000000       0x20 build\kernel\components\libc\compilers\common\time.o
 .text.num2str  0x00000000       0x58 build\kernel\components\libc\compilers\common\time.o
 .text.asctime_r
                0x00000000      0x110 build\kernel\components\libc\compilers\common\time.o
 .text.asctime  0x00000000       0x20 build\kernel\components\libc\compilers\common\time.o
 .text.ctime    0x00000000       0x20 build\kernel\components\libc\compilers\common\time.o
 .rodata        0x00000000       0x16 build\kernel\components\libc\compilers\common\time.o
 .text.gettimeofday
                0x00000000       0x5c build\kernel\components\libc\compilers\common\time.o
 .text.clock    0x00000000       0x10 build\kernel\components\libc\compilers\common\time.o
 .bss.tmp.5656  0x00000000       0x24 build\kernel\components\libc\compilers\common\time.o
 .bss.buf.5685  0x00000000       0x19 build\kernel\components\libc\compilers\common\time.o
 .rodata.__FUNCTION__.5695
                0x00000000        0xd build\kernel\components\libc\compilers\common\time.o
 .text          0x00000000        0x0 build\kernel\components\libc\compilers\common\unistd.o
 .data          0x00000000        0x0 build\kernel\components\libc\compilers\common\unistd.o
 .bss           0x00000000        0x0 build\kernel\components\libc\compilers\common\unistd.o
 .rodata        0x00000000        0xa build\kernel\components\libc\compilers\common\unistd.o
 .text.ttyname  0x00000000       0x1c build\kernel\components\libc\compilers\common\unistd.o
 .debug_info    0x00000000       0xb3 build\kernel\components\libc\compilers\common\unistd.o
 .debug_abbrev  0x00000000       0x5e build\kernel\components\libc\compilers\common\unistd.o
 .debug_loc     0x00000000       0x5c build\kernel\components\libc\compilers\common\unistd.o
 .debug_aranges
                0x00000000       0x20 build\kernel\components\libc\compilers\common\unistd.o
 .debug_ranges  0x00000000       0x10 build\kernel\components\libc\compilers\common\unistd.o
 .debug_line    0x00000000       0xb7 build\kernel\components\libc\compilers\common\unistd.o
 .debug_str     0x00000000      0x1c4 build\kernel\components\libc\compilers\common\unistd.o
 .comment       0x00000000       0x6f build\kernel\components\libc\compilers\common\unistd.o
 .debug_frame   0x00000000       0x38 build\kernel\components\libc\compilers\common\unistd.o
 .ARM.attributes
                0x00000000       0x39 build\kernel\components\libc\compilers\common\unistd.o
 .text          0x00000000        0x0 build\kernel\components\libc\compilers\newlib\libc.o
 .data          0x00000000        0x0 build\kernel\components\libc\compilers\newlib\libc.o
 .bss           0x00000000        0x0 build\kernel\components\libc\compilers\newlib\libc.o
 .text          0x00000000        0x0 build\kernel\components\libc\compilers\newlib\libc_syms.o
 .data          0x00000000        0x0 build\kernel\components\libc\compilers\newlib\libc_syms.o
 .bss           0x00000000        0x0 build\kernel\components\libc\compilers\newlib\libc_syms.o
 .debug_info    0x00000000       0x79 build\kernel\components\libc\compilers\newlib\libc_syms.o
 .debug_abbrev  0x00000000       0x26 build\kernel\components\libc\compilers\newlib\libc_syms.o
 .debug_aranges
                0x00000000       0x18 build\kernel\components\libc\compilers\newlib\libc_syms.o
 .debug_line    0x00000000       0x1d build\kernel\components\libc\compilers\newlib\libc_syms.o
 .debug_str     0x00000000      0x1bf build\kernel\components\libc\compilers\newlib\libc_syms.o
 .comment       0x00000000       0x6f build\kernel\components\libc\compilers\newlib\libc_syms.o
 .ARM.attributes
                0x00000000       0x39 build\kernel\components\libc\compilers\newlib\libc_syms.o
 .text          0x00000000        0x0 build\kernel\components\libc\compilers\newlib\stdio.o
 .data          0x00000000        0x0 build\kernel\components\libc\compilers\newlib\stdio.o
 .bss           0x00000000        0x0 build\kernel\components\libc\compilers\newlib\stdio.o
 .text          0x00000000        0x0 build\kernel\components\libc\compilers\newlib\syscalls.o
 .data          0x00000000        0x0 build\kernel\components\libc\compilers\newlib\syscalls.o
 .bss           0x00000000        0x0 build\kernel\components\libc\compilers\newlib\syscalls.o
 .text._execve_r
                0x00000000       0x24 build\kernel\components\libc\compilers\newlib\syscalls.o
 .text._fcntl_r
                0x00000000       0x24 build\kernel\components\libc\compilers\newlib\syscalls.o
 .text._fork_r  0x00000000       0x20 build\kernel\components\libc\compilers\newlib\syscalls.o
 .text._getpid_r
                0x00000000       0x18 build\kernel\components\libc\compilers\newlib\syscalls.o
 .text._kill_r  0x00000000       0x24 build\kernel\components\libc\compilers\newlib\syscalls.o
 .text._link_r  0x00000000       0x24 build\kernel\components\libc\compilers\newlib\syscalls.o
 .text._mkdir_r
                0x00000000       0x24 build\kernel\components\libc\compilers\newlib\syscalls.o
 .text._rename_r
                0x00000000       0x20 build\kernel\components\libc\compilers\newlib\syscalls.o
 .text._sbrk_r  0x00000000       0x18 build\kernel\components\libc\compilers\newlib\syscalls.o
 .text._stat_r  0x00000000       0x20 build\kernel\components\libc\compilers\newlib\syscalls.o
 .text._times_r
                0x00000000       0x20 build\kernel\components\libc\compilers\newlib\syscalls.o
 .text._unlink_r
                0x00000000       0x1c build\kernel\components\libc\compilers\newlib\syscalls.o
 .text._wait_r  0x00000000       0x20 build\kernel\components\libc\compilers\newlib\syscalls.o
 .bss._timevalue
                0x00000000        0x8 build\kernel\components\libc\compilers\newlib\syscalls.o
 .text.libc_system_time_init
                0x00000000       0x80 build\kernel\components\libc\compilers\newlib\syscalls.o
 .text.libc_get_time
                0x00000000       0x98 build\kernel\components\libc\compilers\newlib\syscalls.o
 .text._gettimeofday_r
                0x00000000       0x54 build\kernel\components\libc\compilers\newlib\syscalls.o
 .text.exit     0x00000000       0x34 build\kernel\components\libc\compilers\newlib\syscalls.o
 .text._system  0x00000000       0x14 build\kernel\components\libc\compilers\newlib\syscalls.o
 .text.__libc_init_array
                0x00000000       0x10 build\kernel\components\libc\compilers\newlib\syscalls.o
 .text.getuid   0x00000000       0x10 build\kernel\components\libc\compilers\newlib\syscalls.o
 .text.umask    0x00000000       0x18 build\kernel\components\libc\compilers\newlib\syscalls.o
 .text.flock    0x00000000       0x18 build\kernel\components\libc\compilers\newlib\syscalls.o
 .rodata.__FUNCTION__.8593
                0x00000000        0xe build\kernel\components\libc\compilers\newlib\syscalls.o
 .bss.inited.8592
                0x00000000        0x4 build\kernel\components\libc\compilers\newlib\syscalls.o
 .rodata.__FUNCTION__.8624
                0x00000000        0x5 build\kernel\components\libc\compilers\newlib\syscalls.o
 .text          0x00000000        0x0 libraries\MIMXRT1050\MIMXRT1052\system_MIMXRT1052.o
 .data          0x00000000        0x0 libraries\MIMXRT1050\MIMXRT1052\system_MIMXRT1052.o
 .bss           0x00000000        0x0 libraries\MIMXRT1050\MIMXRT1052\system_MIMXRT1052.o
 .text.SystemCoreClockUpdate
                0x00000000      0x200 libraries\MIMXRT1050\MIMXRT1052\system_MIMXRT1052.o
 .text          0x00000000        0x0 libraries\MIMXRT1050\MIMXRT1052\drivers\fsl_common.o
 .data          0x00000000        0x0 libraries\MIMXRT1050\MIMXRT1052\drivers\fsl_common.o
 .bss           0x00000000        0x0 libraries\MIMXRT1050\MIMXRT1052\drivers\fsl_common.o
 .text.SDK_Malloc
                0x00000000       0x6c libraries\MIMXRT1050\MIMXRT1052\drivers\fsl_common.o
 .text.SDK_Free
                0x00000000       0x34 libraries\MIMXRT1050\MIMXRT1052\drivers\fsl_common.o
 .debug_info    0x00000000      0x1f1 libraries\MIMXRT1050\MIMXRT1052\drivers\fsl_common.o
 .debug_abbrev  0x00000000       0xf3 libraries\MIMXRT1050\MIMXRT1052\drivers\fsl_common.o
 .debug_loc     0x00000000       0xa0 libraries\MIMXRT1050\MIMXRT1052\drivers\fsl_common.o
 .debug_aranges
                0x00000000       0x28 libraries\MIMXRT1050\MIMXRT1052\drivers\fsl_common.o
 .debug_ranges  0x00000000       0x18 libraries\MIMXRT1050\MIMXRT1052\drivers\fsl_common.o
 .debug_line    0x00000000      0x1d2 libraries\MIMXRT1050\MIMXRT1052\drivers\fsl_common.o
 .debug_str     0x00000000      0x2df libraries\MIMXRT1050\MIMXRT1052\drivers\fsl_common.o
 .comment       0x00000000       0x6f libraries\MIMXRT1050\MIMXRT1052\drivers\fsl_common.o
 .debug_frame   0x00000000       0x58 libraries\MIMXRT1050\MIMXRT1052\drivers\fsl_common.o
 .ARM.attributes
                0x00000000       0x39 libraries\MIMXRT1050\MIMXRT1052\drivers\fsl_common.o
 .text          0x00000000        0x0 libraries\MIMXRT1050\MIMXRT1052\drivers\fsl_clock.o
 .data          0x00000000        0x0 libraries\MIMXRT1050\MIMXRT1052\drivers\fsl_clock.o
 .bss           0x00000000        0x0 libraries\MIMXRT1050\MIMXRT1052\drivers\fsl_clock.o
 .text.CLOCK_GetRtcFreq
                0x00000000       0x14 libraries\MIMXRT1050\MIMXRT1052\drivers\fsl_clock.o
 .text.CLOCK_GetPeriphClkFreq
                0x00000000       0xe0 libraries\MIMXRT1050\MIMXRT1052\drivers\fsl_clock.o
 .text.CLOCK_DeinitExternalClk
                0x00000000       0x1c libraries\MIMXRT1050\MIMXRT1052\drivers\fsl_clock.o
 .text.CLOCK_DeinitRcOsc24M
                0x00000000       0x24 libraries\MIMXRT1050\MIMXRT1052\drivers\fsl_clock.o
 .text.CLOCK_GetAhbFreq
                0x00000000       0x24 libraries\MIMXRT1050\MIMXRT1052\drivers\fsl_clock.o
 .text.CLOCK_GetSemcFreq
                0x00000000       0x5c libraries\MIMXRT1050\MIMXRT1052\drivers\fsl_clock.o
 .text.CLOCK_GetIpgFreq
                0x00000000       0x24 libraries\MIMXRT1050\MIMXRT1052\drivers\fsl_clock.o
 .text.CLOCK_GetPerClkFreq
                0x00000000       0x44 libraries\MIMXRT1050\MIMXRT1052\drivers\fsl_clock.o
 .text.CLOCK_GetFreq
                0x00000000      0x170 libraries\MIMXRT1050\MIMXRT1052\drivers\fsl_clock.o
 .text.CLOCK_DisableUsbhs0PhyPllClock
                0x00000000       0x30 libraries\MIMXRT1050\MIMXRT1052\drivers\fsl_clock.o
 .text.CLOCK_DeinitArmPll
                0x00000000       0x1c libraries\MIMXRT1050\MIMXRT1052\drivers\fsl_clock.o
 .text.CLOCK_InitSysPll
                0x00000000       0x9c libraries\MIMXRT1050\MIMXRT1052\drivers\fsl_clock.o
 .text.CLOCK_DeinitSysPll
                0x00000000       0x1c libraries\MIMXRT1050\MIMXRT1052\drivers\fsl_clock.o
 .text.CLOCK_DeinitUsb1Pll
                0x00000000       0x18 libraries\MIMXRT1050\MIMXRT1052\drivers\fsl_clock.o
 .text.CLOCK_DeinitUsb2Pll
                0x00000000       0x18 libraries\MIMXRT1050\MIMXRT1052\drivers\fsl_clock.o
 .text.CLOCK_InitAudioPll
                0x00000000      0x12c libraries\MIMXRT1050\MIMXRT1052\drivers\fsl_clock.o
 .text.CLOCK_InitVideoPll
                0x00000000      0x134 libraries\MIMXRT1050\MIMXRT1052\drivers\fsl_clock.o
 .text.CLOCK_InitEnetPll
                0x00000000       0x94 libraries\MIMXRT1050\MIMXRT1052\drivers\fsl_clock.o
 .text.CLOCK_InitSysPfd
                0x00000000       0x64 libraries\MIMXRT1050\MIMXRT1052\drivers\fsl_clock.o
 .text.CLOCK_DeinitSysPfd
                0x00000000       0x34 libraries\MIMXRT1050\MIMXRT1052\drivers\fsl_clock.o
 .text.CLOCK_InitUsb1Pfd
                0x00000000       0x64 libraries\MIMXRT1050\MIMXRT1052\drivers\fsl_clock.o
 .text.CLOCK_DeinitUsb1Pfd
                0x00000000       0x34 libraries\MIMXRT1050\MIMXRT1052\drivers\fsl_clock.o
 .text.CLOCK_GetUsb1PfdFreq
                0x00000000       0xac libraries\MIMXRT1050\MIMXRT1052\drivers\fsl_clock.o
 .text.CLOCK_DisableUsbhs1PhyPllClock
                0x00000000       0x30 libraries\MIMXRT1050\MIMXRT1052\drivers\fsl_clock.o
 .text          0x00000000        0x0 libraries\MIMXRT1050\MIMXRT1052\drivers\fsl_cache.o
 .data          0x00000000        0x0 libraries\MIMXRT1050\MIMXRT1052\drivers\fsl_cache.o
 .bss           0x00000000        0x0 libraries\MIMXRT1050\MIMXRT1052\drivers\fsl_cache.o
 .text.SCB_InvalidateDCache_by_Addr
                0x00000000       0x54 libraries\MIMXRT1050\MIMXRT1052\drivers\fsl_cache.o
 .text.L1CACHE_InvalidateDCacheByRange
                0x00000000       0x34 libraries\MIMXRT1050\MIMXRT1052\drivers\fsl_cache.o
 .text.L1CACHE_InvalidateICacheByRange
                0x00000000       0x60 libraries\MIMXRT1050\MIMXRT1052\drivers\fsl_cache.o
 .text.ICACHE_InvalidateByRange
                0x00000000       0x1c libraries\MIMXRT1050\MIMXRT1052\drivers\fsl_cache.o
 .text.DCACHE_InvalidateByRange
                0x00000000       0x1c libraries\MIMXRT1050\MIMXRT1052\drivers\fsl_cache.o
 .data          0x00000000        0x0 libraries\MIMXRT1050\MIMXRT1052\gcc\startup_MIMXRT1052.o
 .bss           0x00000000        0x0 libraries\MIMXRT1050\MIMXRT1052\gcc\startup_MIMXRT1052.o
 .text          0x00000000        0x0 libraries\MIMXRT1050\MIMXRT1052\drivers\fsl_gpio.o
 .data          0x00000000        0x0 libraries\MIMXRT1050\MIMXRT1052\drivers\fsl_gpio.o
 .bss           0x00000000        0x0 libraries\MIMXRT1050\MIMXRT1052\drivers\fsl_gpio.o
 .text          0x00000000        0x0 libraries\MIMXRT1050\MIMXRT1052\drivers\fsl_lpuart.o
 .data          0x00000000        0x0 libraries\MIMXRT1050\MIMXRT1052\drivers\fsl_lpuart.o
 .bss           0x00000000        0x0 libraries\MIMXRT1050\MIMXRT1052\drivers\fsl_lpuart.o
 .text.__NVIC_EnableIRQ
                0x00000000       0x3c libraries\MIMXRT1050\MIMXRT1052\drivers\fsl_lpuart.o
 .text.CLOCK_DisableClock
                0x00000000       0x20 libraries\MIMXRT1050\MIMXRT1052\drivers\fsl_lpuart.o
 .text.EnableIRQ
                0x00000000       0x2c libraries\MIMXRT1050\MIMXRT1052\drivers\fsl_lpuart.o
 .rodata.s_lpuartIRQ
                0x00000000       0x12 libraries\MIMXRT1050\MIMXRT1052\drivers\fsl_lpuart.o
 .text.LPUART_TransferGetRxRingBufferLength
                0x00000000       0x70 libraries\MIMXRT1050\MIMXRT1052\drivers\fsl_lpuart.o
 .text.LPUART_TransferIsRxRingBufferFull
                0x00000000       0x50 libraries\MIMXRT1050\MIMXRT1052\drivers\fsl_lpuart.o
 .text.LPUART_WriteNonBlocking
                0x00000000       0x54 libraries\MIMXRT1050\MIMXRT1052\drivers\fsl_lpuart.o
 .text.LPUART_ReadNonBlocking
                0x00000000       0xa4 libraries\MIMXRT1050\MIMXRT1052\drivers\fsl_lpuart.o
 .text.LPUART_Deinit
                0x00000000       0x70 libraries\MIMXRT1050\MIMXRT1052\drivers\fsl_lpuart.o
 .text.LPUART_SetBaudRate
                0x00000000      0x158 libraries\MIMXRT1050\MIMXRT1052\drivers\fsl_lpuart.o
 .text.LPUART_DisableInterrupts
                0x00000000       0x58 libraries\MIMXRT1050\MIMXRT1052\drivers\fsl_lpuart.o
 .text.LPUART_GetEnabledInterrupts
                0x00000000       0x44 libraries\MIMXRT1050\MIMXRT1052\drivers\fsl_lpuart.o
 .text.LPUART_WriteBlocking
                0x00000000       0x5c libraries\MIMXRT1050\MIMXRT1052\drivers\fsl_lpuart.o
 .text.LPUART_ReadBlocking
                0x00000000      0x120 libraries\MIMXRT1050\MIMXRT1052\drivers\fsl_lpuart.o
 .text.LPUART_TransferCreateHandle
                0x00000000       0xd0 libraries\MIMXRT1050\MIMXRT1052\drivers\fsl_lpuart.o
 .text.LPUART_TransferStartRingBuffer
                0x00000000       0x70 libraries\MIMXRT1050\MIMXRT1052\drivers\fsl_lpuart.o
 .text.LPUART_TransferStopRingBuffer
                0x00000000       0x60 libraries\MIMXRT1050\MIMXRT1052\drivers\fsl_lpuart.o
 .text.LPUART_TransferSendNonBlocking
                0x00000000       0xc4 libraries\MIMXRT1050\MIMXRT1052\drivers\fsl_lpuart.o
 .text.LPUART_TransferAbortSend
                0x00000000       0x4c libraries\MIMXRT1050\MIMXRT1052\drivers\fsl_lpuart.o
 .text.LPUART_TransferGetSendCount
                0x00000000       0x6c libraries\MIMXRT1050\MIMXRT1052\drivers\fsl_lpuart.o
 .text.LPUART_TransferReceiveNonBlocking
                0x00000000      0x1c0 libraries\MIMXRT1050\MIMXRT1052\drivers\fsl_lpuart.o
 .text.LPUART_TransferAbortReceive
                0x00000000       0x54 libraries\MIMXRT1050\MIMXRT1052\drivers\fsl_lpuart.o
 .text.LPUART_TransferGetReceiveCount
                0x00000000       0x6c libraries\MIMXRT1050\MIMXRT1052\drivers\fsl_lpuart.o
 .text.LPUART_TransferHandleIRQ
                0x00000000      0x398 libraries\MIMXRT1050\MIMXRT1052\drivers\fsl_lpuart.o
 .text.LPUART_TransferHandleErrorIRQ
                0x00000000       0x18 libraries\MIMXRT1050\MIMXRT1052\drivers\fsl_lpuart.o
 .rodata.__func__.9531
                0x00000000       0x25 libraries\MIMXRT1050\MIMXRT1052\drivers\fsl_lpuart.o
 .rodata.__func__.9537
                0x00000000       0x22 libraries\MIMXRT1050\MIMXRT1052\drivers\fsl_lpuart.o
 .rodata.__func__.9544
                0x00000000       0x18 libraries\MIMXRT1050\MIMXRT1052\drivers\fsl_lpuart.o
 .rodata.__func__.9554
                0x00000000       0x17 libraries\MIMXRT1050\MIMXRT1052\drivers\fsl_lpuart.o
 .rodata.__func__.9599
                0x00000000       0x13 libraries\MIMXRT1050\MIMXRT1052\drivers\fsl_lpuart.o
 .rodata.__func__.9639
                0x00000000       0x15 libraries\MIMXRT1050\MIMXRT1052\drivers\fsl_lpuart.o
 .rodata.__func__.9651
                0x00000000       0x14 libraries\MIMXRT1050\MIMXRT1052\drivers\fsl_lpuart.o
 .rodata.__func__.9667
                0x00000000       0x1c libraries\MIMXRT1050\MIMXRT1052\drivers\fsl_lpuart.o
 .rodata.__func__.9677
                0x00000000       0x1f libraries\MIMXRT1050\MIMXRT1052\drivers\fsl_lpuart.o
 .rodata.__func__.9682
                0x00000000       0x1e libraries\MIMXRT1050\MIMXRT1052\drivers\fsl_lpuart.o
 .rodata.__func__.9688
                0x00000000       0x1f libraries\MIMXRT1050\MIMXRT1052\drivers\fsl_lpuart.o
 .rodata.__func__.9694
                0x00000000       0x19 libraries\MIMXRT1050\MIMXRT1052\drivers\fsl_lpuart.o
 .rodata.__func__.9700
                0x00000000       0x1c libraries\MIMXRT1050\MIMXRT1052\drivers\fsl_lpuart.o
 .rodata.__func__.9707
                0x00000000       0x22 libraries\MIMXRT1050\MIMXRT1052\drivers\fsl_lpuart.o
 .rodata.__func__.9720
                0x00000000       0x1c libraries\MIMXRT1050\MIMXRT1052\drivers\fsl_lpuart.o
 .rodata.__func__.9726
                0x00000000       0x1f libraries\MIMXRT1050\MIMXRT1052\drivers\fsl_lpuart.o
 .rodata.__func__.9731
                0x00000000       0x19 libraries\MIMXRT1050\MIMXRT1052\drivers\fsl_lpuart.o
 .text          0x00000000        0x0 libraries\MIMXRT1050\MIMXRT1052\drivers\fsl_usdhc.o
 .data          0x00000000        0x0 libraries\MIMXRT1050\MIMXRT1052\drivers\fsl_usdhc.o
 .bss           0x00000000        0x0 libraries\MIMXRT1050\MIMXRT1052\drivers\fsl_usdhc.o
 .text.__NVIC_EnableIRQ
                0x00000000       0x3c libraries\MIMXRT1050\MIMXRT1052\drivers\fsl_usdhc.o
 .text.CLOCK_DisableClock
                0x00000000       0x20 libraries\MIMXRT1050\MIMXRT1052\drivers\fsl_usdhc.o
 .text.EnableIRQ
                0x00000000       0x2c libraries\MIMXRT1050\MIMXRT1052\drivers\fsl_usdhc.o
 .text.USDHC_Deinit
                0x00000000       0x28 libraries\MIMXRT1050\MIMXRT1052\drivers\fsl_usdhc.o
 .text.USDHC_GetCapability
                0x00000000       0x9c libraries\MIMXRT1050\MIMXRT1052\drivers\fsl_usdhc.o
 .text.USDHC_SetCardActive
                0x00000000       0x4c libraries\MIMXRT1050\MIMXRT1052\drivers\fsl_usdhc.o
 .text.USDHC_EnableDDRMode
                0x00000000       0x8c libraries\MIMXRT1050\MIMXRT1052\drivers\fsl_usdhc.o
 .text.USDHC_SetMmcBootConfig
                0x00000000      0x108 libraries\MIMXRT1050\MIMXRT1052\drivers\fsl_usdhc.o
 .text.USDHC_TransferNonBlocking
                0x00000000      0x168 libraries\MIMXRT1050\MIMXRT1052\drivers\fsl_usdhc.o
 .text.USDHC_EnableManualTuning
                0x00000000       0x54 libraries\MIMXRT1050\MIMXRT1052\drivers\fsl_usdhc.o
 .text.USDHC_AdjustDelayForManualTuning
                0x00000000       0x50 libraries\MIMXRT1050\MIMXRT1052\drivers\fsl_usdhc.o
 .text.USDHC_EnableStandardTuning
                0x00000000       0x90 libraries\MIMXRT1050\MIMXRT1052\drivers\fsl_usdhc.o
 .text.USDHC_EnableAutoTuningForCmdAndData
                0x00000000       0xac libraries\MIMXRT1050\MIMXRT1052\drivers\fsl_usdhc.o
 .text.USDHC_TransferHandleCardDetect
                0x00000000       0x4c libraries\MIMXRT1050\MIMXRT1052\drivers\fsl_usdhc.o
 .text.USDHC_TransferHandleCommand
                0x00000000       0xb4 libraries\MIMXRT1050\MIMXRT1052\drivers\fsl_usdhc.o
 .text.USDHC_TransferHandleData
                0x00000000      0x120 libraries\MIMXRT1050\MIMXRT1052\drivers\fsl_usdhc.o
 .text.USDHC_TransferHandleSdioInterrupt
                0x00000000       0x28 libraries\MIMXRT1050\MIMXRT1052\drivers\fsl_usdhc.o
 .text.USDHC_TransferHandleReTuning
                0x00000000       0x50 libraries\MIMXRT1050\MIMXRT1052\drivers\fsl_usdhc.o
 .text.USDHC_TransferHandleBlockGap
                0x00000000       0x28 libraries\MIMXRT1050\MIMXRT1052\drivers\fsl_usdhc.o
 .text.USDHC_TransferCreateHandle
                0x00000000       0xd0 libraries\MIMXRT1050\MIMXRT1052\drivers\fsl_usdhc.o
 .text.USDHC_TransferHandleIRQ
                0x00000000       0xe0 libraries\MIMXRT1050\MIMXRT1052\drivers\fsl_usdhc.o
 .rodata.__func__.10035
                0x00000000       0x14 libraries\MIMXRT1050\MIMXRT1052\drivers\fsl_usdhc.o
 .rodata.__func__.10075
                0x00000000       0x17 libraries\MIMXRT1050\MIMXRT1052\drivers\fsl_usdhc.o
 .rodata.__func__.10156
                0x00000000       0x1a libraries\MIMXRT1050\MIMXRT1052\drivers\fsl_usdhc.o
 .rodata.__func__.10192
                0x00000000       0x1c libraries\MIMXRT1050\MIMXRT1052\drivers\fsl_usdhc.o
 .rodata.__func__.10198
                0x00000000       0x19 libraries\MIMXRT1050\MIMXRT1052\drivers\fsl_usdhc.o
 .rodata.__func__.10208
                0x00000000       0x1d libraries\MIMXRT1050\MIMXRT1052\drivers\fsl_usdhc.o
 .rodata.__func__.10219
                0x00000000       0x1b libraries\MIMXRT1050\MIMXRT1052\drivers\fsl_usdhc.o
 .rodata.__func__.10224
                0x00000000       0x18 libraries\MIMXRT1050\MIMXRT1052\drivers\fsl_usdhc.o
 .text          0x00000000        0x0 libraries\MIMXRT1050\MIMXRT1052\drivers\fsl_enc.o
 .data          0x00000000        0x0 libraries\MIMXRT1050\MIMXRT1052\drivers\fsl_enc.o
 .bss           0x00000000        0x0 libraries\MIMXRT1050\MIMXRT1052\drivers\fsl_enc.o
 .text.ENC_SetSelfTestConfig
                0x00000000       0x60 libraries\MIMXRT1050\MIMXRT1052\drivers\fsl_enc.o
 .text.ENC_EnableWatchdog
                0x00000000       0x3c libraries\MIMXRT1050\MIMXRT1052\drivers\fsl_enc.o
 .text.ENC_GetStatusFlags
                0x00000000       0xd8 libraries\MIMXRT1050\MIMXRT1052\drivers\fsl_enc.o
 .text.ENC_ClearStatusFlags
                0x00000000       0xdc libraries\MIMXRT1050\MIMXRT1052\drivers\fsl_enc.o
 .text.ENC_EnableInterrupts
                0x00000000       0xdc libraries\MIMXRT1050\MIMXRT1052\drivers\fsl_enc.o
 .text.ENC_DisableInterrupts
                0x00000000       0xec libraries\MIMXRT1050\MIMXRT1052\drivers\fsl_enc.o
 .text.ENC_GetEnabledInterrupts
                0x00000000       0xc4 libraries\MIMXRT1050\MIMXRT1052\drivers\fsl_enc.o
 .text.ENC_GetHoldPositionValue
                0x00000000       0x34 libraries\MIMXRT1050\MIMXRT1052\drivers\fsl_enc.o
 .text          0x00000000        0x0 libraries\MIMXRT1050\MIMXRT1052\drivers\fsl_xbara.o
 .data          0x00000000        0x0 libraries\MIMXRT1050\MIMXRT1052\drivers\fsl_xbara.o
 .bss           0x00000000        0x0 libraries\MIMXRT1050\MIMXRT1052\drivers\fsl_xbara.o
 .rodata        0x00000000       0x98 libraries\MIMXRT1050\MIMXRT1052\drivers\fsl_xbara.o
 .text.CLOCK_ControlGate
                0x00000000       0x74 libraries\MIMXRT1050\MIMXRT1052\drivers\fsl_xbara.o
 .text.CLOCK_EnableClock
                0x00000000       0x20 libraries\MIMXRT1050\MIMXRT1052\drivers\fsl_xbara.o
 .text.CLOCK_DisableClock
                0x00000000       0x20 libraries\MIMXRT1050\MIMXRT1052\drivers\fsl_xbara.o
 .rodata.s_xbaraBases
                0x00000000        0x4 libraries\MIMXRT1050\MIMXRT1052\drivers\fsl_xbara.o
 .rodata.s_xbaraClock
                0x00000000        0x2 libraries\MIMXRT1050\MIMXRT1052\drivers\fsl_xbara.o
 .text.XBARA_GetInstance
                0x00000000       0x54 libraries\MIMXRT1050\MIMXRT1052\drivers\fsl_xbara.o
 .text.XBARA_Init
                0x00000000       0x20 libraries\MIMXRT1050\MIMXRT1052\drivers\fsl_xbara.o
 .text.XBARA_Deinit
                0x00000000       0x20 libraries\MIMXRT1050\MIMXRT1052\drivers\fsl_xbara.o
 .text.XBARA_GetStatusFlags
                0x00000000       0x3c libraries\MIMXRT1050\MIMXRT1052\drivers\fsl_xbara.o
 .text.XBARA_ClearStatusFlags
                0x00000000       0x7c libraries\MIMXRT1050\MIMXRT1052\drivers\fsl_xbara.o
 .text.XBARA_SetOutputSignalConfig
                0x00000000      0x140 libraries\MIMXRT1050\MIMXRT1052\drivers\fsl_xbara.o
 .rodata.__func__.9306
                0x00000000       0x12 libraries\MIMXRT1050\MIMXRT1052\drivers\fsl_xbara.o
 .rodata.__func__.9110
                0x00000000       0x12 libraries\MIMXRT1050\MIMXRT1052\drivers\fsl_xbara.o
 .text          0x00000000        0x0 libraries\MIMXRT1050\MIMXRT1052\drivers\fsl_xbarb.o
 .data          0x00000000        0x0 libraries\MIMXRT1050\MIMXRT1052\drivers\fsl_xbarb.o
 .bss           0x00000000        0x0 libraries\MIMXRT1050\MIMXRT1052\drivers\fsl_xbarb.o
 .rodata        0x00000000       0x98 libraries\MIMXRT1050\MIMXRT1052\drivers\fsl_xbarb.o
 .text.CLOCK_ControlGate
                0x00000000       0x74 libraries\MIMXRT1050\MIMXRT1052\drivers\fsl_xbarb.o
 .text.CLOCK_EnableClock
                0x00000000       0x20 libraries\MIMXRT1050\MIMXRT1052\drivers\fsl_xbarb.o
 .text.CLOCK_DisableClock
                0x00000000       0x20 libraries\MIMXRT1050\MIMXRT1052\drivers\fsl_xbarb.o
 .rodata.s_xbarbBases
                0x00000000       0x10 libraries\MIMXRT1050\MIMXRT1052\drivers\fsl_xbarb.o
 .rodata.s_xbarbClock
                0x00000000        0x8 libraries\MIMXRT1050\MIMXRT1052\drivers\fsl_xbarb.o
 .text.XBARB_GetInstance
                0x00000000       0x58 libraries\MIMXRT1050\MIMXRT1052\drivers\fsl_xbarb.o
 .text.XBARB_Init
                0x00000000       0x28 libraries\MIMXRT1050\MIMXRT1052\drivers\fsl_xbarb.o
 .text.XBARB_Deinit
                0x00000000       0x28 libraries\MIMXRT1050\MIMXRT1052\drivers\fsl_xbarb.o
 .text.XBARB_SetSignalsConnection
                0x00000000       0x70 libraries\MIMXRT1050\MIMXRT1052\drivers\fsl_xbarb.o
 .rodata.__func__.9276
                0x00000000       0x12 libraries\MIMXRT1050\MIMXRT1052\drivers\fsl_xbarb.o
 .rodata.__func__.9110
                0x00000000       0x12 libraries\MIMXRT1050\MIMXRT1052\drivers\fsl_xbarb.o
 .debug_info    0x00000000     0x19fa libraries\MIMXRT1050\MIMXRT1052\drivers\fsl_xbarb.o
 .debug_abbrev  0x00000000      0x1c4 libraries\MIMXRT1050\MIMXRT1052\drivers\fsl_xbarb.o
 .debug_loc     0x00000000      0x23c libraries\MIMXRT1050\MIMXRT1052\drivers\fsl_xbarb.o
 .debug_aranges
                0x00000000       0x50 libraries\MIMXRT1050\MIMXRT1052\drivers\fsl_xbarb.o
 .debug_ranges  0x00000000       0x40 libraries\MIMXRT1050\MIMXRT1052\drivers\fsl_xbarb.o
 .debug_line    0x00000000      0x22e libraries\MIMXRT1050\MIMXRT1052\drivers\fsl_xbarb.o
 .debug_str     0x00000000     0x3da8 libraries\MIMXRT1050\MIMXRT1052\drivers\fsl_xbarb.o
 .comment       0x00000000       0x6f libraries\MIMXRT1050\MIMXRT1052\drivers\fsl_xbarb.o
 .debug_frame   0x00000000      0x110 libraries\MIMXRT1050\MIMXRT1052\drivers\fsl_xbarb.o
 .ARM.attributes
                0x00000000       0x39 libraries\MIMXRT1050\MIMXRT1052\drivers\fsl_xbarb.o
 .text          0x00000000        0x0 libraries\MIMXRT1050\MIMXRT1052\drivers\fsl_os_abstraction_rtthread.o
 .data          0x00000000        0x0 libraries\MIMXRT1050\MIMXRT1052\drivers\fsl_os_abstraction_rtthread.o
 .bss           0x00000000        0x0 libraries\MIMXRT1050\MIMXRT1052\drivers\fsl_os_abstraction_rtthread.o
 .text.main_task
                0x00000000       0x14 libraries\MIMXRT1050\MIMXRT1052\drivers\fsl_os_abstraction_rtthread.o
 .rodata.gUseRtos_c
                0x00000000        0x1 libraries\MIMXRT1050\MIMXRT1052\drivers\fsl_os_abstraction_rtthread.o
 .bss.s_osaState
                0x00000000        0xc libraries\MIMXRT1050\MIMXRT1052\drivers\fsl_os_abstraction_rtthread.o
 .text.startup_task
                0x00000000       0x18 libraries\MIMXRT1050\MIMXRT1052\drivers\fsl_os_abstraction_rtthread.o
 .text.OSA_TimeDelay
                0x00000000       0x18 libraries\MIMXRT1050\MIMXRT1052\drivers\fsl_os_abstraction_rtthread.o
 .text.OSA_TimeGetMsec
                0x00000000       0x10 libraries\MIMXRT1050\MIMXRT1052\drivers\fsl_os_abstraction_rtthread.o
 .text.OSA_SemaphoreCreate
                0x00000000       0x58 libraries\MIMXRT1050\MIMXRT1052\drivers\fsl_os_abstraction_rtthread.o
 .text.OSA_SemaphoreDestroy
                0x00000000       0x40 libraries\MIMXRT1050\MIMXRT1052\drivers\fsl_os_abstraction_rtthread.o
 .text.OSA_SemaphoreWait
                0x00000000       0x6c libraries\MIMXRT1050\MIMXRT1052\drivers\fsl_os_abstraction_rtthread.o
 .text.OSA_SemaphorePost
                0x00000000       0x44 libraries\MIMXRT1050\MIMXRT1052\drivers\fsl_os_abstraction_rtthread.o
 .text.OSA_EventClear
                0x00000000       0x5c libraries\MIMXRT1050\MIMXRT1052\drivers\fsl_os_abstraction_rtthread.o
 .text.OSA_EventGet
                0x00000000       0x7c libraries\MIMXRT1050\MIMXRT1052\drivers\fsl_os_abstraction_rtthread.o
 .text.OSA_MsgQCreate
                0x00000000       0x5c libraries\MIMXRT1050\MIMXRT1052\drivers\fsl_os_abstraction_rtthread.o
 .text.OSA_MsgQPut
                0x00000000       0x58 libraries\MIMXRT1050\MIMXRT1052\drivers\fsl_os_abstraction_rtthread.o
 .text.OSA_MsgQGet
                0x00000000       0x78 libraries\MIMXRT1050\MIMXRT1052\drivers\fsl_os_abstraction_rtthread.o
 .text.OSA_MsgQDestroy
                0x00000000       0x40 libraries\MIMXRT1050\MIMXRT1052\drivers\fsl_os_abstraction_rtthread.o
 .text.OSA_InterruptEnable
                0x00000000        0xc libraries\MIMXRT1050\MIMXRT1052\drivers\fsl_os_abstraction_rtthread.o
 .text.OSA_InterruptDisable
                0x00000000        0xc libraries\MIMXRT1050\MIMXRT1052\drivers\fsl_os_abstraction_rtthread.o
 .text.OSA_EnableIRQGlobal
                0x00000000       0x30 libraries\MIMXRT1050\MIMXRT1052\drivers\fsl_os_abstraction_rtthread.o
 .text.OSA_DisableIRQGlobal
                0x00000000       0x20 libraries\MIMXRT1050\MIMXRT1052\drivers\fsl_os_abstraction_rtthread.o
 .text.OSA_InstallIntHandler
                0x00000000       0x18 libraries\MIMXRT1050\MIMXRT1052\drivers\fsl_os_abstraction_rtthread.o
 .rodata.__func__.10712
                0x00000000       0x14 libraries\MIMXRT1050\MIMXRT1052\drivers\fsl_os_abstraction_rtthread.o
 .rodata.__func__.10720
                0x00000000       0x15 libraries\MIMXRT1050\MIMXRT1052\drivers\fsl_os_abstraction_rtthread.o
 .rodata.__func__.10727
                0x00000000       0x12 libraries\MIMXRT1050\MIMXRT1052\drivers\fsl_os_abstraction_rtthread.o
 .rodata.__func__.10732
                0x00000000       0x12 libraries\MIMXRT1050\MIMXRT1052\drivers\fsl_os_abstraction_rtthread.o
 .rodata.__func__.10778
                0x00000000        0xf libraries\MIMXRT1050\MIMXRT1052\drivers\fsl_os_abstraction_rtthread.o
 .rodata.__func__.10786
                0x00000000        0xd libraries\MIMXRT1050\MIMXRT1052\drivers\fsl_os_abstraction_rtthread.o
 .rodata.__func__.10812
                0x00000000        0xf libraries\MIMXRT1050\MIMXRT1052\drivers\fsl_os_abstraction_rtthread.o
 .rodata.__func__.10821
                0x00000000        0xc libraries\MIMXRT1050\MIMXRT1052\drivers\fsl_os_abstraction_rtthread.o
 .rodata.__func__.10830
                0x00000000        0xc libraries\MIMXRT1050\MIMXRT1052\drivers\fsl_os_abstraction_rtthread.o
 .rodata.__func__.10836
                0x00000000       0x10 libraries\MIMXRT1050\MIMXRT1052\drivers\fsl_os_abstraction_rtthread.o
 .text          0x00000000        0x0 libraries\MIMXRT1050\MIMXRT1052\drivers\generic_list.o
 .data          0x00000000        0x0 libraries\MIMXRT1050\MIMXRT1052\drivers\generic_list.o
 .bss           0x00000000        0x0 libraries\MIMXRT1050\MIMXRT1052\drivers\generic_list.o
 .text.DisableGlobalIRQ
                0x00000000       0x20 libraries\MIMXRT1050\MIMXRT1052\drivers\generic_list.o
 .text.EnableGlobalIRQ
                0x00000000       0x20 libraries\MIMXRT1050\MIMXRT1052\drivers\generic_list.o
 .text.LIST_Error_Check
                0x00000000       0x5c libraries\MIMXRT1050\MIMXRT1052\drivers\generic_list.o
 .text.LIST_Init
                0x00000000       0x30 libraries\MIMXRT1050\MIMXRT1052\drivers\generic_list.o
 .text.LIST_GetList
                0x00000000       0x18 libraries\MIMXRT1050\MIMXRT1052\drivers\generic_list.o
 .text.LIST_AddTail
                0x00000000       0x74 libraries\MIMXRT1050\MIMXRT1052\drivers\generic_list.o
 .text.LIST_AddHead
                0x00000000       0x74 libraries\MIMXRT1050\MIMXRT1052\drivers\generic_list.o
 .text.LIST_RemoveHead
                0x00000000       0x6c libraries\MIMXRT1050\MIMXRT1052\drivers\generic_list.o
 .text.LIST_GetHead
                0x00000000       0x18 libraries\MIMXRT1050\MIMXRT1052\drivers\generic_list.o
 .text.LIST_GetNext
                0x00000000       0x18 libraries\MIMXRT1050\MIMXRT1052\drivers\generic_list.o
 .text.LIST_GetPrev
                0x00000000       0x18 libraries\MIMXRT1050\MIMXRT1052\drivers\generic_list.o
 .text.LIST_RemoveElement
                0x00000000       0x8c libraries\MIMXRT1050\MIMXRT1052\drivers\generic_list.o
 .text.LIST_AddPrevElement
                0x00000000       0x8c libraries\MIMXRT1050\MIMXRT1052\drivers\generic_list.o
 .text.LIST_GetSize
                0x00000000       0x18 libraries\MIMXRT1050\MIMXRT1052\drivers\generic_list.o
 .text.LIST_GetAvailableSize
                0x00000000       0x20 libraries\MIMXRT1050\MIMXRT1052\drivers\generic_list.o
 .debug_info    0x00000000      0x611 libraries\MIMXRT1050\MIMXRT1052\drivers\generic_list.o
 .debug_abbrev  0x00000000      0x273 libraries\MIMXRT1050\MIMXRT1052\drivers\generic_list.o
 .debug_loc     0x00000000      0x528 libraries\MIMXRT1050\MIMXRT1052\drivers\generic_list.o
 .debug_aranges
                0x00000000       0x90 libraries\MIMXRT1050\MIMXRT1052\drivers\generic_list.o
 .debug_ranges  0x00000000       0x80 libraries\MIMXRT1050\MIMXRT1052\drivers\generic_list.o
 .debug_line    0x00000000      0x326 libraries\MIMXRT1050\MIMXRT1052\drivers\generic_list.o
 .debug_str     0x00000000      0x478 libraries\MIMXRT1050\MIMXRT1052\drivers\generic_list.o
 .comment       0x00000000       0x6f libraries\MIMXRT1050\MIMXRT1052\drivers\generic_list.o
 .debug_frame   0x00000000      0x254 libraries\MIMXRT1050\MIMXRT1052\drivers\generic_list.o
 .ARM.attributes
                0x00000000       0x39 libraries\MIMXRT1050\MIMXRT1052\drivers\generic_list.o
 .text          0x00000000        0x0 libraries\drivers\drv_gpio.o
 .data          0x00000000        0x0 libraries\drivers\drv_gpio.o
 .bss           0x00000000        0x0 libraries\drivers\drv_gpio.o
 .text          0x00000000        0x0 libraries\drivers\drv_uart.o
 .data          0x00000000        0x0 libraries\drivers\drv_uart.o
 .bss           0x00000000        0x0 libraries\drivers\drv_uart.o
 .text          0x00000000        0x0 libraries\drivers\drv_sdio.o
 .data          0x00000000        0x0 libraries\drivers\drv_sdio.o
 .bss           0x00000000        0x0 libraries\drivers\drv_sdio.o
 .text          0x00000000        0x0 libraries\drivers\drv_pulse_encoder.o
 .data          0x00000000        0x0 libraries\drivers\drv_pulse_encoder.o
 .bss           0x00000000        0x0 libraries\drivers\drv_pulse_encoder.o
 .text          0x00000000        0x0 libraries\drivers\usb\phy\usb_phy.o
 .data          0x00000000        0x0 libraries\drivers\usb\phy\usb_phy.o
 .bss           0x00000000        0x0 libraries\drivers\usb\phy\usb_phy.o
 .text.USB_EhciLowPowerPhyInit
                0x00000000       0x94 libraries\drivers\usb\phy\usb_phy.o
 .text.USB_EhciPhyDeinit
                0x00000000       0x30 libraries\drivers\usb\phy\usb_phy.o
 .text          0x00000000        0x0 libraries\drivers\drv_usbh.o
 .data          0x00000000        0x0 libraries\drivers\drv_usbh.o
 .bss           0x00000000        0x0 libraries\drivers\drv_usbh.o
 .text          0x00000000        0x0 libraries\drivers\usb\host\usb_host_devices.o
 .data          0x00000000        0x0 libraries\drivers\usb\host\usb_host_devices.o
 .bss           0x00000000        0x0 libraries\drivers\usb\host\usb_host_devices.o
 .text.USB_HostGetDeviceAttachState
                0x00000000       0x24 libraries\drivers\usb\host\usb_host_devices.o
 .text.USB_HostOpenDeviceInterface
                0x00000000       0xf8 libraries\drivers\usb\host\usb_host_devices.o
 .text.USB_HostRemoveDevice
                0x00000000       0xbc libraries\drivers\usb\host\usb_host_devices.o
 .text          0x00000000        0x0 libraries\drivers\usb\host\usb_host_ehci.o
 .data          0x00000000        0x0 libraries\drivers\usb\host\usb_host_ehci.o
 .bss           0x00000000        0x0 libraries\drivers\usb\host\usb_host_ehci.o
 .text          0x00000000        0x0 libraries\drivers\usb\host\usb_host_framework.o
 .data          0x00000000        0x0 libraries\drivers\usb\host\usb_host_framework.o
 .bss           0x00000000        0x0 libraries\drivers\usb\host\usb_host_framework.o
 .text.USB_HostStandardGetStatus
                0x00000000       0x90 libraries\drivers\usb\host\usb_host_framework.o
 .text.USB_HostStandardSetClearFeature
                0x00000000       0x84 libraries\drivers\usb\host\usb_host_framework.o
 .text.USB_HostStandardGetInterface
                0x00000000       0x58 libraries\drivers\usb\host\usb_host_framework.o
 .text.USB_HostStandardSetInterface
                0x00000000       0x50 libraries\drivers\usb\host\usb_host_framework.o
 .text.USB_HostStandardSyncFrame
                0x00000000       0x58 libraries\drivers\usb\host\usb_host_framework.o
 .text.USB_HostRequestControl
                0x00000000      0x164 libraries\drivers\usb\host\usb_host_framework.o
 .text          0x00000000        0x0 libraries\drivers\usb\host\usb_host_hci.o
 .data          0x00000000        0x0 libraries\drivers\usb\host\usb_host_hci.o
 .bss           0x00000000        0x0 libraries\drivers\usb\host\usb_host_hci.o
 .text.USB_HostDeinit
                0x00000000       0x80 libraries\drivers\usb\host\usb_host_hci.o
 .text.USB_HostSend
                0x00000000       0x70 libraries\drivers\usb\host\usb_host_hci.o
 .text.USB_HostRecv
                0x00000000       0x70 libraries\drivers\usb\host\usb_host_hci.o
 .text.USB_HostHelperParseAlternateSetting
                0x00000000      0x1e8 libraries\drivers\usb\host\usb_host_hci.o
 .text.USB_HostGetVersion
                0x00000000       0x24 libraries\drivers\usb\host\usb_host_hci.o
 .text          0x00000000        0x0 c:/rtthread/env/tools/gnu_gcc/arm_gcc/mingw/bin/../lib/gcc/arm-none-eabi/5.4.1/../../../../arm-none-eabi/lib/armv7e-m/fpu\libc.a(lib_a-assert.o)
 .data          0x00000000        0x0 c:/rtthread/env/tools/gnu_gcc/arm_gcc/mingw/bin/../lib/gcc/arm-none-eabi/5.4.1/../../../../arm-none-eabi/lib/armv7e-m/fpu\libc.a(lib_a-assert.o)
 .bss           0x00000000        0x0 c:/rtthread/env/tools/gnu_gcc/arm_gcc/mingw/bin/../lib/gcc/arm-none-eabi/5.4.1/../../../../arm-none-eabi/lib/armv7e-m/fpu\libc.a(lib_a-assert.o)
 .text.__assert
                0x00000000        0xc c:/rtthread/env/tools/gnu_gcc/arm_gcc/mingw/bin/../lib/gcc/arm-none-eabi/5.4.1/../../../../arm-none-eabi/lib/armv7e-m/fpu\libc.a(lib_a-assert.o)
 .text          0x00000000        0x0 c:/rtthread/env/tools/gnu_gcc/arm_gcc/mingw/bin/../lib/gcc/arm-none-eabi/5.4.1/../../../../arm-none-eabi/lib/armv7e-m/fpu\libc.a(lib_a-fclose.o)
 .data          0x00000000        0x0 c:/rtthread/env/tools/gnu_gcc/arm_gcc/mingw/bin/../lib/gcc/arm-none-eabi/5.4.1/../../../../arm-none-eabi/lib/armv7e-m/fpu\libc.a(lib_a-fclose.o)
 .bss           0x00000000        0x0 c:/rtthread/env/tools/gnu_gcc/arm_gcc/mingw/bin/../lib/gcc/arm-none-eabi/5.4.1/../../../../arm-none-eabi/lib/armv7e-m/fpu\libc.a(lib_a-fclose.o)
 .text          0x00000000        0x0 c:/rtthread/env/tools/gnu_gcc/arm_gcc/mingw/bin/../lib/gcc/arm-none-eabi/5.4.1/../../../../arm-none-eabi/lib/armv7e-m/fpu\libc.a(lib_a-fflush.o)
 .data          0x00000000        0x0 c:/rtthread/env/tools/gnu_gcc/arm_gcc/mingw/bin/../lib/gcc/arm-none-eabi/5.4.1/../../../../arm-none-eabi/lib/armv7e-m/fpu\libc.a(lib_a-fflush.o)
 .bss           0x00000000        0x0 c:/rtthread/env/tools/gnu_gcc/arm_gcc/mingw/bin/../lib/gcc/arm-none-eabi/5.4.1/../../../../arm-none-eabi/lib/armv7e-m/fpu\libc.a(lib_a-fflush.o)
 .text          0x00000000        0x0 c:/rtthread/env/tools/gnu_gcc/arm_gcc/mingw/bin/../lib/gcc/arm-none-eabi/5.4.1/../../../../arm-none-eabi/lib/armv7e-m/fpu\libc.a(lib_a-fileno.o)
 .data          0x00000000        0x0 c:/rtthread/env/tools/gnu_gcc/arm_gcc/mingw/bin/../lib/gcc/arm-none-eabi/5.4.1/../../../../arm-none-eabi/lib/armv7e-m/fpu\libc.a(lib_a-fileno.o)
 .bss           0x00000000        0x0 c:/rtthread/env/tools/gnu_gcc/arm_gcc/mingw/bin/../lib/gcc/arm-none-eabi/5.4.1/../../../../arm-none-eabi/lib/armv7e-m/fpu\libc.a(lib_a-fileno.o)
 .text          0x00000000        0x0 c:/rtthread/env/tools/gnu_gcc/arm_gcc/mingw/bin/../lib/gcc/arm-none-eabi/5.4.1/../../../../arm-none-eabi/lib/armv7e-m/fpu\libc.a(lib_a-findfp.o)
 .data          0x00000000        0x0 c:/rtthread/env/tools/gnu_gcc/arm_gcc/mingw/bin/../lib/gcc/arm-none-eabi/5.4.1/../../../../arm-none-eabi/lib/armv7e-m/fpu\libc.a(lib_a-findfp.o)
 .bss           0x00000000        0x0 c:/rtthread/env/tools/gnu_gcc/arm_gcc/mingw/bin/../lib/gcc/arm-none-eabi/5.4.1/../../../../arm-none-eabi/lib/armv7e-m/fpu\libc.a(lib_a-findfp.o)
 .text.__fp_unlock
                0x00000000        0x4 c:/rtthread/env/tools/gnu_gcc/arm_gcc/mingw/bin/../lib/gcc/arm-none-eabi/5.4.1/../../../../arm-none-eabi/lib/armv7e-m/fpu\libc.a(lib_a-findfp.o)
 .text.__fp_lock
                0x00000000        0x4 c:/rtthread/env/tools/gnu_gcc/arm_gcc/mingw/bin/../lib/gcc/arm-none-eabi/5.4.1/../../../../arm-none-eabi/lib/armv7e-m/fpu\libc.a(lib_a-findfp.o)
 .text._cleanup
                0x00000000       0x14 c:/rtthread/env/tools/gnu_gcc/arm_gcc/mingw/bin/../lib/gcc/arm-none-eabi/5.4.1/../../../../arm-none-eabi/lib/armv7e-m/fpu\libc.a(lib_a-findfp.o)
 .text.__sinit_lock_acquire
                0x00000000        0x4 c:/rtthread/env/tools/gnu_gcc/arm_gcc/mingw/bin/../lib/gcc/arm-none-eabi/5.4.1/../../../../arm-none-eabi/lib/armv7e-m/fpu\libc.a(lib_a-findfp.o)
 .text.__sinit_lock_release
                0x00000000        0x4 c:/rtthread/env/tools/gnu_gcc/arm_gcc/mingw/bin/../lib/gcc/arm-none-eabi/5.4.1/../../../../arm-none-eabi/lib/armv7e-m/fpu\libc.a(lib_a-findfp.o)
 .text.__fp_lock_all
                0x00000000       0x14 c:/rtthread/env/tools/gnu_gcc/arm_gcc/mingw/bin/../lib/gcc/arm-none-eabi/5.4.1/../../../../arm-none-eabi/lib/armv7e-m/fpu\libc.a(lib_a-findfp.o)
 .text.__fp_unlock_all
                0x00000000       0x14 c:/rtthread/env/tools/gnu_gcc/arm_gcc/mingw/bin/../lib/gcc/arm-none-eabi/5.4.1/../../../../arm-none-eabi/lib/armv7e-m/fpu\libc.a(lib_a-findfp.o)
 .text          0x00000000        0x0 c:/rtthread/env/tools/gnu_gcc/arm_gcc/mingw/bin/../lib/gcc/arm-none-eabi/5.4.1/../../../../arm-none-eabi/lib/armv7e-m/fpu\libc.a(lib_a-fiprintf.o)
 .data          0x00000000        0x0 c:/rtthread/env/tools/gnu_gcc/arm_gcc/mingw/bin/../lib/gcc/arm-none-eabi/5.4.1/../../../../arm-none-eabi/lib/armv7e-m/fpu\libc.a(lib_a-fiprintf.o)
 .bss           0x00000000        0x0 c:/rtthread/env/tools/gnu_gcc/arm_gcc/mingw/bin/../lib/gcc/arm-none-eabi/5.4.1/../../../../arm-none-eabi/lib/armv7e-m/fpu\libc.a(lib_a-fiprintf.o)
 .text._fiprintf_r
                0x00000000       0x1c c:/rtthread/env/tools/gnu_gcc/arm_gcc/mingw/bin/../lib/gcc/arm-none-eabi/5.4.1/../../../../arm-none-eabi/lib/armv7e-m/fpu\libc.a(lib_a-fiprintf.o)
 .text          0x00000000        0x0 c:/rtthread/env/tools/gnu_gcc/arm_gcc/mingw/bin/../lib/gcc/arm-none-eabi/5.4.1/../../../../arm-none-eabi/lib/armv7e-m/fpu\libc.a(lib_a-fopen.o)
 .data          0x00000000        0x0 c:/rtthread/env/tools/gnu_gcc/arm_gcc/mingw/bin/../lib/gcc/arm-none-eabi/5.4.1/../../../../arm-none-eabi/lib/armv7e-m/fpu\libc.a(lib_a-fopen.o)
 .bss           0x00000000        0x0 c:/rtthread/env/tools/gnu_gcc/arm_gcc/mingw/bin/../lib/gcc/arm-none-eabi/5.4.1/../../../../arm-none-eabi/lib/armv7e-m/fpu\libc.a(lib_a-fopen.o)
 .text          0x00000000        0x0 c:/rtthread/env/tools/gnu_gcc/arm_gcc/mingw/bin/../lib/gcc/arm-none-eabi/5.4.1/../../../../arm-none-eabi/lib/armv7e-m/fpu\libc.a(lib_a-fseek.o)
 .data          0x00000000        0x0 c:/rtthread/env/tools/gnu_gcc/arm_gcc/mingw/bin/../lib/gcc/arm-none-eabi/5.4.1/../../../../arm-none-eabi/lib/armv7e-m/fpu\libc.a(lib_a-fseek.o)
 .bss           0x00000000        0x0 c:/rtthread/env/tools/gnu_gcc/arm_gcc/mingw/bin/../lib/gcc/arm-none-eabi/5.4.1/../../../../arm-none-eabi/lib/armv7e-m/fpu\libc.a(lib_a-fseek.o)
 .text.fseek    0x00000000       0x18 c:/rtthread/env/tools/gnu_gcc/arm_gcc/mingw/bin/../lib/gcc/arm-none-eabi/5.4.1/../../../../arm-none-eabi/lib/armv7e-m/fpu\libc.a(lib_a-fseek.o)
 .text          0x00000000        0x0 c:/rtthread/env/tools/gnu_gcc/arm_gcc/mingw/bin/../lib/gcc/arm-none-eabi/5.4.1/../../../../arm-none-eabi/lib/armv7e-m/fpu\libc.a(lib_a-fseeko.o)
 .data          0x00000000        0x0 c:/rtthread/env/tools/gnu_gcc/arm_gcc/mingw/bin/../lib/gcc/arm-none-eabi/5.4.1/../../../../arm-none-eabi/lib/armv7e-m/fpu\libc.a(lib_a-fseeko.o)
 .bss           0x00000000        0x0 c:/rtthread/env/tools/gnu_gcc/arm_gcc/mingw/bin/../lib/gcc/arm-none-eabi/5.4.1/../../../../arm-none-eabi/lib/armv7e-m/fpu\libc.a(lib_a-fseeko.o)
 .text.fseeko   0x00000000       0x18 c:/rtthread/env/tools/gnu_gcc/arm_gcc/mingw/bin/../lib/gcc/arm-none-eabi/5.4.1/../../../../arm-none-eabi/lib/armv7e-m/fpu\libc.a(lib_a-fseeko.o)
 .text          0x00000000        0x0 c:/rtthread/env/tools/gnu_gcc/arm_gcc/mingw/bin/../lib/gcc/arm-none-eabi/5.4.1/../../../../arm-none-eabi/lib/armv7e-m/fpu\libc.a(lib_a-fwalk.o)
 .data          0x00000000        0x0 c:/rtthread/env/tools/gnu_gcc/arm_gcc/mingw/bin/../lib/gcc/arm-none-eabi/5.4.1/../../../../arm-none-eabi/lib/armv7e-m/fpu\libc.a(lib_a-fwalk.o)
 .bss           0x00000000        0x0 c:/rtthread/env/tools/gnu_gcc/arm_gcc/mingw/bin/../lib/gcc/arm-none-eabi/5.4.1/../../../../arm-none-eabi/lib/armv7e-m/fpu\libc.a(lib_a-fwalk.o)
 .text          0x00000000        0x0 c:/rtthread/env/tools/gnu_gcc/arm_gcc/mingw/bin/../lib/gcc/arm-none-eabi/5.4.1/../../../../arm-none-eabi/lib/armv7e-m/fpu\libc.a(lib_a-impure.o)
 .data          0x00000000        0x0 c:/rtthread/env/tools/gnu_gcc/arm_gcc/mingw/bin/../lib/gcc/arm-none-eabi/5.4.1/../../../../arm-none-eabi/lib/armv7e-m/fpu\libc.a(lib_a-impure.o)
 .bss           0x00000000        0x0 c:/rtthread/env/tools/gnu_gcc/arm_gcc/mingw/bin/../lib/gcc/arm-none-eabi/5.4.1/../../../../arm-none-eabi/lib/armv7e-m/fpu\libc.a(lib_a-impure.o)
 .text          0x00000000        0x0 c:/rtthread/env/tools/gnu_gcc/arm_gcc/mingw/bin/../lib/gcc/arm-none-eabi/5.4.1/../../../../arm-none-eabi/lib/armv7e-m/fpu\libc.a(lib_a-makebuf.o)
 .data          0x00000000        0x0 c:/rtthread/env/tools/gnu_gcc/arm_gcc/mingw/bin/../lib/gcc/arm-none-eabi/5.4.1/../../../../arm-none-eabi/lib/armv7e-m/fpu\libc.a(lib_a-makebuf.o)
 .bss           0x00000000        0x0 c:/rtthread/env/tools/gnu_gcc/arm_gcc/mingw/bin/../lib/gcc/arm-none-eabi/5.4.1/../../../../arm-none-eabi/lib/armv7e-m/fpu\libc.a(lib_a-makebuf.o)
 .text          0x00000000        0x0 c:/rtthread/env/tools/gnu_gcc/arm_gcc/mingw/bin/../lib/gcc/arm-none-eabi/5.4.1/../../../../arm-none-eabi/lib/armv7e-m/fpu\libc.a(lib_a-malloc.o)
 .data          0x00000000        0x0 c:/rtthread/env/tools/gnu_gcc/arm_gcc/mingw/bin/../lib/gcc/arm-none-eabi/5.4.1/../../../../arm-none-eabi/lib/armv7e-m/fpu\libc.a(lib_a-malloc.o)
 .bss           0x00000000        0x0 c:/rtthread/env/tools/gnu_gcc/arm_gcc/mingw/bin/../lib/gcc/arm-none-eabi/5.4.1/../../../../arm-none-eabi/lib/armv7e-m/fpu\libc.a(lib_a-malloc.o)
 .text.free     0x00000000       0x10 c:/rtthread/env/tools/gnu_gcc/arm_gcc/mingw/bin/../lib/gcc/arm-none-eabi/5.4.1/../../../../arm-none-eabi/lib/armv7e-m/fpu\libc.a(lib_a-malloc.o)
 .text          0x00000000        0x0 c:/rtthread/env/tools/gnu_gcc/arm_gcc/mingw/bin/../lib/gcc/arm-none-eabi/5.4.1/../../../../arm-none-eabi/lib/armv7e-m/fpu\libc.a(lib_a-memcmp.o)
 .data          0x00000000        0x0 c:/rtthread/env/tools/gnu_gcc/arm_gcc/mingw/bin/../lib/gcc/arm-none-eabi/5.4.1/../../../../arm-none-eabi/lib/armv7e-m/fpu\libc.a(lib_a-memcmp.o)
 .bss           0x00000000        0x0 c:/rtthread/env/tools/gnu_gcc/arm_gcc/mingw/bin/../lib/gcc/arm-none-eabi/5.4.1/../../../../arm-none-eabi/lib/armv7e-m/fpu\libc.a(lib_a-memcmp.o)
 .data          0x00000000        0x0 c:/rtthread/env/tools/gnu_gcc/arm_gcc/mingw/bin/../lib/gcc/arm-none-eabi/5.4.1/../../../../arm-none-eabi/lib/armv7e-m/fpu\libc.a(lib_a-memcpy.o)
 .bss           0x00000000        0x0 c:/rtthread/env/tools/gnu_gcc/arm_gcc/mingw/bin/../lib/gcc/arm-none-eabi/5.4.1/../../../../arm-none-eabi/lib/armv7e-m/fpu\libc.a(lib_a-memcpy.o)
 .text          0x00000000        0x0 c:/rtthread/env/tools/gnu_gcc/arm_gcc/mingw/bin/../lib/gcc/arm-none-eabi/5.4.1/../../../../arm-none-eabi/lib/armv7e-m/fpu\libc.a(lib_a-memset.o)
 .data          0x00000000        0x0 c:/rtthread/env/tools/gnu_gcc/arm_gcc/mingw/bin/../lib/gcc/arm-none-eabi/5.4.1/../../../../arm-none-eabi/lib/armv7e-m/fpu\libc.a(lib_a-memset.o)
 .bss           0x00000000        0x0 c:/rtthread/env/tools/gnu_gcc/arm_gcc/mingw/bin/../lib/gcc/arm-none-eabi/5.4.1/../../../../arm-none-eabi/lib/armv7e-m/fpu\libc.a(lib_a-memset.o)
 .text          0x00000000        0x0 c:/rtthread/env/tools/gnu_gcc/arm_gcc/mingw/bin/../lib/gcc/arm-none-eabi/5.4.1/../../../../arm-none-eabi/lib/armv7e-m/fpu\libc.a(lib_a-putenv.o)
 .data          0x00000000        0x0 c:/rtthread/env/tools/gnu_gcc/arm_gcc/mingw/bin/../lib/gcc/arm-none-eabi/5.4.1/../../../../arm-none-eabi/lib/armv7e-m/fpu\libc.a(lib_a-putenv.o)
 .bss           0x00000000        0x0 c:/rtthread/env/tools/gnu_gcc/arm_gcc/mingw/bin/../lib/gcc/arm-none-eabi/5.4.1/../../../../arm-none-eabi/lib/armv7e-m/fpu\libc.a(lib_a-putenv.o)
 .text          0x00000000        0x0 c:/rtthread/env/tools/gnu_gcc/arm_gcc/mingw/bin/../lib/gcc/arm-none-eabi/5.4.1/../../../../arm-none-eabi/lib/armv7e-m/fpu\libc.a(lib_a-putenv_r.o)
 .data          0x00000000        0x0 c:/rtthread/env/tools/gnu_gcc/arm_gcc/mingw/bin/../lib/gcc/arm-none-eabi/5.4.1/../../../../arm-none-eabi/lib/armv7e-m/fpu\libc.a(lib_a-putenv_r.o)
 .bss           0x00000000        0x0 c:/rtthread/env/tools/gnu_gcc/arm_gcc/mingw/bin/../lib/gcc/arm-none-eabi/5.4.1/../../../../arm-none-eabi/lib/armv7e-m/fpu\libc.a(lib_a-putenv_r.o)
 .text          0x00000000        0x0 c:/rtthread/env/tools/gnu_gcc/arm_gcc/mingw/bin/../lib/gcc/arm-none-eabi/5.4.1/../../../../arm-none-eabi/lib/armv7e-m/fpu\libc.a(lib_a-refill.o)
 .data          0x00000000        0x0 c:/rtthread/env/tools/gnu_gcc/arm_gcc/mingw/bin/../lib/gcc/arm-none-eabi/5.4.1/../../../../arm-none-eabi/lib/armv7e-m/fpu\libc.a(lib_a-refill.o)
 .bss           0x00000000        0x0 c:/rtthread/env/tools/gnu_gcc/arm_gcc/mingw/bin/../lib/gcc/arm-none-eabi/5.4.1/../../../../arm-none-eabi/lib/armv7e-m/fpu\libc.a(lib_a-refill.o)
 .text          0x00000000        0x0 c:/rtthread/env/tools/gnu_gcc/arm_gcc/mingw/bin/../lib/gcc/arm-none-eabi/5.4.1/../../../../arm-none-eabi/lib/armv7e-m/fpu\libc.a(lib_a-rget.o)
 .data          0x00000000        0x0 c:/rtthread/env/tools/gnu_gcc/arm_gcc/mingw/bin/../lib/gcc/arm-none-eabi/5.4.1/../../../../arm-none-eabi/lib/armv7e-m/fpu\libc.a(lib_a-rget.o)
 .bss           0x00000000        0x0 c:/rtthread/env/tools/gnu_gcc/arm_gcc/mingw/bin/../lib/gcc/arm-none-eabi/5.4.1/../../../../arm-none-eabi/lib/armv7e-m/fpu\libc.a(lib_a-rget.o)
 .text.__srget  0x00000000       0x10 c:/rtthread/env/tools/gnu_gcc/arm_gcc/mingw/bin/../lib/gcc/arm-none-eabi/5.4.1/../../../../arm-none-eabi/lib/armv7e-m/fpu\libc.a(lib_a-rget.o)
 .text          0x00000000        0x0 c:/rtthread/env/tools/gnu_gcc/arm_gcc/mingw/bin/../lib/gcc/arm-none-eabi/5.4.1/../../../../arm-none-eabi/lib/armv7e-m/fpu\libc.a(lib_a-setenv_r.o)
 .data          0x00000000        0x0 c:/rtthread/env/tools/gnu_gcc/arm_gcc/mingw/bin/../lib/gcc/arm-none-eabi/5.4.1/../../../../arm-none-eabi/lib/armv7e-m/fpu\libc.a(lib_a-setenv_r.o)
 .bss           0x00000000        0x0 c:/rtthread/env/tools/gnu_gcc/arm_gcc/mingw/bin/../lib/gcc/arm-none-eabi/5.4.1/../../../../arm-none-eabi/lib/armv7e-m/fpu\libc.a(lib_a-setenv_r.o)
 .text._unsetenv_r
                0x00000000       0x80 c:/rtthread/env/tools/gnu_gcc/arm_gcc/mingw/bin/../lib/gcc/arm-none-eabi/5.4.1/../../../../arm-none-eabi/lib/armv7e-m/fpu\libc.a(lib_a-setenv_r.o)
 .text          0x00000000        0x0 c:/rtthread/env/tools/gnu_gcc/arm_gcc/mingw/bin/../lib/gcc/arm-none-eabi/5.4.1/../../../../arm-none-eabi/lib/armv7e-m/fpu\libc.a(lib_a-setvbuf.o)
 .data          0x00000000        0x0 c:/rtthread/env/tools/gnu_gcc/arm_gcc/mingw/bin/../lib/gcc/arm-none-eabi/5.4.1/../../../../arm-none-eabi/lib/armv7e-m/fpu\libc.a(lib_a-setvbuf.o)
 .bss           0x00000000        0x0 c:/rtthread/env/tools/gnu_gcc/arm_gcc/mingw/bin/../lib/gcc/arm-none-eabi/5.4.1/../../../../arm-none-eabi/lib/armv7e-m/fpu\libc.a(lib_a-setvbuf.o)
 .text          0x00000000        0x0 c:/rtthread/env/tools/gnu_gcc/arm_gcc/mingw/bin/../lib/gcc/arm-none-eabi/5.4.1/../../../../arm-none-eabi/lib/armv7e-m/fpu\libc.a(lib_a-snprintf.o)
 .data          0x00000000        0x0 c:/rtthread/env/tools/gnu_gcc/arm_gcc/mingw/bin/../lib/gcc/arm-none-eabi/5.4.1/../../../../arm-none-eabi/lib/armv7e-m/fpu\libc.a(lib_a-snprintf.o)
 .bss           0x00000000        0x0 c:/rtthread/env/tools/gnu_gcc/arm_gcc/mingw/bin/../lib/gcc/arm-none-eabi/5.4.1/../../../../arm-none-eabi/lib/armv7e-m/fpu\libc.a(lib_a-snprintf.o)
 .text._snprintf_r
                0x00000000       0x90 c:/rtthread/env/tools/gnu_gcc/arm_gcc/mingw/bin/../lib/gcc/arm-none-eabi/5.4.1/../../../../arm-none-eabi/lib/armv7e-m/fpu\libc.a(lib_a-snprintf.o)
 .text          0x00000000        0x0 c:/rtthread/env/tools/gnu_gcc/arm_gcc/mingw/bin/../lib/gcc/arm-none-eabi/5.4.1/../../../../arm-none-eabi/lib/armv7e-m/fpu\libc.a(lib_a-stdio.o)
 .data          0x00000000        0x0 c:/rtthread/env/tools/gnu_gcc/arm_gcc/mingw/bin/../lib/gcc/arm-none-eabi/5.4.1/../../../../arm-none-eabi/lib/armv7e-m/fpu\libc.a(lib_a-stdio.o)
 .bss           0x00000000        0x0 c:/rtthread/env/tools/gnu_gcc/arm_gcc/mingw/bin/../lib/gcc/arm-none-eabi/5.4.1/../../../../arm-none-eabi/lib/armv7e-m/fpu\libc.a(lib_a-stdio.o)
 .text.__seofread
                0x00000000        0x4 c:/rtthread/env/tools/gnu_gcc/arm_gcc/mingw/bin/../lib/gcc/arm-none-eabi/5.4.1/../../../../arm-none-eabi/lib/armv7e-m/fpu\libc.a(lib_a-stdio.o)
 .text          0x00000000        0x0 c:/rtthread/env/tools/gnu_gcc/arm_gcc/mingw/bin/../lib/gcc/arm-none-eabi/5.4.1/../../../../arm-none-eabi/lib/armv7e-m/fpu\libc.a(lib_a-strchr.o)
 .data          0x00000000        0x0 c:/rtthread/env/tools/gnu_gcc/arm_gcc/mingw/bin/../lib/gcc/arm-none-eabi/5.4.1/../../../../arm-none-eabi/lib/armv7e-m/fpu\libc.a(lib_a-strchr.o)
 .bss           0x00000000        0x0 c:/rtthread/env/tools/gnu_gcc/arm_gcc/mingw/bin/../lib/gcc/arm-none-eabi/5.4.1/../../../../arm-none-eabi/lib/armv7e-m/fpu\libc.a(lib_a-strchr.o)
 .data          0x00000000        0x0 c:/rtthread/env/tools/gnu_gcc/arm_gcc/mingw/bin/../lib/gcc/arm-none-eabi/5.4.1/../../../../arm-none-eabi/lib/armv7e-m/fpu\libc.a(lib_a-strcmp.o)
 .bss           0x00000000        0x0 c:/rtthread/env/tools/gnu_gcc/arm_gcc/mingw/bin/../lib/gcc/arm-none-eabi/5.4.1/../../../../arm-none-eabi/lib/armv7e-m/fpu\libc.a(lib_a-strcmp.o)
 .text          0x00000000        0x0 c:/rtthread/env/tools/gnu_gcc/arm_gcc/mingw/bin/../lib/gcc/arm-none-eabi/5.4.1/../../../../arm-none-eabi/lib/armv7e-m/fpu\libc.a(lib_a-strcpy.o)
 .data          0x00000000        0x0 c:/rtthread/env/tools/gnu_gcc/arm_gcc/mingw/bin/../lib/gcc/arm-none-eabi/5.4.1/../../../../arm-none-eabi/lib/armv7e-m/fpu\libc.a(lib_a-strcpy.o)
 .bss           0x00000000        0x0 c:/rtthread/env/tools/gnu_gcc/arm_gcc/mingw/bin/../lib/gcc/arm-none-eabi/5.4.1/../../../../arm-none-eabi/lib/armv7e-m/fpu\libc.a(lib_a-strcpy.o)
 .text          0x00000000        0x0 c:/rtthread/env/tools/gnu_gcc/arm_gcc/mingw/bin/../lib/gcc/arm-none-eabi/5.4.1/../../../../arm-none-eabi/lib/armv7e-m/fpu\libc.a(lib_a-strdup_r.o)
 .data          0x00000000        0x0 c:/rtthread/env/tools/gnu_gcc/arm_gcc/mingw/bin/../lib/gcc/arm-none-eabi/5.4.1/../../../../arm-none-eabi/lib/armv7e-m/fpu\libc.a(lib_a-strdup_r.o)
 .bss           0x00000000        0x0 c:/rtthread/env/tools/gnu_gcc/arm_gcc/mingw/bin/../lib/gcc/arm-none-eabi/5.4.1/../../../../arm-none-eabi/lib/armv7e-m/fpu\libc.a(lib_a-strdup_r.o)
 .data          0x00000000        0x0 c:/rtthread/env/tools/gnu_gcc/arm_gcc/mingw/bin/../lib/gcc/arm-none-eabi/5.4.1/../../../../arm-none-eabi/lib/armv7e-m/fpu\libc.a(lib_a-strlen.o)
 .bss           0x00000000        0x0 c:/rtthread/env/tools/gnu_gcc/arm_gcc/mingw/bin/../lib/gcc/arm-none-eabi/5.4.1/../../../../arm-none-eabi/lib/armv7e-m/fpu\libc.a(lib_a-strlen.o)
 .text          0x00000000        0x0 c:/rtthread/env/tools/gnu_gcc/arm_gcc/mingw/bin/../lib/gcc/arm-none-eabi/5.4.1/../../../../arm-none-eabi/lib/armv7e-m/fpu\libc.a(lib_a-strncmp.o)
 .data          0x00000000        0x0 c:/rtthread/env/tools/gnu_gcc/arm_gcc/mingw/bin/../lib/gcc/arm-none-eabi/5.4.1/../../../../arm-none-eabi/lib/armv7e-m/fpu\libc.a(lib_a-strncmp.o)
 .bss           0x00000000        0x0 c:/rtthread/env/tools/gnu_gcc/arm_gcc/mingw/bin/../lib/gcc/arm-none-eabi/5.4.1/../../../../arm-none-eabi/lib/armv7e-m/fpu\libc.a(lib_a-strncmp.o)
 .text          0x00000000        0x0 c:/rtthread/env/tools/gnu_gcc/arm_gcc/mingw/bin/../lib/gcc/arm-none-eabi/5.4.1/../../../../arm-none-eabi/lib/armv7e-m/fpu\libc.a(lib_a-strncpy.o)
 .data          0x00000000        0x0 c:/rtthread/env/tools/gnu_gcc/arm_gcc/mingw/bin/../lib/gcc/arm-none-eabi/5.4.1/../../../../arm-none-eabi/lib/armv7e-m/fpu\libc.a(lib_a-strncpy.o)
 .bss           0x00000000        0x0 c:/rtthread/env/tools/gnu_gcc/arm_gcc/mingw/bin/../lib/gcc/arm-none-eabi/5.4.1/../../../../arm-none-eabi/lib/armv7e-m/fpu\libc.a(lib_a-strncpy.o)
 .text          0x00000000        0x0 c:/rtthread/env/tools/gnu_gcc/arm_gcc/mingw/bin/../lib/gcc/arm-none-eabi/5.4.1/../../../../arm-none-eabi/lib/armv7e-m/fpu\libc.a(lib_a-strrchr.o)
 .data          0x00000000        0x0 c:/rtthread/env/tools/gnu_gcc/arm_gcc/mingw/bin/../lib/gcc/arm-none-eabi/5.4.1/../../../../arm-none-eabi/lib/armv7e-m/fpu\libc.a(lib_a-strrchr.o)
 .bss           0x00000000        0x0 c:/rtthread/env/tools/gnu_gcc/arm_gcc/mingw/bin/../lib/gcc/arm-none-eabi/5.4.1/../../../../arm-none-eabi/lib/armv7e-m/fpu\libc.a(lib_a-strrchr.o)
 .text          0x00000000        0x0 c:/rtthread/env/tools/gnu_gcc/arm_gcc/mingw/bin/../lib/gcc/arm-none-eabi/5.4.1/../../../../arm-none-eabi/lib/armv7e-m/fpu\libc.a(lib_a-strstr.o)
 .data          0x00000000        0x0 c:/rtthread/env/tools/gnu_gcc/arm_gcc/mingw/bin/../lib/gcc/arm-none-eabi/5.4.1/../../../../arm-none-eabi/lib/armv7e-m/fpu\libc.a(lib_a-strstr.o)
 .bss           0x00000000        0x0 c:/rtthread/env/tools/gnu_gcc/arm_gcc/mingw/bin/../lib/gcc/arm-none-eabi/5.4.1/../../../../arm-none-eabi/lib/armv7e-m/fpu\libc.a(lib_a-strstr.o)
 .text          0x00000000        0x0 c:/rtthread/env/tools/gnu_gcc/arm_gcc/mingw/bin/../lib/gcc/arm-none-eabi/5.4.1/../../../../arm-none-eabi/lib/armv7e-m/fpu\libc.a(lib_a-svfprintf.o)
 .data          0x00000000        0x0 c:/rtthread/env/tools/gnu_gcc/arm_gcc/mingw/bin/../lib/gcc/arm-none-eabi/5.4.1/../../../../arm-none-eabi/lib/armv7e-m/fpu\libc.a(lib_a-svfprintf.o)
 .bss           0x00000000        0x0 c:/rtthread/env/tools/gnu_gcc/arm_gcc/mingw/bin/../lib/gcc/arm-none-eabi/5.4.1/../../../../arm-none-eabi/lib/armv7e-m/fpu\libc.a(lib_a-svfprintf.o)
 .text          0x00000000        0x0 c:/rtthread/env/tools/gnu_gcc/arm_gcc/mingw/bin/../lib/gcc/arm-none-eabi/5.4.1/../../../../arm-none-eabi/lib/armv7e-m/fpu\libc.a(lib_a-vfiprintf.o)
 .data          0x00000000        0x0 c:/rtthread/env/tools/gnu_gcc/arm_gcc/mingw/bin/../lib/gcc/arm-none-eabi/5.4.1/../../../../arm-none-eabi/lib/armv7e-m/fpu\libc.a(lib_a-vfiprintf.o)
 .bss           0x00000000        0x0 c:/rtthread/env/tools/gnu_gcc/arm_gcc/mingw/bin/../lib/gcc/arm-none-eabi/5.4.1/../../../../arm-none-eabi/lib/armv7e-m/fpu\libc.a(lib_a-vfiprintf.o)
 .text.__sprint_r
                0x00000000       0x14 c:/rtthread/env/tools/gnu_gcc/arm_gcc/mingw/bin/../lib/gcc/arm-none-eabi/5.4.1/../../../../arm-none-eabi/lib/armv7e-m/fpu\libc.a(lib_a-vfiprintf.o)
 .text.vfiprintf
                0x00000000       0x18 c:/rtthread/env/tools/gnu_gcc/arm_gcc/mingw/bin/../lib/gcc/arm-none-eabi/5.4.1/../../../../arm-none-eabi/lib/armv7e-m/fpu\libc.a(lib_a-vfiprintf.o)
 .text          0x00000000        0x0 c:/rtthread/env/tools/gnu_gcc/arm_gcc/mingw/bin/../lib/gcc/arm-none-eabi/5.4.1/../../../../arm-none-eabi/lib/armv7e-m/fpu\libc.a(lib_a-wsetup.o)
 .data          0x00000000        0x0 c:/rtthread/env/tools/gnu_gcc/arm_gcc/mingw/bin/../lib/gcc/arm-none-eabi/5.4.1/../../../../arm-none-eabi/lib/armv7e-m/fpu\libc.a(lib_a-wsetup.o)
 .bss           0x00000000        0x0 c:/rtthread/env/tools/gnu_gcc/arm_gcc/mingw/bin/../lib/gcc/arm-none-eabi/5.4.1/../../../../arm-none-eabi/lib/armv7e-m/fpu\libc.a(lib_a-wsetup.o)
 .text          0x00000000        0x0 c:/rtthread/env/tools/gnu_gcc/arm_gcc/mingw/bin/../lib/gcc/arm-none-eabi/5.4.1/../../../../arm-none-eabi/lib/armv7e-m/fpu\libc.a(lib_a-dtoa.o)
 .data          0x00000000        0x0 c:/rtthread/env/tools/gnu_gcc/arm_gcc/mingw/bin/../lib/gcc/arm-none-eabi/5.4.1/../../../../arm-none-eabi/lib/armv7e-m/fpu\libc.a(lib_a-dtoa.o)
 .bss           0x00000000        0x0 c:/rtthread/env/tools/gnu_gcc/arm_gcc/mingw/bin/../lib/gcc/arm-none-eabi/5.4.1/../../../../arm-none-eabi/lib/armv7e-m/fpu\libc.a(lib_a-dtoa.o)
 .text          0x00000000        0x0 c:/rtthread/env/tools/gnu_gcc/arm_gcc/mingw/bin/../lib/gcc/arm-none-eabi/5.4.1/../../../../arm-none-eabi/lib/armv7e-m/fpu\libc.a(lib_a-environ.o)
 .data          0x00000000        0x0 c:/rtthread/env/tools/gnu_gcc/arm_gcc/mingw/bin/../lib/gcc/arm-none-eabi/5.4.1/../../../../arm-none-eabi/lib/armv7e-m/fpu\libc.a(lib_a-environ.o)
 .bss           0x00000000        0x0 c:/rtthread/env/tools/gnu_gcc/arm_gcc/mingw/bin/../lib/gcc/arm-none-eabi/5.4.1/../../../../arm-none-eabi/lib/armv7e-m/fpu\libc.a(lib_a-environ.o)
 .text          0x00000000        0x0 c:/rtthread/env/tools/gnu_gcc/arm_gcc/mingw/bin/../lib/gcc/arm-none-eabi/5.4.1/../../../../arm-none-eabi/lib/armv7e-m/fpu\libc.a(lib_a-envlock.o)
 .data          0x00000000        0x0 c:/rtthread/env/tools/gnu_gcc/arm_gcc/mingw/bin/../lib/gcc/arm-none-eabi/5.4.1/../../../../arm-none-eabi/lib/armv7e-m/fpu\libc.a(lib_a-envlock.o)
 .bss           0x00000000        0x0 c:/rtthread/env/tools/gnu_gcc/arm_gcc/mingw/bin/../lib/gcc/arm-none-eabi/5.4.1/../../../../arm-none-eabi/lib/armv7e-m/fpu\libc.a(lib_a-envlock.o)
 .text          0x00000000        0x0 c:/rtthread/env/tools/gnu_gcc/arm_gcc/mingw/bin/../lib/gcc/arm-none-eabi/5.4.1/../../../../arm-none-eabi/lib/armv7e-m/fpu\libc.a(lib_a-flags.o)
 .data          0x00000000        0x0 c:/rtthread/env/tools/gnu_gcc/arm_gcc/mingw/bin/../lib/gcc/arm-none-eabi/5.4.1/../../../../arm-none-eabi/lib/armv7e-m/fpu\libc.a(lib_a-flags.o)
 .bss           0x00000000        0x0 c:/rtthread/env/tools/gnu_gcc/arm_gcc/mingw/bin/../lib/gcc/arm-none-eabi/5.4.1/../../../../arm-none-eabi/lib/armv7e-m/fpu\libc.a(lib_a-flags.o)
 .text          0x00000000        0x0 c:/rtthread/env/tools/gnu_gcc/arm_gcc/mingw/bin/../lib/gcc/arm-none-eabi/5.4.1/../../../../arm-none-eabi/lib/armv7e-m/fpu\libc.a(lib_a-fputwc.o)
 .data          0x00000000        0x0 c:/rtthread/env/tools/gnu_gcc/arm_gcc/mingw/bin/../lib/gcc/arm-none-eabi/5.4.1/../../../../arm-none-eabi/lib/armv7e-m/fpu\libc.a(lib_a-fputwc.o)
 .bss           0x00000000        0x0 c:/rtthread/env/tools/gnu_gcc/arm_gcc/mingw/bin/../lib/gcc/arm-none-eabi/5.4.1/../../../../arm-none-eabi/lib/armv7e-m/fpu\libc.a(lib_a-fputwc.o)
 .text.fputwc   0x00000000       0x40 c:/rtthread/env/tools/gnu_gcc/arm_gcc/mingw/bin/../lib/gcc/arm-none-eabi/5.4.1/../../../../arm-none-eabi/lib/armv7e-m/fpu\libc.a(lib_a-fputwc.o)
 .text          0x00000000        0x0 c:/rtthread/env/tools/gnu_gcc/arm_gcc/mingw/bin/../lib/gcc/arm-none-eabi/5.4.1/../../../../arm-none-eabi/lib/armv7e-m/fpu\libc.a(lib_a-fvwrite.o)
 .data          0x00000000        0x0 c:/rtthread/env/tools/gnu_gcc/arm_gcc/mingw/bin/../lib/gcc/arm-none-eabi/5.4.1/../../../../arm-none-eabi/lib/armv7e-m/fpu\libc.a(lib_a-fvwrite.o)
 .bss           0x00000000        0x0 c:/rtthread/env/tools/gnu_gcc/arm_gcc/mingw/bin/../lib/gcc/arm-none-eabi/5.4.1/../../../../arm-none-eabi/lib/armv7e-m/fpu\libc.a(lib_a-fvwrite.o)
 .text          0x00000000        0x0 c:/rtthread/env/tools/gnu_gcc/arm_gcc/mingw/bin/../lib/gcc/arm-none-eabi/5.4.1/../../../../arm-none-eabi/lib/armv7e-m/fpu\libc.a(lib_a-getenv_r.o)
 .data          0x00000000        0x0 c:/rtthread/env/tools/gnu_gcc/arm_gcc/mingw/bin/../lib/gcc/arm-none-eabi/5.4.1/../../../../arm-none-eabi/lib/armv7e-m/fpu\libc.a(lib_a-getenv_r.o)
 .bss           0x00000000        0x0 c:/rtthread/env/tools/gnu_gcc/arm_gcc/mingw/bin/../lib/gcc/arm-none-eabi/5.4.1/../../../../arm-none-eabi/lib/armv7e-m/fpu\libc.a(lib_a-getenv_r.o)
 .text._getenv_r
                0x00000000       0x10 c:/rtthread/env/tools/gnu_gcc/arm_gcc/mingw/bin/../lib/gcc/arm-none-eabi/5.4.1/../../../../arm-none-eabi/lib/armv7e-m/fpu\libc.a(lib_a-getenv_r.o)
 .text          0x00000000        0x0 c:/rtthread/env/tools/gnu_gcc/arm_gcc/mingw/bin/../lib/gcc/arm-none-eabi/5.4.1/../../../../arm-none-eabi/lib/armv7e-m/fpu\libc.a(lib_a-locale.o)
 .data          0x00000000        0x0 c:/rtthread/env/tools/gnu_gcc/arm_gcc/mingw/bin/../lib/gcc/arm-none-eabi/5.4.1/../../../../arm-none-eabi/lib/armv7e-m/fpu\libc.a(lib_a-locale.o)
 .bss           0x00000000        0x0 c:/rtthread/env/tools/gnu_gcc/arm_gcc/mingw/bin/../lib/gcc/arm-none-eabi/5.4.1/../../../../arm-none-eabi/lib/armv7e-m/fpu\libc.a(lib_a-locale.o)
 .text.__get_current_locale
                0x00000000       0x18 c:/rtthread/env/tools/gnu_gcc/arm_gcc/mingw/bin/../lib/gcc/arm-none-eabi/5.4.1/../../../../arm-none-eabi/lib/armv7e-m/fpu\libc.a(lib_a-locale.o)
 .text._setlocale_r
                0x00000000       0x40 c:/rtthread/env/tools/gnu_gcc/arm_gcc/mingw/bin/../lib/gcc/arm-none-eabi/5.4.1/../../../../arm-none-eabi/lib/armv7e-m/fpu\libc.a(lib_a-locale.o)
 .text.__locale_ctype_ptr_l
                0x00000000        0x8 c:/rtthread/env/tools/gnu_gcc/arm_gcc/mingw/bin/../lib/gcc/arm-none-eabi/5.4.1/../../../../arm-none-eabi/lib/armv7e-m/fpu\libc.a(lib_a-locale.o)
 .text.__locale_ctype_ptr
                0x00000000       0x14 c:/rtthread/env/tools/gnu_gcc/arm_gcc/mingw/bin/../lib/gcc/arm-none-eabi/5.4.1/../../../../arm-none-eabi/lib/armv7e-m/fpu\libc.a(lib_a-locale.o)
 .text.setlocale
                0x00000000       0x10 c:/rtthread/env/tools/gnu_gcc/arm_gcc/mingw/bin/../lib/gcc/arm-none-eabi/5.4.1/../../../../arm-none-eabi/lib/armv7e-m/fpu\libc.a(lib_a-locale.o)
 .bss._PathLocale
                0x00000000        0x4 c:/rtthread/env/tools/gnu_gcc/arm_gcc/mingw/bin/../lib/gcc/arm-none-eabi/5.4.1/../../../../arm-none-eabi/lib/armv7e-m/fpu\libc.a(lib_a-locale.o)
 .text          0x00000000        0x0 c:/rtthread/env/tools/gnu_gcc/arm_gcc/mingw/bin/../lib/gcc/arm-none-eabi/5.4.1/../../../../arm-none-eabi/lib/armv7e-m/fpu\libc.a(lib_a-localeconv.o)
 .data          0x00000000        0x0 c:/rtthread/env/tools/gnu_gcc/arm_gcc/mingw/bin/../lib/gcc/arm-none-eabi/5.4.1/../../../../arm-none-eabi/lib/armv7e-m/fpu\libc.a(lib_a-localeconv.o)
 .bss           0x00000000        0x0 c:/rtthread/env/tools/gnu_gcc/arm_gcc/mingw/bin/../lib/gcc/arm-none-eabi/5.4.1/../../../../arm-none-eabi/lib/armv7e-m/fpu\libc.a(lib_a-localeconv.o)
 .text.__localeconv_l
                0x00000000        0x4 c:/rtthread/env/tools/gnu_gcc/arm_gcc/mingw/bin/../lib/gcc/arm-none-eabi/5.4.1/../../../../arm-none-eabi/lib/armv7e-m/fpu\libc.a(lib_a-localeconv.o)
 .text.localeconv
                0x00000000       0x1c c:/rtthread/env/tools/gnu_gcc/arm_gcc/mingw/bin/../lib/gcc/arm-none-eabi/5.4.1/../../../../arm-none-eabi/lib/armv7e-m/fpu\libc.a(lib_a-localeconv.o)
 .text          0x00000000        0x0 c:/rtthread/env/tools/gnu_gcc/arm_gcc/mingw/bin/../lib/gcc/arm-none-eabi/5.4.1/../../../../arm-none-eabi/lib/armv7e-m/fpu\libc.a(lib_a-mbtowc_r.o)
 .data          0x00000000        0x0 c:/rtthread/env/tools/gnu_gcc/arm_gcc/mingw/bin/../lib/gcc/arm-none-eabi/5.4.1/../../../../arm-none-eabi/lib/armv7e-m/fpu\libc.a(lib_a-mbtowc_r.o)
 .bss           0x00000000        0x0 c:/rtthread/env/tools/gnu_gcc/arm_gcc/mingw/bin/../lib/gcc/arm-none-eabi/5.4.1/../../../../arm-none-eabi/lib/armv7e-m/fpu\libc.a(lib_a-mbtowc_r.o)
 .text._mbtowc_r
                0x00000000       0x24 c:/rtthread/env/tools/gnu_gcc/arm_gcc/mingw/bin/../lib/gcc/arm-none-eabi/5.4.1/../../../../arm-none-eabi/lib/armv7e-m/fpu\libc.a(lib_a-mbtowc_r.o)
 .data          0x00000000        0x0 c:/rtthread/env/tools/gnu_gcc/arm_gcc/mingw/bin/../lib/gcc/arm-none-eabi/5.4.1/../../../../arm-none-eabi/lib/armv7e-m/fpu\libc.a(lib_a-memchr.o)
 .bss           0x00000000        0x0 c:/rtthread/env/tools/gnu_gcc/arm_gcc/mingw/bin/../lib/gcc/arm-none-eabi/5.4.1/../../../../arm-none-eabi/lib/armv7e-m/fpu\libc.a(lib_a-memchr.o)
 .text          0x00000000        0x0 c:/rtthread/env/tools/gnu_gcc/arm_gcc/mingw/bin/../lib/gcc/arm-none-eabi/5.4.1/../../../../arm-none-eabi/lib/armv7e-m/fpu\libc.a(lib_a-memmove.o)
 .data          0x00000000        0x0 c:/rtthread/env/tools/gnu_gcc/arm_gcc/mingw/bin/../lib/gcc/arm-none-eabi/5.4.1/../../../../arm-none-eabi/lib/armv7e-m/fpu\libc.a(lib_a-memmove.o)
 .bss           0x00000000        0x0 c:/rtthread/env/tools/gnu_gcc/arm_gcc/mingw/bin/../lib/gcc/arm-none-eabi/5.4.1/../../../../arm-none-eabi/lib/armv7e-m/fpu\libc.a(lib_a-memmove.o)
 .text          0x00000000        0x0 c:/rtthread/env/tools/gnu_gcc/arm_gcc/mingw/bin/../lib/gcc/arm-none-eabi/5.4.1/../../../../arm-none-eabi/lib/armv7e-m/fpu\libc.a(lib_a-mprec.o)
 .data          0x00000000        0x0 c:/rtthread/env/tools/gnu_gcc/arm_gcc/mingw/bin/../lib/gcc/arm-none-eabi/5.4.1/../../../../arm-none-eabi/lib/armv7e-m/fpu\libc.a(lib_a-mprec.o)
 .bss           0x00000000        0x0 c:/rtthread/env/tools/gnu_gcc/arm_gcc/mingw/bin/../lib/gcc/arm-none-eabi/5.4.1/../../../../arm-none-eabi/lib/armv7e-m/fpu\libc.a(lib_a-mprec.o)
 .text.__s2b    0x00000000       0x98 c:/rtthread/env/tools/gnu_gcc/arm_gcc/mingw/bin/../lib/gcc/arm-none-eabi/5.4.1/../../../../arm-none-eabi/lib/armv7e-m/fpu\libc.a(lib_a-mprec.o)
 .text.__ulp    0x00000000       0x54 c:/rtthread/env/tools/gnu_gcc/arm_gcc/mingw/bin/../lib/gcc/arm-none-eabi/5.4.1/../../../../arm-none-eabi/lib/armv7e-m/fpu\libc.a(lib_a-mprec.o)
 .text.__b2d    0x00000000       0xd0 c:/rtthread/env/tools/gnu_gcc/arm_gcc/mingw/bin/../lib/gcc/arm-none-eabi/5.4.1/../../../../arm-none-eabi/lib/armv7e-m/fpu\libc.a(lib_a-mprec.o)
 .text.__ratio  0x00000000       0x60 c:/rtthread/env/tools/gnu_gcc/arm_gcc/mingw/bin/../lib/gcc/arm-none-eabi/5.4.1/../../../../arm-none-eabi/lib/armv7e-m/fpu\libc.a(lib_a-mprec.o)
 .text._mprec_log10
                0x00000000       0x38 c:/rtthread/env/tools/gnu_gcc/arm_gcc/mingw/bin/../lib/gcc/arm-none-eabi/5.4.1/../../../../arm-none-eabi/lib/armv7e-m/fpu\libc.a(lib_a-mprec.o)
 .text.__copybits
                0x00000000       0x48 c:/rtthread/env/tools/gnu_gcc/arm_gcc/mingw/bin/../lib/gcc/arm-none-eabi/5.4.1/../../../../arm-none-eabi/lib/armv7e-m/fpu\libc.a(lib_a-mprec.o)
 .text.__any_on
                0x00000000       0x60 c:/rtthread/env/tools/gnu_gcc/arm_gcc/mingw/bin/../lib/gcc/arm-none-eabi/5.4.1/../../../../arm-none-eabi/lib/armv7e-m/fpu\libc.a(lib_a-mprec.o)
 .rodata.__mprec_tinytens
                0x00000000       0x28 c:/rtthread/env/tools/gnu_gcc/arm_gcc/mingw/bin/../lib/gcc/arm-none-eabi/5.4.1/../../../../arm-none-eabi/lib/armv7e-m/fpu\libc.a(lib_a-mprec.o)
 .text          0x00000000        0x0 c:/rtthread/env/tools/gnu_gcc/arm_gcc/mingw/bin/../lib/gcc/arm-none-eabi/5.4.1/../../../../arm-none-eabi/lib/armv7e-m/fpu\libc.a(lib_a-svfiprintf.o)
 .data          0x00000000        0x0 c:/rtthread/env/tools/gnu_gcc/arm_gcc/mingw/bin/../lib/gcc/arm-none-eabi/5.4.1/../../../../arm-none-eabi/lib/armv7e-m/fpu\libc.a(lib_a-svfiprintf.o)
 .bss           0x00000000        0x0 c:/rtthread/env/tools/gnu_gcc/arm_gcc/mingw/bin/../lib/gcc/arm-none-eabi/5.4.1/../../../../arm-none-eabi/lib/armv7e-m/fpu\libc.a(lib_a-svfiprintf.o)
 .text._svfiprintf_r
                0x00000000      0xc5c c:/rtthread/env/tools/gnu_gcc/arm_gcc/mingw/bin/../lib/gcc/arm-none-eabi/5.4.1/../../../../arm-none-eabi/lib/armv7e-m/fpu\libc.a(lib_a-svfiprintf.o)
 .rodata.blanks.7237
                0x00000000       0x10 c:/rtthread/env/tools/gnu_gcc/arm_gcc/mingw/bin/../lib/gcc/arm-none-eabi/5.4.1/../../../../arm-none-eabi/lib/armv7e-m/fpu\libc.a(lib_a-svfiprintf.o)
 .rodata.str1.4
                0x00000000       0x2f c:/rtthread/env/tools/gnu_gcc/arm_gcc/mingw/bin/../lib/gcc/arm-none-eabi/5.4.1/../../../../arm-none-eabi/lib/armv7e-m/fpu\libc.a(lib_a-svfiprintf.o)
 .rodata.zeroes.7238
                0x00000000       0x10 c:/rtthread/env/tools/gnu_gcc/arm_gcc/mingw/bin/../lib/gcc/arm-none-eabi/5.4.1/../../../../arm-none-eabi/lib/armv7e-m/fpu\libc.a(lib_a-svfiprintf.o)
 .text          0x00000000        0x0 c:/rtthread/env/tools/gnu_gcc/arm_gcc/mingw/bin/../lib/gcc/arm-none-eabi/5.4.1/../../../../arm-none-eabi/lib/armv7e-m/fpu\libc.a(lib_a-wbuf.o)
 .data          0x00000000        0x0 c:/rtthread/env/tools/gnu_gcc/arm_gcc/mingw/bin/../lib/gcc/arm-none-eabi/5.4.1/../../../../arm-none-eabi/lib/armv7e-m/fpu\libc.a(lib_a-wbuf.o)
 .bss           0x00000000        0x0 c:/rtthread/env/tools/gnu_gcc/arm_gcc/mingw/bin/../lib/gcc/arm-none-eabi/5.4.1/../../../../arm-none-eabi/lib/armv7e-m/fpu\libc.a(lib_a-wbuf.o)
 .text.__swbuf  0x00000000       0x10 c:/rtthread/env/tools/gnu_gcc/arm_gcc/mingw/bin/../lib/gcc/arm-none-eabi/5.4.1/../../../../arm-none-eabi/lib/armv7e-m/fpu\libc.a(lib_a-wbuf.o)
 .text          0x00000000        0x0 c:/rtthread/env/tools/gnu_gcc/arm_gcc/mingw/bin/../lib/gcc/arm-none-eabi/5.4.1/../../../../arm-none-eabi/lib/armv7e-m/fpu\libc.a(lib_a-wcrtomb.o)
 .data          0x00000000        0x0 c:/rtthread/env/tools/gnu_gcc/arm_gcc/mingw/bin/../lib/gcc/arm-none-eabi/5.4.1/../../../../arm-none-eabi/lib/armv7e-m/fpu\libc.a(lib_a-wcrtomb.o)
 .bss           0x00000000        0x0 c:/rtthread/env/tools/gnu_gcc/arm_gcc/mingw/bin/../lib/gcc/arm-none-eabi/5.4.1/../../../../arm-none-eabi/lib/armv7e-m/fpu\libc.a(lib_a-wcrtomb.o)
 .text.wcrtomb  0x00000000       0x4c c:/rtthread/env/tools/gnu_gcc/arm_gcc/mingw/bin/../lib/gcc/arm-none-eabi/5.4.1/../../../../arm-none-eabi/lib/armv7e-m/fpu\libc.a(lib_a-wcrtomb.o)
 .text          0x00000000        0x0 c:/rtthread/env/tools/gnu_gcc/arm_gcc/mingw/bin/../lib/gcc/arm-none-eabi/5.4.1/../../../../arm-none-eabi/lib/armv7e-m/fpu\libc.a(lib_a-wctomb_r.o)
 .data          0x00000000        0x0 c:/rtthread/env/tools/gnu_gcc/arm_gcc/mingw/bin/../lib/gcc/arm-none-eabi/5.4.1/../../../../arm-none-eabi/lib/armv7e-m/fpu\libc.a(lib_a-wctomb_r.o)
 .bss           0x00000000        0x0 c:/rtthread/env/tools/gnu_gcc/arm_gcc/mingw/bin/../lib/gcc/arm-none-eabi/5.4.1/../../../../arm-none-eabi/lib/armv7e-m/fpu\libc.a(lib_a-wctomb_r.o)
 .text._wctomb_r
                0x00000000       0x24 c:/rtthread/env/tools/gnu_gcc/arm_gcc/mingw/bin/../lib/gcc/arm-none-eabi/5.4.1/../../../../arm-none-eabi/lib/armv7e-m/fpu\libc.a(lib_a-wctomb_r.o)
 .text          0x00000000        0x0 c:/rtthread/env/tools/gnu_gcc/arm_gcc/mingw/bin/../lib/gcc/arm-none-eabi/5.4.1/../../../../arm-none-eabi/lib/armv7e-m/fpu\libc.a(lib_a-ctype_.o)
 .data          0x00000000        0x0 c:/rtthread/env/tools/gnu_gcc/arm_gcc/mingw/bin/../lib/gcc/arm-none-eabi/5.4.1/../../../../arm-none-eabi/lib/armv7e-m/fpu\libc.a(lib_a-ctype_.o)
 .bss           0x00000000        0x0 c:/rtthread/env/tools/gnu_gcc/arm_gcc/mingw/bin/../lib/gcc/arm-none-eabi/5.4.1/../../../../arm-none-eabi/lib/armv7e-m/fpu\libc.a(lib_a-ctype_.o)
 .data          0x00000000        0x0 c:/rtthread/env/tools/gnu_gcc/arm_gcc/mingw/bin/../lib/gcc/arm-none-eabi/5.4.1/armv7e-m/fpu\libgcc.a(_arm_addsubdf3.o)
 .bss           0x00000000        0x0 c:/rtthread/env/tools/gnu_gcc/arm_gcc/mingw/bin/../lib/gcc/arm-none-eabi/5.4.1/armv7e-m/fpu\libgcc.a(_arm_addsubdf3.o)
 .data          0x00000000        0x0 c:/rtthread/env/tools/gnu_gcc/arm_gcc/mingw/bin/../lib/gcc/arm-none-eabi/5.4.1/armv7e-m/fpu\libgcc.a(_arm_muldivdf3.o)
 .bss           0x00000000        0x0 c:/rtthread/env/tools/gnu_gcc/arm_gcc/mingw/bin/../lib/gcc/arm-none-eabi/5.4.1/armv7e-m/fpu\libgcc.a(_arm_muldivdf3.o)
 .data          0x00000000        0x0 c:/rtthread/env/tools/gnu_gcc/arm_gcc/mingw/bin/../lib/gcc/arm-none-eabi/5.4.1/armv7e-m/fpu\libgcc.a(_arm_cmpdf2.o)
 .bss           0x00000000        0x0 c:/rtthread/env/tools/gnu_gcc/arm_gcc/mingw/bin/../lib/gcc/arm-none-eabi/5.4.1/armv7e-m/fpu\libgcc.a(_arm_cmpdf2.o)
 .data          0x00000000        0x0 c:/rtthread/env/tools/gnu_gcc/arm_gcc/mingw/bin/../lib/gcc/arm-none-eabi/5.4.1/armv7e-m/fpu\libgcc.a(_arm_unorddf2.o)
 .bss           0x00000000        0x0 c:/rtthread/env/tools/gnu_gcc/arm_gcc/mingw/bin/../lib/gcc/arm-none-eabi/5.4.1/armv7e-m/fpu\libgcc.a(_arm_unorddf2.o)
 .data          0x00000000        0x0 c:/rtthread/env/tools/gnu_gcc/arm_gcc/mingw/bin/../lib/gcc/arm-none-eabi/5.4.1/armv7e-m/fpu\libgcc.a(_arm_fixdfsi.o)
 .bss           0x00000000        0x0 c:/rtthread/env/tools/gnu_gcc/arm_gcc/mingw/bin/../lib/gcc/arm-none-eabi/5.4.1/armv7e-m/fpu\libgcc.a(_arm_fixdfsi.o)
 .data          0x00000000        0x0 c:/rtthread/env/tools/gnu_gcc/arm_gcc/mingw/bin/../lib/gcc/arm-none-eabi/5.4.1/armv7e-m/fpu\libgcc.a(_aeabi_uldivmod.o)
 .bss           0x00000000        0x0 c:/rtthread/env/tools/gnu_gcc/arm_gcc/mingw/bin/../lib/gcc/arm-none-eabi/5.4.1/armv7e-m/fpu\libgcc.a(_aeabi_uldivmod.o)
 .data          0x00000000        0x0 c:/rtthread/env/tools/gnu_gcc/arm_gcc/mingw/bin/../lib/gcc/arm-none-eabi/5.4.1/armv7e-m/fpu\libgcc.a(_udivmoddi4.o)
 .bss           0x00000000        0x0 c:/rtthread/env/tools/gnu_gcc/arm_gcc/mingw/bin/../lib/gcc/arm-none-eabi/5.4.1/armv7e-m/fpu\libgcc.a(_udivmoddi4.o)
 .ARM.extab     0x00000000        0x0 c:/rtthread/env/tools/gnu_gcc/arm_gcc/mingw/bin/../lib/gcc/arm-none-eabi/5.4.1/armv7e-m/fpu\libgcc.a(_udivmoddi4.o)
 .data          0x00000000        0x0 c:/rtthread/env/tools/gnu_gcc/arm_gcc/mingw/bin/../lib/gcc/arm-none-eabi/5.4.1/armv7e-m/fpu\libgcc.a(_dvmd_tls.o)
 .bss           0x00000000        0x0 c:/rtthread/env/tools/gnu_gcc/arm_gcc/mingw/bin/../lib/gcc/arm-none-eabi/5.4.1/armv7e-m/fpu\libgcc.a(_dvmd_tls.o)

Memory Configuration

Name             Origin             Length             Attributes
m_flash_config   0x60000000         0x00001000         xr
m_ivt            0x60001000         0x00001000         xr
m_interrupts     0x60002000         0x00000400         xr
m_text           0x60002400         0x03ffdc00         xr
m_data           0x20000000         0x00020000         rw
m_data2          0x20200000         0x00040000         rw
*default*        0x00000000         0xffffffff

Linker script and memory map

LOAD c:/rtthread/env/tools/gnu_gcc/arm_gcc/mingw/bin/../lib/gcc/arm-none-eabi/5.4.1/../../../../arm-none-eabi/lib/armv7e-m/fpu\libm.a
LOAD c:/rtthread/env/tools/gnu_gcc/arm_gcc/mingw/bin/../lib/gcc/arm-none-eabi/5.4.1/armv7e-m/fpu\libgcc.a
LOAD c:/rtthread/env/tools/gnu_gcc/arm_gcc/mingw/bin/../lib/gcc/arm-none-eabi/5.4.1/../../../../arm-none-eabi/lib/armv7e-m/fpu\libc.a
LOAD build\applications\main.o
LOAD build\board\board.o
LOAD build\board\MCUX_Config\clock_config.o
LOAD build\board\MCUX_Config\pin_mux.o
LOAD build\xip\fsl_flexspi_nor_boot.o
LOAD build\xip\fsl_flexspi_nor_config.o
LOAD build\kernel\src\clock.o
LOAD build\kernel\src\components.o
LOAD build\kernel\src\device.o
LOAD build\kernel\src\idle.o
LOAD build\kernel\src\ipc.o
LOAD build\kernel\src\irq.o
LOAD build\kernel\src\kservice.o
LOAD build\kernel\src\memheap.o
LOAD build\kernel\src\mempool.o
LOAD build\kernel\src\object.o
LOAD build\kernel\src\scheduler.o
LOAD build\kernel\src\thread.o
LOAD build\kernel\src\timer.o
LOAD build\kernel\libcpu\arm\common\backtrace.o
LOAD build\kernel\libcpu\arm\common\div0.o
LOAD build\kernel\libcpu\arm\common\showmem.o
LOAD build\kernel\libcpu\arm\cortex-m7\cpu_cache.o
LOAD build\kernel\libcpu\arm\cortex-m7\cpuport.o
LOAD build\kernel\libcpu\arm\cortex-m7\context_gcc.o
LOAD build\kernel\components\dfs\src\dfs.o
LOAD build\kernel\components\dfs\src\dfs_file.o
LOAD build\kernel\components\dfs\src\dfs_fs.o
LOAD build\kernel\components\dfs\src\dfs_posix.o
LOAD build\kernel\components\dfs\src\poll.o
LOAD build\kernel\components\dfs\src\select.o
LOAD build\kernel\components\dfs\filesystems\devfs\devfs.o
LOAD build\kernel\components\dfs\filesystems\elmfat\dfs_elm.o
LOAD build\kernel\components\dfs\filesystems\elmfat\ff.o
LOAD build\kernel\components\dfs\filesystems\elmfat\ffunicode.o
LOAD build\kernel\components\drivers\cputime\cputime.o
LOAD build\kernel\components\drivers\misc\pin.o
LOAD build\kernel\components\drivers\misc\pulse_encoder.o
LOAD build\kernel\components\drivers\sdio\block_dev.o
LOAD build\kernel\components\drivers\sdio\mmcsd_core.o
LOAD build\kernel\components\drivers\sdio\sd.o
LOAD build\kernel\components\drivers\sdio\sdio.o
LOAD build\kernel\components\drivers\sdio\mmc.o
LOAD build\kernel\components\drivers\serial\serial.o
LOAD build\kernel\components\drivers\src\completion.o
LOAD build\kernel\components\drivers\src\dataqueue.o
LOAD build\kernel\components\drivers\src\pipe.o
LOAD build\kernel\components\drivers\src\ringblk_buf.o
LOAD build\kernel\components\drivers\src\ringbuffer.o
LOAD build\kernel\components\drivers\src\waitqueue.o
LOAD build\kernel\components\drivers\src\workqueue.o
LOAD build\kernel\components\drivers\usb\usbhost\core\usbhost_core.o
LOAD build\kernel\components\drivers\usb\usbhost\core\driver.o
LOAD build\kernel\components\drivers\usb\usbhost\core\usbhost.o
LOAD build\kernel\components\drivers\usb\usbhost\core\hub.o
LOAD build\kernel\components\drivers\usb\usbhost\class\mass.o
LOAD build\kernel\components\drivers\usb\usbhost\class\udisk.o
LOAD build\kernel\components\drivers\usb\usbhost\class\hid.o
LOAD build\kernel\components\drivers\usb\usbhost\class\umouse.o
LOAD build\kernel\components\finsh\shell.o
LOAD build\kernel\components\finsh\cmd.o
LOAD build\kernel\components\finsh\msh.o
LOAD build\kernel\components\finsh\msh_file.o
LOAD build\kernel\components\libc\compilers\common\time.o
LOAD build\kernel\components\libc\compilers\common\unistd.o
LOAD build\kernel\components\libc\compilers\newlib\libc.o
LOAD build\kernel\components\libc\compilers\newlib\libc_syms.o
LOAD build\kernel\components\libc\compilers\newlib\stdio.o
LOAD build\kernel\components\libc\compilers\newlib\syscalls.o
LOAD libraries\MIMXRT1050\MIMXRT1052\system_MIMXRT1052.o
LOAD libraries\MIMXRT1050\MIMXRT1052\drivers\fsl_common.o
LOAD libraries\MIMXRT1050\MIMXRT1052\drivers\fsl_clock.o
LOAD libraries\MIMXRT1050\MIMXRT1052\drivers\fsl_cache.o
LOAD libraries\MIMXRT1050\MIMXRT1052\gcc\startup_MIMXRT1052.o
LOAD libraries\MIMXRT1050\MIMXRT1052\drivers\fsl_gpio.o
LOAD libraries\MIMXRT1050\MIMXRT1052\drivers\fsl_lpuart.o
LOAD libraries\MIMXRT1050\MIMXRT1052\drivers\fsl_usdhc.o
LOAD libraries\MIMXRT1050\MIMXRT1052\drivers\fsl_enc.o
LOAD libraries\MIMXRT1050\MIMXRT1052\drivers\fsl_xbara.o
LOAD libraries\MIMXRT1050\MIMXRT1052\drivers\fsl_xbarb.o
LOAD libraries\MIMXRT1050\MIMXRT1052\drivers\fsl_os_abstraction_rtthread.o
LOAD libraries\MIMXRT1050\MIMXRT1052\drivers\generic_list.o
LOAD libraries\drivers\drv_gpio.o
LOAD libraries\drivers\drv_uart.o
LOAD libraries\drivers\drv_sdio.o
LOAD libraries\drivers\drv_pulse_encoder.o
LOAD libraries\drivers\usb\phy\usb_phy.o
LOAD libraries\drivers\drv_usbh.o
LOAD libraries\drivers\usb\host\usb_host_devices.o
LOAD libraries\drivers\usb\host\usb_host_ehci.o
LOAD libraries\drivers\usb\host\usb_host_framework.o
LOAD libraries\drivers\usb\host\usb_host_hci.o
LOAD c:/rtthread/env/tools/gnu_gcc/arm_gcc/mingw/bin/../lib/gcc/arm-none-eabi/5.4.1/../../../../arm-none-eabi/lib/armv7e-m/fpu\libc.a
LOAD c:/rtthread/env/tools/gnu_gcc/arm_gcc/mingw/bin/../lib/gcc/arm-none-eabi/5.4.1/../../../../arm-none-eabi/lib/armv7e-m/fpu\libm.a
START GROUP
LOAD c:/rtthread/env/tools/gnu_gcc/arm_gcc/mingw/bin/../lib/gcc/arm-none-eabi/5.4.1/armv7e-m/fpu\libgcc.a
LOAD c:/rtthread/env/tools/gnu_gcc/arm_gcc/mingw/bin/../lib/gcc/arm-none-eabi/5.4.1/../../../../arm-none-eabi/lib/armv7e-m/fpu\libc.a
END GROUP
                0x00002000                HEAP_SIZE = DEFINED (__heap_size__)?__heap_size__:0x2000
                0x00002000                STACK_SIZE = DEFINED (__stack_size__)?__stack_size__:0x2000

.flash_config   0x60000000      0x200
                0x60000000                . = ALIGN (0x4)
                0x60000000                __FLASH_BASE = .
 *(.boot_hdr.conf)
 .boot_hdr.conf
                0x60000000      0x200 build\xip\fsl_flexspi_nor_config.o
                0x60000000                qspiflash_config
                0x60000200                . = ALIGN (0x4)
                0x60001000                ivt_begin = (ORIGIN (m_flash_config) + LENGTH (m_flash_config))

.ivt            0x60001000       0x30
                0x60001000                . = ALIGN (0x4)
 *(.boot_hdr.ivt)
 .boot_hdr.ivt  0x60001000       0x20 build\xip\fsl_flexspi_nor_boot.o
                0x60001000                image_vector_table
 *(.boot_hdr.boot_data)
 .boot_hdr.boot_data
                0x60001020       0x10 build\xip\fsl_flexspi_nor_boot.o
                0x60001020                boot_data
 *(.boot_hdr.dcd_data)
                0x60001030                . = ALIGN (0x4)

.interrupts     0x60002000      0x400
                0x60002000                __VECTOR_TABLE = .
                0x60002000                . = ALIGN (0x4)
 *(.isr_vector)
 .isr_vector    0x60002000      0x400 libraries\MIMXRT1050\MIMXRT1052\gcc\startup_MIMXRT1052.o
                0x60002000                __isr_vector
                0x60002400                . = ALIGN (0x4)
                0x60002000                __VECTOR_RAM = __VECTOR_TABLE
                0x00000000                __RAM_VECTOR_TABLE_SIZE_BYTES = 0x0

.text           0x60002400    0x34838
                0x60002400                . = ALIGN (0x4)
 *(.text)
 .text          0x60002400      0x13c build\kernel\libcpu\arm\cortex-m7\context_gcc.o
                0x60002400                rt_hw_interrupt_disable
                0x60002408                rt_hw_interrupt_enable
                0x6000240e                rt_hw_context_switch_interrupt
                0x6000240e                rt_hw_context_switch
                0x6000242e                PendSV_Handler
                0x6000249a                rt_hw_context_switch_to
                0x600024e0                rt_hw_interrupt_thread_switch
                0x600024e4                HardFault_Handler
 .text          0x6000253c      0x204 libraries\MIMXRT1050\MIMXRT1052\gcc\startup_MIMXRT1052.o
                0x6000253c                Reset_Handler
                0x6000259c                LPI2C4_DriverIRQHandler
                0x6000259c                LPSPI2_DriverIRQHandler
                0x6000259c                SJC_IRQHandler
                0x6000259c                ADC_ETC_IRQ0_IRQHandler
                0x6000259c                DebugMon_Handler
                0x6000259c                SAI3_RX_DriverIRQHandler
                0x6000259c                PXP_IRQHandler
                0x6000259c                DMA13_DMA29_DriverIRQHandler
                0x6000259c                Reserved86_IRQHandler
                0x6000259c                SRC_IRQHandler
                0x6000259c                LPSPI4_DriverIRQHandler
                0x6000259c                Reserved143_IRQHandler
                0x6000259c                SPDIF_DriverIRQHandler
                0x6000259c                GPIO1_INT2_IRQHandler
                0x6000259c                CSI_IRQHandler
                0x6000259c                SNVS_LP_WRAPPER_IRQHandler
                0x6000259c                ENC2_IRQHandler
                0x6000259c                PWM2_2_IRQHandler
                0x6000259c                PWM1_FAULT_IRQHandler
                0x6000259c                PWM4_FAULT_IRQHandler
                0x6000259c                ENC1_IRQHandler
                0x6000259c                GPIO1_INT7_IRQHandler
                0x6000259c                CCM_1_IRQHandler
                0x6000259c                PWM1_3_IRQHandler
                0x6000259c                ADC_ETC_IRQ1_IRQHandler
                0x6000259c                XBAR1_IRQ_0_1_IRQHandler
                0x6000259c                CTI1_ERROR_IRQHandler
                0x6000259c                PWM3_FAULT_IRQHandler
                0x6000259c                LCDIF_IRQHandler
                0x6000259c                DMA7_DMA23_DriverIRQHandler
                0x6000259c                CTI0_ERROR_IRQHandler
                0x6000259c                PWM1_0_IRQHandler
                0x6000259c                Reserved68_IRQHandler
                0x6000259c                LPI2C3_DriverIRQHandler
                0x6000259c                TRNG_IRQHandler
                0x6000259c                USB_PHY2_IRQHandler
                0x6000259c                ACMP3_IRQHandler
                0x6000259c                TSC_DIG_IRQHandler
                0x6000259c                TMR4_IRQHandler
                0x6000259c                DMA3_DMA19_DriverIRQHandler
                0x6000259c                TMR1_IRQHandler
                0x6000259c                PWM2_0_IRQHandler
                0x6000259c                DCP_VMI_IRQHandler
                0x6000259c                CAN1_DriverIRQHandler
                0x6000259c                DMA14_DMA30_DriverIRQHandler
                0x6000259c                ENET_1588_Timer_DriverIRQHandler
                0x6000259c                PWM4_0_IRQHandler
                0x6000259c                PWM2_1_IRQHandler
                0x6000259c                LPSPI1_DriverIRQHandler
                0x6000259c                PWM2_FAULT_IRQHandler
                0x6000259c                FLEXIO2_DriverIRQHandler
                0x6000259c                UsageFault_Handler
                0x6000259c                WDOG1_IRQHandler
                0x6000259c                DMA_ERROR_DriverIRQHandler
                0x6000259c                PMU_EVENT_IRQHandler
                0x6000259c                GPT1_IRQHandler
                0x6000259c                DMA9_DMA25_DriverIRQHandler
                0x6000259c                PWM4_1_IRQHandler
                0x6000259c                ACMP4_IRQHandler
                0x6000259c                SEMC_IRQHandler
                0x6000259c                DMA0_DMA16_DriverIRQHandler
                0x6000259c                DefaultISR
                0x6000259c                PWM1_1_IRQHandler
                0x6000259c                LPI2C2_DriverIRQHandler
                0x6000259c                DMA2_DMA18_DriverIRQHandler
                0x6000259c                PWM3_0_IRQHandler
                0x6000259c                PWM3_3_IRQHandler
                0x6000259c                GPIO1_INT0_IRQHandler
                0x6000259c                ENC4_IRQHandler
                0x6000259c                CSU_IRQHandler
                0x6000259c                LPSPI3_DriverIRQHandler
                0x6000259c                ADC1_IRQHandler
                0x6000259c                FLEXIO1_DriverIRQHandler
                0x6000259c                ENET_DriverIRQHandler
                0x6000259c                DMA15_DMA31_DriverIRQHandler
                0x6000259c                RTWDOG_IRQHandler
                0x6000259c                USB_PHY1_IRQHandler
                0x6000259c                Reserved78_IRQHandler
                0x6000259c                SAI1_DriverIRQHandler
                0x6000259c                DMA12_DMA28_DriverIRQHandler
                0x6000259c                ENC3_IRQHandler
                0x6000259c                EWM_IRQHandler
                0x6000259c                TEMP_LOW_HIGH_IRQHandler
                0x6000259c                WDOG2_IRQHandler
                0x6000259c                GPIO1_INT5_IRQHandler
                0x6000259c                FLEXSPI_DriverIRQHandler
                0x6000259c                Reserved87_IRQHandler
                0x6000259c                PWM3_1_IRQHandler
                0x6000259c                PWM2_3_IRQHandler
                0x6000259c                GPIO1_INT3_IRQHandler
                0x6000259c                CORE_IRQHandler
                0x6000259c                DMA4_DMA20_DriverIRQHandler
                0x6000259c                BusFault_Handler
                0x6000259c                DMA10_DMA26_DriverIRQHandler
                0x6000259c                TEMP_PANIC_IRQHandler
                0x6000259c                GPIO1_INT6_IRQHandler
                0x6000259c                PWM1_2_IRQHandler
                0x6000259c                Reserved144_IRQHandler
                0x6000259c                GPR_IRQ_IRQHandler
                0x6000259c                GPC_IRQHandler
                0x6000259c                DCDC_IRQHandler
                0x6000259c                PWM4_3_IRQHandler
                0x6000259c                ACMP1_IRQHandler
                0x6000259c                DMA1_DMA17_DriverIRQHandler
                0x6000259c                CAN2_DriverIRQHandler
                0x6000259c                DMA5_DMA21_DriverIRQHandler
                0x6000259c                GPIO5_Combined_16_31_IRQHandler
                0x6000259c                TMR2_IRQHandler
                0x6000259c                ADC_ETC_ERROR_IRQ_IRQHandler
                0x6000259c                DMA8_DMA24_DriverIRQHandler
                0x6000259c                PWM4_2_IRQHandler
                0x6000259c                DMA6_DMA22_DriverIRQHandler
                0x6000259c                BEE_IRQHandler
                0x6000259c                GPIO1_INT1_IRQHandler
                0x6000259c                FLEXRAM_IRQHandler
                0x6000259c                ADC_ETC_IRQ2_IRQHandler
                0x6000259c                GPIO1_INT4_IRQHandler
                0x6000259c                CCM_2_IRQHandler
                0x6000259c                KPP_IRQHandler
                0x6000259c                GPT2_IRQHandler
                0x6000259c                ADC2_IRQHandler
                0x6000259c                MemManage_Handler
                0x6000259c                SAI2_DriverIRQHandler
                0x6000259c                ACMP2_IRQHandler
                0x6000259c                PIT_IRQHandler
                0x6000259c                Reserved115_IRQHandler
                0x6000259c                SNVS_HP_WRAPPER_IRQHandler
                0x6000259c                SNVS_HP_WRAPPER_TZ_IRQHandler
                0x6000259c                DMA11_DMA27_DriverIRQHandler
                0x6000259c                SAI3_TX_DriverIRQHandler
                0x6000259c                XBAR1_IRQ_2_3_IRQHandler
                0x6000259c                PWM3_2_IRQHandler
                0x6000259c                LPI2C1_DriverIRQHandler
                0x6000259c                DCP_IRQHandler
                0x6000259c                Reserved123_IRQHandler
                0x6000259c                TMR3_IRQHandler
                0x600025a0                NMI_Handler
                0x600025a8                SVC_Handler
                0x600025b4                DMA0_DMA16_IRQHandler
                0x600025b8                DMA1_DMA17_IRQHandler
                0x600025bc                DMA2_DMA18_IRQHandler
                0x600025c0                DMA3_DMA19_IRQHandler
                0x600025c4                DMA4_DMA20_IRQHandler
                0x600025c8                DMA5_DMA21_IRQHandler
                0x600025cc                DMA6_DMA22_IRQHandler
                0x600025d0                DMA7_DMA23_IRQHandler
                0x600025d4                DMA8_DMA24_IRQHandler
                0x600025d8                DMA9_DMA25_IRQHandler
                0x600025dc                DMA10_DMA26_IRQHandler
                0x600025e0                DMA11_DMA27_IRQHandler
                0x600025e4                DMA12_DMA28_IRQHandler
                0x600025e8                DMA13_DMA29_IRQHandler
                0x600025ec                DMA14_DMA30_IRQHandler
                0x600025f0                DMA15_DMA31_IRQHandler
                0x600025f4                DMA_ERROR_IRQHandler
                0x600025fc                LPUART2_IRQHandler
                0x60002600                LPUART3_IRQHandler
                0x60002604                LPUART4_IRQHandler
                0x60002608                LPUART5_IRQHandler
                0x6000260c                LPUART6_IRQHandler
                0x60002610                LPUART7_IRQHandler
                0x60002614                LPUART8_IRQHandler
                0x60002618                LPI2C1_IRQHandler
                0x6000261c                LPI2C2_IRQHandler
                0x60002620                LPI2C3_IRQHandler
                0x60002624                LPI2C4_IRQHandler
                0x60002628                LPSPI1_IRQHandler
                0x6000262c                LPSPI2_IRQHandler
                0x60002630                LPSPI3_IRQHandler
                0x60002634                LPSPI4_IRQHandler
                0x60002638                CAN1_IRQHandler
                0x6000263c                CAN2_IRQHandler
                0x60002640                SAI1_IRQHandler
                0x60002644                SAI2_IRQHandler
                0x60002648                SAI3_RX_IRQHandler
                0x6000264c                SAI3_TX_IRQHandler
                0x60002650                SPDIF_IRQHandler
                0x60002654                FLEXIO1_IRQHandler
                0x60002658                FLEXIO2_IRQHandler
                0x6000265c                FLEXSPI_IRQHandler
                0x60002660                USDHC1_IRQHandler
                0x60002664                USDHC2_IRQHandler
                0x60002668                ENET_IRQHandler
                0x6000266c                ENET_1588_Timer_IRQHandler
 .text          0x60002740      0x134 c:/rtthread/env/tools/gnu_gcc/arm_gcc/mingw/bin/../lib/gcc/arm-none-eabi/5.4.1/../../../../arm-none-eabi/lib/armv7e-m/fpu\libc.a(lib_a-memcpy.o)
                0x60002740                memcpy
 *fill*         0x60002874        0xc 
 .text          0x60002880      0x2dc c:/rtthread/env/tools/gnu_gcc/arm_gcc/mingw/bin/../lib/gcc/arm-none-eabi/5.4.1/../../../../arm-none-eabi/lib/armv7e-m/fpu\libc.a(lib_a-strcmp.o)
                0x60002888                strcmp
 *fill*         0x60002b5c       0x24 
 .text          0x60002b80       0xdc c:/rtthread/env/tools/gnu_gcc/arm_gcc/mingw/bin/../lib/gcc/arm-none-eabi/5.4.1/../../../../arm-none-eabi/lib/armv7e-m/fpu\libc.a(lib_a-strlen.o)
                0x60002b80                strlen
 *fill*         0x60002c5c        0x4 
 .text          0x60002c60       0xa0 c:/rtthread/env/tools/gnu_gcc/arm_gcc/mingw/bin/../lib/gcc/arm-none-eabi/5.4.1/../../../../arm-none-eabi/lib/armv7e-m/fpu\libc.a(lib_a-memchr.o)
                0x60002c60                memchr
 .text          0x60002d00      0x370 c:/rtthread/env/tools/gnu_gcc/arm_gcc/mingw/bin/../lib/gcc/arm-none-eabi/5.4.1/armv7e-m/fpu\libgcc.a(_arm_addsubdf3.o)
                0x60002d00                __aeabi_drsub
                0x60002d08                __aeabi_dsub
                0x60002d08                __subdf3
                0x60002d0c                __aeabi_dadd
                0x60002d0c                __adddf3
                0x60002f84                __floatunsidf
                0x60002f84                __aeabi_ui2d
                0x60002fa4                __floatsidf
                0x60002fa4                __aeabi_i2d
                0x60002fc8                __aeabi_f2d
                0x60002fc8                __extendsfdf2
                0x60003004                __floatundidf
                0x60003004                __aeabi_ul2d
                0x60003014                __floatdidf
                0x60003014                __aeabi_l2d
 .text          0x60003070      0x424 c:/rtthread/env/tools/gnu_gcc/arm_gcc/mingw/bin/../lib/gcc/arm-none-eabi/5.4.1/armv7e-m/fpu\libgcc.a(_arm_muldivdf3.o)
                0x60003070                __aeabi_dmul
                0x60003070                __muldf3
                0x600032c4                __divdf3
                0x600032c4                __aeabi_ddiv
 .text          0x60003494      0x110 c:/rtthread/env/tools/gnu_gcc/arm_gcc/mingw/bin/../lib/gcc/arm-none-eabi/5.4.1/armv7e-m/fpu\libgcc.a(_arm_cmpdf2.o)
                0x60003494                __gtdf2
                0x60003494                __gedf2
                0x6000349c                __ltdf2
                0x6000349c                __ledf2
                0x600034a4                __nedf2
                0x600034a4                __eqdf2
                0x600034a4                __cmpdf2
                0x60003520                __aeabi_cdrcmple
                0x60003530                __aeabi_cdcmpeq
                0x60003530                __aeabi_cdcmple
                0x60003540                __aeabi_dcmpeq
                0x60003554                __aeabi_dcmplt
                0x60003568                __aeabi_dcmple
                0x6000357c                __aeabi_dcmpge
                0x60003590                __aeabi_dcmpgt
 .text          0x600035a4       0x2c c:/rtthread/env/tools/gnu_gcc/arm_gcc/mingw/bin/../lib/gcc/arm-none-eabi/5.4.1/armv7e-m/fpu\libgcc.a(_arm_unorddf2.o)
                0x600035a4                __unorddf2
                0x600035a4                __aeabi_dcmpun
 .text          0x600035d0       0x50 c:/rtthread/env/tools/gnu_gcc/arm_gcc/mingw/bin/../lib/gcc/arm-none-eabi/5.4.1/armv7e-m/fpu\libgcc.a(_arm_fixdfsi.o)
                0x600035d0                __aeabi_d2iz
                0x600035d0                __fixdfsi
 .text          0x60003620       0x30 c:/rtthread/env/tools/gnu_gcc/arm_gcc/mingw/bin/../lib/gcc/arm-none-eabi/5.4.1/armv7e-m/fpu\libgcc.a(_aeabi_uldivmod.o)
                0x60003620                __aeabi_uldivmod
 .text          0x60003650      0x2e4 c:/rtthread/env/tools/gnu_gcc/arm_gcc/mingw/bin/../lib/gcc/arm-none-eabi/5.4.1/armv7e-m/fpu\libgcc.a(_udivmoddi4.o)
                0x60003650                __udivmoddi4
 .text          0x60003934        0x4 c:/rtthread/env/tools/gnu_gcc/arm_gcc/mingw/bin/../lib/gcc/arm-none-eabi/5.4.1/armv7e-m/fpu\libgcc.a(_dvmd_tls.o)
                0x60003934                __aeabi_idiv0
                0x60003934                __aeabi_ldiv0
 *(.text*)
 .text.main     0x60003938       0x50 build\applications\main.o
                0x60003938                main
 .text.pulse_encoder_sample
                0x60003988       0xa4 build\applications\main.o
 .text.__NVIC_SetPriorityGrouping
                0x60003a2c       0x48 build\board\board.o
 .text.__NVIC_SetPriority
                0x60003a74       0x54 build\board\board.o
 .text.ARM_MPU_Enable
                0x60003ac8       0x3c build\board\board.o
 .text.ARM_MPU_Disable
                0x60003b04       0x38 build\board\board.o
 .text.SCB_EnableICache
                0x60003b3c       0x40 build\board\board.o
 .text.SCB_DisableICache
                0x60003b7c       0x38 build\board\board.o
 .text.SCB_EnableDCache
                0x60003bb4       0x80 build\board\board.o
 .text.SCB_DisableDCache
                0x60003c34       0x68 build\board\board.o
 .text.SysTick_Config
                0x60003c9c       0x44 build\board\board.o
 .text.BOARD_ConfigMPU
                0x60003ce0       0xa4 build\board\board.o
 .text.SysTick_Handler
                0x60003d84       0x14 build\board\board.o
                0x60003d84                SysTick_Handler
 .text.rt_hw_board_init
                0x60003d98       0x54 build\board\board.o
                0x60003d98                rt_hw_board_init
 .text.CLOCK_SetMux
                0x60003dec       0xa8 build\board\MCUX_Config\clock_config.o
 .text.CLOCK_SetDiv
                0x60003e94       0xa8 build\board\MCUX_Config\clock_config.o
 .text.CLOCK_ControlGate
                0x60003f3c       0x74 build\board\MCUX_Config\clock_config.o
 .text.CLOCK_DisableClock
                0x60003fb0       0x20 build\board\MCUX_Config\clock_config.o
 .text.CLOCK_SetXtalFreq
                0x60003fd0       0x20 build\board\MCUX_Config\clock_config.o
 .text.CLOCK_SetRtcXtalFreq
                0x60003ff0       0x20 build\board\MCUX_Config\clock_config.o
 .text.CLOCK_SetPllBypass
                0x60004010       0x50 build\board\MCUX_Config\clock_config.o
 .text.IOMUXC_EnableMode
                0x60004060       0x48 build\board\MCUX_Config\clock_config.o
 .text.IOMUXC_SetSaiMClkClockSource
                0x600040a8       0x6c build\board\MCUX_Config\clock_config.o
 .text.IOMUXC_MQSConfig
                0x60004114       0x44 build\board\MCUX_Config\clock_config.o
 .text.BOARD_BootClockRUN
                0x60004158      0x5b0 build\board\MCUX_Config\clock_config.o
                0x60004158                BOARD_BootClockRUN
 .text.CLOCK_ControlGate
                0x60004708       0x74 build\board\MCUX_Config\pin_mux.o
 .text.CLOCK_EnableClock
                0x6000477c       0x20 build\board\MCUX_Config\pin_mux.o
 .text.IOMUXC_SetPinMux
                0x6000479c       0x3c build\board\MCUX_Config\pin_mux.o
 .text.IOMUXC_SetPinConfig
                0x600047d8       0x28 build\board\MCUX_Config\pin_mux.o
 .text.BOARD_InitPins
                0x60004800      0x814 build\board\MCUX_Config\pin_mux.o
                0x60004800                BOARD_InitPins
 .text.rt_tick_get
                0x60005014       0x18 build\kernel\src\clock.o
                0x60005014                rt_tick_get
 .text.rt_tick_increase
                0x6000502c       0x58 build\kernel\src\clock.o
                0x6000502c                rt_tick_increase
 .text.rt_tick_from_millisecond
                0x60005084       0x74 build\kernel\src\clock.o
                0x60005084                rt_tick_from_millisecond
 .text.rti_start
                0x600050f8       0x10 build\kernel\src\components.o
 .text.rti_board_start
                0x60005108       0x10 build\kernel\src\components.o
 .text.rti_board_end
                0x60005118       0x10 build\kernel\src\components.o
 .text.rti_end  0x60005128       0x10 build\kernel\src\components.o
 .text.rt_components_board_init
                0x60005138       0x30 build\kernel\src\components.o
                0x60005138                rt_components_board_init
 .text.rt_components_init
                0x60005168       0x30 build\kernel\src\components.o
                0x60005168                rt_components_init
 .text.entry    0x60005198       0x10 build\kernel\src\components.o
                0x60005198                entry
 .text.main_thread_entry
                0x600051a8       0x18 build\kernel\src\components.o
                0x600051a8                main_thread_entry
 .text.rt_application_init
                0x600051c0       0x4c build\kernel\src\components.o
                0x600051c0                rt_application_init
 .text.rtthread_startup
                0x6000520c       0x30 build\kernel\src\components.o
                0x6000520c                rtthread_startup
 .text.rt_list_init
                0x6000523c       0x24 build\kernel\src\device.o
 .text.rt_wqueue_init
                0x60005260       0x38 build\kernel\src\device.o
 .text.rt_device_register
                0x60005298       0x64 build\kernel\src\device.o
                0x60005298                rt_device_register
 .text.rt_device_unregister
                0x600052fc       0x6c build\kernel\src\device.o
                0x600052fc                rt_device_unregister
 .text.rt_device_find
                0x60005368       0x1c build\kernel\src\device.o
                0x60005368                rt_device_find
 .text.rt_device_init
                0x60005384       0x74 build\kernel\src\device.o
                0x60005384                rt_device_init
 .text.rt_device_open
                0x600053f8      0x11c build\kernel\src\device.o
                0x600053f8                rt_device_open
 .text.rt_device_close
                0x60005514       0x9c build\kernel\src\device.o
                0x60005514                rt_device_close
 .text.rt_device_read
                0x600055b0       0x88 build\kernel\src\device.o
                0x600055b0                rt_device_read
 .text.rt_device_write
                0x60005638       0x88 build\kernel\src\device.o
                0x60005638                rt_device_write
 .text.rt_device_control
                0x600056c0       0x68 build\kernel\src\device.o
                0x600056c0                rt_device_control
 .text.rt_device_set_rx_indicate
                0x60005728       0x54 build\kernel\src\device.o
                0x60005728                rt_device_set_rx_indicate
 .text.rt_list_remove
                0x6000577c       0x38 build\kernel\src\idle.o
 .text._has_defunct_thread
                0x600057b4       0x2c build\kernel\src\idle.o
 .text.rt_thread_idle_excute
                0x600057e0       0x88 build\kernel\src\idle.o
                0x600057e0                rt_thread_idle_excute
 .text.rt_thread_idle_entry
                0x60005868       0x3c build\kernel\src\idle.o
 .text.rt_thread_idle_init
                0x600058a4       0x74 build\kernel\src\idle.o
                0x600058a4                rt_thread_idle_init
 .text.rt_list_init
                0x60005918       0x24 build\kernel\src\ipc.o
 .text.rt_list_insert_before
                0x6000593c       0x34 build\kernel\src\ipc.o
 .text.rt_list_isempty
                0x60005970       0x24 build\kernel\src\ipc.o
 .text.rt_ipc_object_init
                0x60005994       0x1c build\kernel\src\ipc.o
 .text.rt_ipc_list_suspend
                0x600059b0       0x90 build\kernel\src\ipc.o
 .text.rt_ipc_list_resume
                0x60005a40       0x20 build\kernel\src\ipc.o
 .text.rt_ipc_list_resume_all
                0x60005a60       0x48 build\kernel\src\ipc.o
 .text.rt_sem_init
                0x60005aa8       0x68 build\kernel\src\ipc.o
                0x60005aa8                rt_sem_init
 .text.rt_sem_detach
                0x60005b10       0x74 build\kernel\src\ipc.o
                0x60005b10                rt_sem_detach
 .text.rt_sem_create
                0x60005b84       0x90 build\kernel\src\ipc.o
                0x60005b84                rt_sem_create
 .text.rt_sem_delete
                0x60005c14       0xac build\kernel\src\ipc.o
                0x60005c14                rt_sem_delete
 .text.rt_sem_take
                0x60005cc0      0x160 build\kernel\src\ipc.o
                0x60005cc0                rt_sem_take
 .text.rt_sem_release
                0x60005e20       0xbc build\kernel\src\ipc.o
                0x60005e20                rt_sem_release
 .text.rt_mutex_init
                0x60005edc       0x64 build\kernel\src\ipc.o
                0x60005edc                rt_mutex_init
 .text.rt_mutex_detach
                0x60005f40       0x7c build\kernel\src\ipc.o
                0x60005f40                rt_mutex_detach
 .text.rt_mutex_create
                0x60005fbc       0x88 build\kernel\src\ipc.o
                0x60005fbc                rt_mutex_create
 .text.rt_mutex_delete
                0x60006044       0xac build\kernel\src\ipc.o
                0x60006044                rt_mutex_delete
 .text.rt_mutex_take
                0x600060f0      0x1ec build\kernel\src\ipc.o
                0x600060f0                rt_mutex_take
 .text.rt_mutex_release
                0x600062dc      0x1bc build\kernel\src\ipc.o
                0x600062dc                rt_mutex_release
 .text.rt_event_create
                0x60006498       0x74 build\kernel\src\ipc.o
                0x60006498                rt_event_create
 .text.rt_event_delete
                0x6000650c       0xac build\kernel\src\ipc.o
                0x6000650c                rt_event_delete
 .text.rt_event_send
                0x600065b8      0x158 build\kernel\src\ipc.o
                0x600065b8                rt_event_send
 .text.rt_event_recv
                0x60006710      0x21c build\kernel\src\ipc.o
                0x60006710                rt_event_recv
 .text.rt_mb_init
                0x6000692c       0x78 build\kernel\src\ipc.o
                0x6000692c                rt_mb_init
 .text.rt_mb_send_wait
                0x600069a4      0x224 build\kernel\src\ipc.o
                0x600069a4                rt_mb_send_wait
 .text.rt_mb_send
                0x60006bc8       0x20 build\kernel\src\ipc.o
                0x60006bc8                rt_mb_send
 .text.rt_mb_recv
                0x60006be8      0x23c build\kernel\src\ipc.o
                0x60006be8                rt_mb_recv
 .text.rt_mq_create
                0x60006e24      0x10c build\kernel\src\ipc.o
                0x60006e24                rt_mq_create
 .text.rt_mq_send_wait
                0x60006f30      0x284 build\kernel\src\ipc.o
                0x60006f30                rt_mq_send_wait
 .text.rt_mq_send
                0x600071b4       0x24 build\kernel\src\ipc.o
                0x600071b4                rt_mq_send
 .text.rt_mq_recv
                0x600071d8      0x290 build\kernel\src\ipc.o
                0x600071d8                rt_mq_recv
 .text.rt_interrupt_enter
                0x60007468       0x40 build\kernel\src\irq.o
                0x60007468                rt_interrupt_enter
 .text.rt_interrupt_leave
                0x600074a8       0x40 build\kernel\src\irq.o
                0x600074a8                rt_interrupt_leave
 .text.rt_interrupt_get_nest
                0x600074e8       0x28 build\kernel\src\irq.o
                0x600074e8                rt_interrupt_get_nest
 .text.rt_set_errno
                0x60007510       0x40 build\kernel\src\kservice.o
                0x60007510                rt_set_errno
 .text._rt_errno
                0x60007550       0x34 build\kernel\src\kservice.o
                0x60007550                _rt_errno
 .text.rt_memset
                0x60007584       0xb8 build\kernel\src\kservice.o
                0x60007584                rt_memset
 .text.rt_memcpy
                0x6000763c       0xd4 build\kernel\src\kservice.o
                0x6000763c                rt_memcpy
 .text.rt_memmove
                0x60007710       0x84 build\kernel\src\kservice.o
                0x60007710                rt_memmove
 .text.rt_strncpy
                0x60007794       0x64 build\kernel\src\kservice.o
                0x60007794                rt_strncpy
 .text.rt_strncmp
                0x600077f8       0x4c build\kernel\src\kservice.o
                0x600077f8                rt_strncmp
 .text.rt_strcmp
                0x60007844       0x44 build\kernel\src\kservice.o
                0x60007844                rt_strcmp
 .text.rt_strlen
                0x60007888       0x30 build\kernel\src\kservice.o
                0x60007888                rt_strlen
 .text.rt_strdup
                0x600078b8       0x3c build\kernel\src\kservice.o
                0x600078b8                rt_strdup
 .text.rt_show_version
                0x600078f4       0x44 build\kernel\src\kservice.o
                0x600078f4                rt_show_version
 .text.divide   0x60007938       0x68 build\kernel\src\kservice.o
 .text.skip_atoi
                0x600079a0       0x40 build\kernel\src\kservice.o
 .text.print_number
                0x600079e0      0x1dc build\kernel\src\kservice.o
 .text.rt_vsnprintf
                0x60007bbc      0x548 build\kernel\src\kservice.o
                0x60007bbc                rt_vsnprintf
 .text.rt_snprintf
                0x60008104       0x30 build\kernel\src\kservice.o
                0x60008104                rt_snprintf
 .text.rt_vsprintf
                0x60008134       0x24 build\kernel\src\kservice.o
                0x60008134                rt_vsprintf
 .text.rt_sprintf
                0x60008158       0x2c build\kernel\src\kservice.o
                0x60008158                rt_sprintf
 .text.rt_console_get_device
                0x60008184       0x18 build\kernel\src\kservice.o
                0x60008184                rt_console_get_device
 .text.rt_console_set_device
                0x6000819c       0x58 build\kernel\src\kservice.o
                0x6000819c                rt_console_set_device
 .text.rt_hw_console_output
                0x600081f4       0x14 build\kernel\src\kservice.o
                0x600081f4                rt_hw_console_output
 .text.rt_kprintf
                0x60008208       0x80 build\kernel\src\kservice.o
                0x60008208                rt_kprintf
 .text.rt_malloc_align
                0x60008288       0x80 build\kernel\src\kservice.o
                0x60008288                rt_malloc_align
 .text.rt_free_align
                0x60008308       0x20 build\kernel\src\kservice.o
                0x60008308                rt_free_align
 .text.__rt_ffs
                0x60008328       0x70 build\kernel\src\kservice.o
                0x60008328                __rt_ffs
 .text.rt_assert_handler
                0x60008398       0x4c build\kernel\src\kservice.o
                0x60008398                rt_assert_handler
 .text.rt_memheap_init
                0x600083e4      0x144 build\kernel\src\memheap.o
                0x600083e4                rt_memheap_init
 .text.rt_memheap_alloc
                0x60008528      0x1f8 build\kernel\src\memheap.o
                0x60008528                rt_memheap_alloc
 .text.rt_memheap_realloc
                0x60008720      0x310 build\kernel\src\memheap.o
                0x60008720                rt_memheap_realloc
 .text.rt_memheap_free
                0x60008a30      0x1b8 build\kernel\src\memheap.o
                0x60008a30                rt_memheap_free
 .text.rt_system_heap_init
                0x60008be8       0x2c build\kernel\src\memheap.o
                0x60008be8                rt_system_heap_init
 .text.rt_malloc
                0x60008c14       0xc0 build\kernel\src\memheap.o
                0x60008c14                rt_malloc
 .text.rt_free  0x60008cd4       0x18 build\kernel\src\memheap.o
                0x60008cd4                rt_free
 .text.rt_realloc
                0x60008cec       0x9c build\kernel\src\memheap.o
                0x60008cec                rt_realloc
 .text.rt_calloc
                0x60008d88       0x38 build\kernel\src\memheap.o
                0x60008d88                rt_calloc
 .text.rt_list_insert_after
                0x60008dc0       0x34 build\kernel\src\object.o
 .text.rt_list_remove
                0x60008df4       0x38 build\kernel\src\object.o
 .text.rt_object_get_information
                0x60008e2c       0x48 build\kernel\src\object.o
                0x60008e2c                rt_object_get_information
 .text.rt_object_init
                0x60008e74       0xcc build\kernel\src\object.o
                0x60008e74                rt_object_init
 .text.rt_object_detach
                0x60008f40       0x5c build\kernel\src\object.o
                0x60008f40                rt_object_detach
 .text.rt_object_allocate
                0x60008f9c       0xd8 build\kernel\src\object.o
                0x60008f9c                rt_object_allocate
 .text.rt_object_delete
                0x60009074       0x7c build\kernel\src\object.o
                0x60009074                rt_object_delete
 .text.rt_object_is_systemobject
                0x600090f0       0x3c build\kernel\src\object.o
                0x600090f0                rt_object_is_systemobject
 .text.rt_object_get_type
                0x6000912c       0x34 build\kernel\src\object.o
                0x6000912c                rt_object_get_type
 .text.rt_object_find
                0x60009160       0xb4 build\kernel\src\object.o
                0x60009160                rt_object_find
 .text.rt_list_init
                0x60009214       0x24 build\kernel\src\scheduler.o
 .text.rt_list_insert_before
                0x60009238       0x34 build\kernel\src\scheduler.o
 .text.rt_list_remove
                0x6000926c       0x38 build\kernel\src\scheduler.o
 .text.rt_list_isempty
                0x600092a4       0x24 build\kernel\src\scheduler.o
 .text._rt_scheduler_stack_check
                0x600092c8       0x94 build\kernel\src\scheduler.o
 .text._get_highest_priority_thread
                0x6000935c       0x38 build\kernel\src\scheduler.o
 .text.rt_system_scheduler_init
                0x60009394       0x40 build\kernel\src\scheduler.o
                0x60009394                rt_system_scheduler_init
 .text.rt_system_scheduler_start
                0x600093d4       0x38 build\kernel\src\scheduler.o
                0x600093d4                rt_system_scheduler_start
 .text.rt_schedule
                0x6000940c      0x188 build\kernel\src\scheduler.o
                0x6000940c                rt_schedule
 .text.rt_schedule_insert_thread
                0x60009594       0xac build\kernel\src\scheduler.o
                0x60009594                rt_schedule_insert_thread
 .text.rt_schedule_remove_thread
                0x60009640       0x70 build\kernel\src\scheduler.o
                0x60009640                rt_schedule_remove_thread
 .text.rt_enter_critical
                0x600096b0       0x2c build\kernel\src\scheduler.o
                0x600096b0                rt_enter_critical
 .text.rt_exit_critical
                0x600096dc       0x54 build\kernel\src\scheduler.o
                0x600096dc                rt_exit_critical
 .text.rt_list_init
                0x60009730       0x24 build\kernel\src\thread.o
 .text.rt_list_insert_after
                0x60009754       0x34 build\kernel\src\thread.o
 .text.rt_list_remove
                0x60009788       0x38 build\kernel\src\thread.o
 .text._thread_cleanup_execute
                0x600097c0       0x2c build\kernel\src\thread.o
 .text.rt_thread_exit
                0x600097ec       0x68 build\kernel\src\thread.o
                0x600097ec                rt_thread_exit
 .text._rt_thread_init
                0x60009854       0xf8 build\kernel\src\thread.o
 .text.rt_thread_init
                0x6000994c       0x70 build\kernel\src\thread.o
                0x6000994c                rt_thread_init
 .text.rt_thread_self
                0x600099bc       0x18 build\kernel\src\thread.o
                0x600099bc                rt_thread_self
 .text.rt_thread_startup
                0x600099d4       0xa0 build\kernel\src\thread.o
                0x600099d4                rt_thread_startup
 .text.rt_thread_detach
                0x60009a74       0xd4 build\kernel\src\thread.o
                0x60009a74                rt_thread_detach
 .text.rt_thread_create
                0x60009b48       0x64 build\kernel\src\thread.o
                0x60009b48                rt_thread_create
 .text.rt_thread_delete
                0x60009bac       0xc0 build\kernel\src\thread.o
                0x60009bac                rt_thread_delete
 .text.rt_thread_sleep
                0x60009c6c       0x8c build\kernel\src\thread.o
                0x60009c6c                rt_thread_sleep
 .text.rt_thread_delay
                0x60009cf8       0x18 build\kernel\src\thread.o
                0x60009cf8                rt_thread_delay
 .text.rt_thread_mdelay
                0x60009d10       0x20 build\kernel\src\thread.o
                0x60009d10                rt_thread_mdelay
 .text.rt_thread_control
                0x60009d30       0xe8 build\kernel\src\thread.o
                0x60009d30                rt_thread_control
 .text.rt_thread_suspend
                0x60009e18       0xcc build\kernel\src\thread.o
                0x60009e18                rt_thread_suspend
 .text.rt_thread_resume
                0x60009ee4       0x98 build\kernel\src\thread.o
                0x60009ee4                rt_thread_resume
 .text.rt_thread_timeout
                0x60009f7c       0x84 build\kernel\src\thread.o
                0x60009f7c                rt_thread_timeout
 .text.rt_list_init
                0x6000a000       0x24 build\kernel\src\timer.o
 .text.rt_list_insert_after
                0x6000a024       0x34 build\kernel\src\timer.o
 .text.rt_list_remove
                0x6000a058       0x38 build\kernel\src\timer.o
 .text.rt_list_isempty
                0x6000a090       0x24 build\kernel\src\timer.o
 .text._rt_timer_init
                0x6000a0b4       0x68 build\kernel\src\timer.o
 .text._rt_timer_remove
                0x6000a11c       0x34 build\kernel\src\timer.o
 .text.rt_timer_init
                0x6000a150       0x48 build\kernel\src\timer.o
                0x6000a150                rt_timer_init
 .text.rt_timer_detach
                0x6000a198       0x88 build\kernel\src\timer.o
                0x6000a198                rt_timer_detach
 .text.rt_timer_start
                0x6000a220      0x1f0 build\kernel\src\timer.o
                0x6000a220                rt_timer_start
 .text.rt_timer_stop
                0x6000a410       0x94 build\kernel\src\timer.o
                0x6000a410                rt_timer_stop
 .text.rt_timer_control
                0x6000a4a4       0xd0 build\kernel\src\timer.o
                0x6000a4a4                rt_timer_control
 .text.rt_timer_check
                0x6000a574      0x108 build\kernel\src\timer.o
                0x6000a574                rt_timer_check
 .text.rt_system_timer_init
                0x6000a67c       0x34 build\kernel\src\timer.o
                0x6000a67c                rt_system_timer_init
 .text.rt_system_timer_thread_init
                0x6000a6b0       0x10 build\kernel\src\timer.o
                0x6000a6b0                rt_system_timer_thread_init
 .text.rt_hw_stack_init
                0x6000a6c0       0x90 build\kernel\libcpu\arm\cortex-m7\cpuport.o
                0x6000a6c0                rt_hw_stack_init
 .text.usage_fault_track
                0x6000a750       0xc4 build\kernel\libcpu\arm\cortex-m7\cpuport.o
 .text.bus_fault_track
                0x6000a814       0xcc build\kernel\libcpu\arm\cortex-m7\cpuport.o
 .text.mem_manage_fault_track
                0x6000a8e0       0xb4 build\kernel\libcpu\arm\cortex-m7\cpuport.o
 .text.hard_fault_track
                0x6000a994       0x78 build\kernel\libcpu\arm\cortex-m7\cpuport.o
 .text.rt_hw_hard_fault_exception
                0x6000aa0c      0x184 build\kernel\libcpu\arm\cortex-m7\cpuport.o
                0x6000aa0c                rt_hw_hard_fault_exception
 .text.dfs_init
                0x6000ab90       0x9c build\kernel\components\dfs\src\dfs.o
                0x6000ab90                dfs_init
 .text.dfs_lock
                0x6000ac2c       0x48 build\kernel\components\dfs\src\dfs.o
                0x6000ac2c                dfs_lock
 .text.dfs_unlock
                0x6000ac74       0x14 build\kernel\components\dfs\src\dfs.o
                0x6000ac74                dfs_unlock
 .text.fd_alloc
                0x6000ac88      0x10c build\kernel\components\dfs\src\dfs.o
 .text.fd_new   0x6000ad94       0x78 build\kernel\components\dfs\src\dfs.o
                0x6000ad94                fd_new
 .text.fd_get   0x6000ae0c       0x80 build\kernel\components\dfs\src\dfs.o
                0x6000ae0c                fd_get
 .text.fd_put   0x6000ae8c       0x88 build\kernel\components\dfs\src\dfs.o
                0x6000ae8c                fd_put
 .text.fd_is_open
                0x6000af14       0xe8 build\kernel\components\dfs\src\dfs.o
                0x6000af14                fd_is_open
 .text.dfs_subdir
                0x6000affc       0x50 build\kernel\components\dfs\src\dfs.o
                0x6000affc                dfs_subdir
 .text.dfs_normalize_path
                0x6000b04c      0x208 build\kernel\components\dfs\src\dfs.o
                0x6000b04c                dfs_normalize_path
 .text.dfs_fdtable_get
                0x6000b254       0x1c build\kernel\components\dfs\src\dfs.o
                0x6000b254                dfs_fdtable_get
 .text.list_fd  0x6000b270      0x148 build\kernel\components\dfs\src\dfs.o
                0x6000b270                list_fd
 .text.dfs_file_open
                0x6000b3b8      0x148 build\kernel\components\dfs\src\dfs_file.o
                0x6000b3b8                dfs_file_open
 .text.dfs_file_close
                0x6000b500       0x54 build\kernel\components\dfs\src\dfs_file.o
                0x6000b500                dfs_file_close
 .text.dfs_file_read
                0x6000b554       0x58 build\kernel\components\dfs\src\dfs_file.o
                0x6000b554                dfs_file_read
 .text.dfs_file_getdents
                0x6000b5ac       0x48 build\kernel\components\dfs\src\dfs_file.o
                0x6000b5ac                dfs_file_getdents
 .text.dfs_file_unlink
                0x6000b5f4       0xcc build\kernel\components\dfs\src\dfs_file.o
                0x6000b5f4                dfs_file_unlink
 .text.dfs_file_write
                0x6000b6c0       0x40 build\kernel\components\dfs\src\dfs_file.o
                0x6000b6c0                dfs_file_write
 .text.dfs_file_lseek
                0x6000b700       0x4c build\kernel\components\dfs\src\dfs_file.o
                0x6000b700                dfs_file_lseek
 .text.dfs_file_stat
                0x6000b74c      0x12c build\kernel\components\dfs\src\dfs_file.o
                0x6000b74c                dfs_file_stat
 .text.dfs_file_rename
                0x6000b878       0xdc build\kernel\components\dfs\src\dfs_file.o
                0x6000b878                dfs_file_rename
 .text.ls       0x6000b954      0x120 build\kernel\components\dfs\src\dfs_file.o
                0x6000b954                ls
 .text.rm       0x6000ba74       0x28 build\kernel\components\dfs\src\dfs_file.o
                0x6000ba74                rm
 .text.cat      0x6000ba9c       0x74 build\kernel\components\dfs\src\dfs_file.o
                0x6000ba9c                cat
 .text.copyfile
                0x6000bb10       0xe0 build\kernel\components\dfs\src\dfs_file.o
 .text.copydir  0x6000bbf0      0x18c build\kernel\components\dfs\src\dfs_file.o
 .text._get_path_lastname
                0x6000bd7c       0x2c build\kernel\components\dfs\src\dfs_file.o
 .text.copy     0x6000bda8      0x15c build\kernel\components\dfs\src\dfs_file.o
                0x6000bda8                copy
 .text.dfs_register
                0x6000bf04       0xc0 build\kernel\components\dfs\src\dfs_fs.o
                0x6000bf04                dfs_register
 .text.dfs_filesystem_lookup
                0x6000bfc4       0xc4 build\kernel\components\dfs\src\dfs_fs.o
                0x6000bfc4                dfs_filesystem_lookup
 .text.dfs_filesystem_get_mounted_path
                0x6000c088       0x58 build\kernel\components\dfs\src\dfs_fs.o
                0x6000c088                dfs_filesystem_get_mounted_path
 .text.dfs_filesystem_get_partition
                0x6000c0e0      0x150 build\kernel\components\dfs\src\dfs_fs.o
                0x6000c0e0                dfs_filesystem_get_partition
 .text.dfs_mount
                0x6000c230      0x244 build\kernel\components\dfs\src\dfs_fs.o
                0x6000c230                dfs_mount
 .text.dfs_unmount
                0x6000c474       0xdc build\kernel\components\dfs\src\dfs_fs.o
                0x6000c474                dfs_unmount
 .text.dfs_mkfs
                0x6000c550      0x104 build\kernel\components\dfs\src\dfs_fs.o
                0x6000c550                dfs_mkfs
 .text.dfs_statfs
                0x6000c654       0x40 build\kernel\components\dfs\src\dfs_fs.o
                0x6000c654                dfs_statfs
 .text.mkfs     0x6000c694       0x1c build\kernel\components\dfs\src\dfs_fs.o
                0x6000c694                mkfs
 .text.df       0x6000c6b0      0x190 build\kernel\components\dfs\src\dfs_fs.o
                0x6000c6b0                df
 .text.open     0x6000c840       0x6c build\kernel\components\dfs\src\dfs_posix.o
                0x6000c840                open
 .text.close    0x6000c8ac       0x54 build\kernel\components\dfs\src\dfs_posix.o
                0x6000c8ac                close
 .text.read     0x6000c900       0x5c build\kernel\components\dfs\src\dfs_posix.o
                0x6000c900                read
 .text.write    0x6000c95c       0x5c build\kernel\components\dfs\src\dfs_posix.o
                0x6000c95c                write
 .text.lseek    0x6000c9b8       0xb4 build\kernel\components\dfs\src\dfs_posix.o
                0x6000c9b8                lseek
 .text.rename   0x6000ca6c       0x30 build\kernel\components\dfs\src\dfs_posix.o
                0x6000ca6c                rename
 .text.unlink   0x6000ca9c       0x2c build\kernel\components\dfs\src\dfs_posix.o
                0x6000ca9c                unlink
 .text.stat     0x6000cac8       0x30 build\kernel\components\dfs\src\dfs_posix.o
                0x6000cac8                stat
 .text.mkdir    0x6000caf8       0x78 build\kernel\components\dfs\src\dfs_posix.o
                0x6000caf8                mkdir
 .text.opendir  0x6000cb70       0x98 build\kernel\components\dfs\src\dfs_posix.o
                0x6000cb70                opendir
 .text.readdir  0x6000cc08       0xbc build\kernel\components\dfs\src\dfs_posix.o
                0x6000cc08                readdir
 .text.rewinddir
                0x6000ccc4       0x54 build\kernel\components\dfs\src\dfs_posix.o
                0x6000ccc4                rewinddir
 .text.closedir
                0x6000cd18       0x60 build\kernel\components\dfs\src\dfs_posix.o
                0x6000cd18                closedir
 .text.chdir    0x6000cd78       0xac build\kernel\components\dfs\src\dfs_posix.o
                0x6000cd78                chdir
 .text.getcwd   0x6000ce24       0x2c build\kernel\components\dfs\src\dfs_posix.o
                0x6000ce24                getcwd
 .text.dfs_device_fs_mount
                0x6000ce50       0x1c build\kernel\components\dfs\filesystems\devfs\devfs.o
                0x6000ce50                dfs_device_fs_mount
 .text.dfs_device_fs_ioctl
                0x6000ce6c       0x60 build\kernel\components\dfs\filesystems\devfs\devfs.o
                0x6000ce6c                dfs_device_fs_ioctl
 .text.dfs_device_fs_read
                0x6000cecc       0x68 build\kernel\components\dfs\filesystems\devfs\devfs.o
                0x6000cecc                dfs_device_fs_read
 .text.dfs_device_fs_write
                0x6000cf34       0x68 build\kernel\components\dfs\filesystems\devfs\devfs.o
                0x6000cf34                dfs_device_fs_write
 .text.dfs_device_fs_close
                0x6000cf9c       0x8c build\kernel\components\dfs\filesystems\devfs\devfs.o
                0x6000cf9c                dfs_device_fs_close
 .text.dfs_device_fs_open
                0x6000d028      0x178 build\kernel\components\dfs\filesystems\devfs\devfs.o
                0x6000d028                dfs_device_fs_open
 .text.dfs_device_fs_stat
                0x6000d1a0       0xe0 build\kernel\components\dfs\filesystems\devfs\devfs.o
                0x6000d1a0                dfs_device_fs_stat
 .text.dfs_device_fs_getdents
                0x6000d280       0xdc build\kernel\components\dfs\filesystems\devfs\devfs.o
                0x6000d280                dfs_device_fs_getdents
 .text.dfs_device_fs_poll
                0x6000d35c       0x1c build\kernel\components\dfs\filesystems\devfs\devfs.o
 .text.devfs_init
                0x6000d378       0x14 build\kernel\components\dfs\filesystems\devfs\devfs.o
                0x6000d378                devfs_init
 .text.elm_result_to_dfs
                0x6000d38c       0xa0 build\kernel\components\dfs\filesystems\elmfat\dfs_elm.o
 .text.get_disk
                0x6000d42c       0x40 build\kernel\components\dfs\filesystems\elmfat\dfs_elm.o
 .text.dfs_elm_mount
                0x6000d46c      0x15c build\kernel\components\dfs\filesystems\elmfat\dfs_elm.o
                0x6000d46c                dfs_elm_mount
 .text.dfs_elm_unmount
                0x6000d5c8       0xa4 build\kernel\components\dfs\filesystems\elmfat\dfs_elm.o
                0x6000d5c8                dfs_elm_unmount
 .text.dfs_elm_mkfs
                0x6000d66c      0x164 build\kernel\components\dfs\filesystems\elmfat\dfs_elm.o
                0x6000d66c                dfs_elm_mkfs
 .text.dfs_elm_statfs
                0x6000d7d0       0xb8 build\kernel\components\dfs\filesystems\elmfat\dfs_elm.o
                0x6000d7d0                dfs_elm_statfs
 .text.dfs_elm_open
                0x6000d888      0x1f8 build\kernel\components\dfs\filesystems\elmfat\dfs_elm.o
                0x6000d888                dfs_elm_open
 .text.dfs_elm_close
                0x6000da80       0x88 build\kernel\components\dfs\filesystems\elmfat\dfs_elm.o
                0x6000da80                dfs_elm_close
 .text.dfs_elm_ioctl
                0x6000db08       0x90 build\kernel\components\dfs\filesystems\elmfat\dfs_elm.o
                0x6000db08                dfs_elm_ioctl
 .text.dfs_elm_read
                0x6000db98       0x74 build\kernel\components\dfs\filesystems\elmfat\dfs_elm.o
                0x6000db98                dfs_elm_read
 .text.dfs_elm_write
                0x6000dc0c       0x7c build\kernel\components\dfs\filesystems\elmfat\dfs_elm.o
                0x6000dc0c                dfs_elm_write
 .text.dfs_elm_flush
                0x6000dc88       0x44 build\kernel\components\dfs\filesystems\elmfat\dfs_elm.o
                0x6000dc88                dfs_elm_flush
 .text.dfs_elm_lseek
                0x6000dccc       0xbc build\kernel\components\dfs\filesystems\elmfat\dfs_elm.o
                0x6000dccc                dfs_elm_lseek
 .text.dfs_elm_getdents
                0x6000dd88      0x1a0 build\kernel\components\dfs\filesystems\elmfat\dfs_elm.o
                0x6000dd88                dfs_elm_getdents
 .text.dfs_elm_unlink
                0x6000df28       0x70 build\kernel\components\dfs\filesystems\elmfat\dfs_elm.o
                0x6000df28                dfs_elm_unlink
 .text.dfs_elm_rename
                0x6000df98       0x78 build\kernel\components\dfs\filesystems\elmfat\dfs_elm.o
                0x6000df98                dfs_elm_rename
 .text.dfs_elm_stat
                0x6000e010      0x204 build\kernel\components\dfs\filesystems\elmfat\dfs_elm.o
                0x6000e010                dfs_elm_stat
 .text.elm_init
                0x6000e214       0x14 build\kernel\components\dfs\filesystems\elmfat\dfs_elm.o
                0x6000e214                elm_init
 .text.disk_initialize
                0x6000e228       0x18 build\kernel\components\dfs\filesystems\elmfat\dfs_elm.o
                0x6000e228                disk_initialize
 .text.disk_status
                0x6000e240       0x18 build\kernel\components\dfs\filesystems\elmfat\dfs_elm.o
                0x6000e240                disk_status
 .text.disk_read
                0x6000e258       0x44 build\kernel\components\dfs\filesystems\elmfat\dfs_elm.o
                0x6000e258                disk_read
 .text.disk_write
                0x6000e29c       0x44 build\kernel\components\dfs\filesystems\elmfat\dfs_elm.o
                0x6000e29c                disk_write
 .text.disk_ioctl
                0x6000e2e0       0xe4 build\kernel\components\dfs\filesystems\elmfat\dfs_elm.o
                0x6000e2e0                disk_ioctl
 .text.get_fattime
                0x6000e3c4       0x68 build\kernel\components\dfs\filesystems\elmfat\dfs_elm.o
                0x6000e3c4                get_fattime
 .text.ff_cre_syncobj
                0x6000e42c       0x48 build\kernel\components\dfs\filesystems\elmfat\dfs_elm.o
                0x6000e42c                ff_cre_syncobj
 .text.ff_del_syncobj
                0x6000e474       0x20 build\kernel\components\dfs\filesystems\elmfat\dfs_elm.o
                0x6000e474                ff_del_syncobj
 .text.ff_req_grant
                0x6000e494       0x28 build\kernel\components\dfs\filesystems\elmfat\dfs_elm.o
                0x6000e494                ff_req_grant
 .text.ff_rel_grant
                0x6000e4bc       0x18 build\kernel\components\dfs\filesystems\elmfat\dfs_elm.o
                0x6000e4bc                ff_rel_grant
 .text.ff_memalloc
                0x6000e4d4       0x18 build\kernel\components\dfs\filesystems\elmfat\dfs_elm.o
                0x6000e4d4                ff_memalloc
 .text.ff_memfree
                0x6000e4ec       0x18 build\kernel\components\dfs\filesystems\elmfat\dfs_elm.o
                0x6000e4ec                ff_memfree
 .text.ld_word  0x6000e504       0x30 build\kernel\components\dfs\filesystems\elmfat\ff.o
 .text.ld_dword
                0x6000e534       0x48 build\kernel\components\dfs\filesystems\elmfat\ff.o
 .text.st_word  0x6000e57c       0x38 build\kernel\components\dfs\filesystems\elmfat\ff.o
 .text.st_dword
                0x6000e5b4       0x58 build\kernel\components\dfs\filesystems\elmfat\ff.o
 .text.mem_cpy  0x6000e60c       0x44 build\kernel\components\dfs\filesystems\elmfat\ff.o
 .text.mem_set  0x6000e650       0x34 build\kernel\components\dfs\filesystems\elmfat\ff.o
 .text.mem_cmp  0x6000e684       0x50 build\kernel\components\dfs\filesystems\elmfat\ff.o
 .text.chk_chr  0x6000e6d4       0x38 build\kernel\components\dfs\filesystems\elmfat\ff.o
 .text.dbc_1st  0x6000e70c       0x24 build\kernel\components\dfs\filesystems\elmfat\ff.o
 .text.dbc_2nd  0x6000e730       0x24 build\kernel\components\dfs\filesystems\elmfat\ff.o
 .text.tchar2uni
                0x6000e754       0x8c build\kernel\components\dfs\filesystems\elmfat\ff.o
 .text.put_utf  0x6000e7e0       0x70 build\kernel\components\dfs\filesystems\elmfat\ff.o
 .text.lock_fs  0x6000e850       0x1c build\kernel\components\dfs\filesystems\elmfat\ff.o
 .text.unlock_fs
                0x6000e86c       0x38 build\kernel\components\dfs\filesystems\elmfat\ff.o
 .text.sync_window
                0x6000e8a4       0x78 build\kernel\components\dfs\filesystems\elmfat\ff.o
 .text.move_window
                0x6000e91c       0x5c build\kernel\components\dfs\filesystems\elmfat\ff.o
 .text.sync_fs  0x6000e978       0xdc build\kernel\components\dfs\filesystems\elmfat\ff.o
 .text.clst2sect
                0x6000ea54       0x40 build\kernel\components\dfs\filesystems\elmfat\ff.o
 .text.get_fat  0x6000ea94      0x14c build\kernel\components\dfs\filesystems\elmfat\ff.o
 .text.put_fat  0x6000ebe0      0x1d0 build\kernel\components\dfs\filesystems\elmfat\ff.o
 .text.remove_chain
                0x6000edb0       0xcc build\kernel\components\dfs\filesystems\elmfat\ff.o
 .text.create_chain
                0x6000ee7c      0x1a4 build\kernel\components\dfs\filesystems\elmfat\ff.o
 .text.clmt_clust
                0x6000f020       0x68 build\kernel\components\dfs\filesystems\elmfat\ff.o
 .text.dir_clear
                0x6000f088      0x118 build\kernel\components\dfs\filesystems\elmfat\ff.o
 .text.dir_sdi  0x6000f1a0       0xf8 build\kernel\components\dfs\filesystems\elmfat\ff.o
 .text.dir_next
                0x6000f298      0x12c build\kernel\components\dfs\filesystems\elmfat\ff.o
 .text.dir_alloc
                0x6000f3c4       0x90 build\kernel\components\dfs\filesystems\elmfat\ff.o
 .text.ld_clust
                0x6000f454       0x40 build\kernel\components\dfs\filesystems\elmfat\ff.o
 .text.st_clust
                0x6000f494       0x40 build\kernel\components\dfs\filesystems\elmfat\ff.o
 .text.cmp_lfn  0x6000f4d4       0xdc build\kernel\components\dfs\filesystems\elmfat\ff.o
 .text.pick_lfn
                0x6000f5b0       0xcc build\kernel\components\dfs\filesystems\elmfat\ff.o
 .text.put_lfn  0x6000f67c       0xd0 build\kernel\components\dfs\filesystems\elmfat\ff.o
 .text.gen_numname
                0x6000f74c      0x144 build\kernel\components\dfs\filesystems\elmfat\ff.o
 .text.sum_sfn  0x6000f890       0x44 build\kernel\components\dfs\filesystems\elmfat\ff.o
 .text.dir_read
                0x6000f8d4      0x150 build\kernel\components\dfs\filesystems\elmfat\ff.o
 .text.dir_find
                0x6000fa24      0x180 build\kernel\components\dfs\filesystems\elmfat\ff.o
 .text.dir_register
                0x6000fba4      0x1f0 build\kernel\components\dfs\filesystems\elmfat\ff.o
 .text.dir_remove
                0x6000fd94       0x94 build\kernel\components\dfs\filesystems\elmfat\ff.o
 .text.get_fileinfo
                0x6000fe28      0x230 build\kernel\components\dfs\filesystems\elmfat\ff.o
 .text.create_name
                0x60010058      0x3b0 build\kernel\components\dfs\filesystems\elmfat\ff.o
 .text.follow_path
                0x60010408       0xe0 build\kernel\components\dfs\filesystems\elmfat\ff.o
 .text.get_ldnumber
                0x600104e8       0x8c build\kernel\components\dfs\filesystems\elmfat\ff.o
 .text.check_fs
                0x60010574      0x118 build\kernel\components\dfs\filesystems\elmfat\ff.o
 .text.find_volume
                0x6001068c       0xc4 build\kernel\components\dfs\filesystems\elmfat\ff.o
 .text.mount_volume
                0x60010750      0x40c build\kernel\components\dfs\filesystems\elmfat\ff.o
 .text.validate
                0x60010b5c       0x90 build\kernel\components\dfs\filesystems\elmfat\ff.o
 .text.f_mount  0x60010bec       0xbc build\kernel\components\dfs\filesystems\elmfat\ff.o
                0x60010bec                f_mount
 .text.f_open   0x60010ca8      0x344 build\kernel\components\dfs\filesystems\elmfat\ff.o
                0x60010ca8                f_open
 .text.f_read   0x60010fec      0x2dc build\kernel\components\dfs\filesystems\elmfat\ff.o
                0x60010fec                f_read
 .text.f_write  0x600112c8      0x348 build\kernel\components\dfs\filesystems\elmfat\ff.o
                0x600112c8                f_write
 .text.f_sync   0x60011610      0x114 build\kernel\components\dfs\filesystems\elmfat\ff.o
                0x60011610                f_sync
 .text.f_close  0x60011724       0x4c build\kernel\components\dfs\filesystems\elmfat\ff.o
                0x60011724                f_close
 .text.f_lseek  0x60011770      0x4a8 build\kernel\components\dfs\filesystems\elmfat\ff.o
                0x60011770                f_lseek
 .text.f_opendir
                0x60011c18       0xe8 build\kernel\components\dfs\filesystems\elmfat\ff.o
                0x60011c18                f_opendir
 .text.f_readdir
                0x60011d00       0xb0 build\kernel\components\dfs\filesystems\elmfat\ff.o
                0x60011d00                f_readdir
 .text.f_seekdir
                0x60011db0       0x60 build\kernel\components\dfs\filesystems\elmfat\ff.o
                0x60011db0                f_seekdir
 .text.f_stat   0x60011e10       0xac build\kernel\components\dfs\filesystems\elmfat\ff.o
                0x60011e10                f_stat
 .text.f_getfree
                0x60011ebc      0x178 build\kernel\components\dfs\filesystems\elmfat\ff.o
                0x60011ebc                f_getfree
 .text.f_truncate
                0x60012034      0x158 build\kernel\components\dfs\filesystems\elmfat\ff.o
                0x60012034                f_truncate
 .text.f_unlink
                0x6001218c      0x174 build\kernel\components\dfs\filesystems\elmfat\ff.o
                0x6001218c                f_unlink
 .text.f_mkdir  0x60012300      0x1d4 build\kernel\components\dfs\filesystems\elmfat\ff.o
                0x60012300                f_mkdir
 .text.f_rename
                0x600124d4      0x234 build\kernel\components\dfs\filesystems\elmfat\ff.o
                0x600124d4                f_rename
 .text.create_partition
                0x60012708      0x248 build\kernel\components\dfs\filesystems\elmfat\ff.o
 .text.f_mkfs   0x60012950      0x934 build\kernel\components\dfs\filesystems\elmfat\ff.o
                0x60012950                f_mkfs
 .text.elm_get_vol
                0x60013284       0x40 build\kernel\components\dfs\filesystems\elmfat\ff.o
                0x60013284                elm_get_vol
 .text.ff_uni2oem
                0x600132c4       0x74 build\kernel\components\dfs\filesystems\elmfat\ffunicode.o
                0x600132c4                ff_uni2oem
 .text.ff_oem2uni
                0x60013338       0x5c build\kernel\components\dfs\filesystems\elmfat\ffunicode.o
                0x60013338                ff_oem2uni
 .text.ff_wtoupper
                0x60013394      0x124 build\kernel\components\dfs\filesystems\elmfat\ffunicode.o
                0x60013394                ff_wtoupper
 .text._pin_read
                0x600134b8       0x60 build\kernel\components\drivers\misc\pin.o
 .text._pin_write
                0x60013518       0x5c build\kernel\components\drivers\misc\pin.o
 .text._pin_control
                0x60013574       0x58 build\kernel\components\drivers\misc\pin.o
 .text.rt_device_pin_register
                0x600135cc       0x74 build\kernel\components\drivers\misc\pin.o
                0x600135cc                rt_device_pin_register
 .text.rt_pin_mode
                0x60013640       0x40 build\kernel\components\drivers\misc\pin.o
                0x60013640                rt_pin_mode
 .text.rt_pin_write
                0x60013680       0x40 build\kernel\components\drivers\misc\pin.o
                0x60013680                rt_pin_write
 .text.rt_pin_read
                0x600136c0       0x3c build\kernel\components\drivers\misc\pin.o
                0x600136c0                rt_pin_read
 .text.rt_pin_get
                0x600136fc       0x60 build\kernel\components\drivers\misc\pin.o
                0x600136fc                rt_pin_get
 .text.rt_pulse_encoder_init
                0x6001375c       0x30 build\kernel\components\drivers\misc\pulse_encoder.o
 .text.rt_pulse_encoder_open
                0x6001378c       0x38 build\kernel\components\drivers\misc\pulse_encoder.o
 .text.rt_pulse_encoder_close
                0x600137c4       0x34 build\kernel\components\drivers\misc\pulse_encoder.o
 .text.rt_pulse_encoder_read
                0x600137f8       0x38 build\kernel\components\drivers\misc\pulse_encoder.o
 .text.rt_pulse_encoder_control
                0x60013830       0x74 build\kernel\components\drivers\misc\pulse_encoder.o
 .text.rt_device_pulse_encoder_register
                0x600138a4       0xa4 build\kernel\components\drivers\misc\pulse_encoder.o
                0x600138a4                rt_device_pulse_encoder_register
 .text.rt_list_insert_after
                0x60013948       0x34 build\kernel\components\drivers\sdio\block_dev.o
 .text.rt_list_remove
                0x6001397c       0x38 build\kernel\components\drivers\sdio\block_dev.o
 .text.rt_mmcsd_req_blk
                0x600139b4      0x204 build\kernel\components\drivers\sdio\block_dev.o
 .text.rt_mmcsd_init
                0x60013bb8       0x18 build\kernel\components\drivers\sdio\block_dev.o
 .text.rt_mmcsd_open
                0x60013bd0       0x1c build\kernel\components\drivers\sdio\block_dev.o
 .text.rt_mmcsd_close
                0x60013bec       0x18 build\kernel\components\drivers\sdio\block_dev.o
 .text.rt_mmcsd_control
                0x60013c04       0x34 build\kernel\components\drivers\sdio\block_dev.o
 .text.rt_mmcsd_read
                0x60013c38       0xd4 build\kernel\components\drivers\sdio\block_dev.o
 .text.rt_mmcsd_write
                0x60013d0c       0xd4 build\kernel\components\drivers\sdio\block_dev.o
 .text.mmcsd_set_blksize
                0x60013de0       0x88 build\kernel\components\drivers\sdio\block_dev.o
 .text.rt_mmcsd_blk_probe
                0x60013e68      0x298 build\kernel\components\drivers\sdio\block_dev.o
                0x60013e68                rt_mmcsd_blk_probe
 .text.rt_mmcsd_blk_remove
                0x60014100       0x7c build\kernel\components\drivers\sdio\block_dev.o
                0x60014100                rt_mmcsd_blk_remove
 .text.mmcsd_delay_ms
                0x6001417c       0x34 build\kernel\components\drivers\sdio\mmcsd_core.o
 .text.__rt_fls
                0x600141b0       0x8c build\kernel\components\drivers\sdio\mmcsd_core.o
 .text.mmcsd_host_lock
                0x6001423c       0x20 build\kernel\components\drivers\sdio\mmcsd_core.o
                0x6001423c                mmcsd_host_lock
 .text.mmcsd_host_unlock
                0x6001425c       0x1c build\kernel\components\drivers\sdio\mmcsd_core.o
                0x6001425c                mmcsd_host_unlock
 .text.mmcsd_req_complete
                0x60014278       0x1c build\kernel\components\drivers\sdio\mmcsd_core.o
                0x60014278                mmcsd_req_complete
 .text.mmcsd_send_request
                0x60014294       0xa0 build\kernel\components\drivers\sdio\mmcsd_core.o
                0x60014294                mmcsd_send_request
 .text.mmcsd_send_cmd
                0x60014334       0x50 build\kernel\components\drivers\sdio\mmcsd_core.o
                0x60014334                mmcsd_send_cmd
 .text.mmcsd_go_idle
                0x60014384       0x78 build\kernel\components\drivers\sdio\mmcsd_core.o
                0x60014384                mmcsd_go_idle
 .text.mmcsd_spi_read_ocr
                0x600143fc       0x54 build\kernel\components\drivers\sdio\mmcsd_core.o
                0x600143fc                mmcsd_spi_read_ocr
 .text.mmcsd_all_get_cid
                0x60014450       0x58 build\kernel\components\drivers\sdio\mmcsd_core.o
                0x60014450                mmcsd_all_get_cid
 .text.mmcsd_get_cid
                0x600144a8      0x15c build\kernel\components\drivers\sdio\mmcsd_core.o
                0x600144a8                mmcsd_get_cid
 .text.mmcsd_get_csd
                0x60014604      0x154 build\kernel\components\drivers\sdio\mmcsd_core.o
                0x60014604                mmcsd_get_csd
 .text._mmcsd_select_card
                0x60014758       0x5c build\kernel\components\drivers\sdio\mmcsd_core.o
 .text.mmcsd_select_card
                0x600147b4       0x20 build\kernel\components\drivers\sdio\mmcsd_core.o
                0x600147b4                mmcsd_select_card
 .text.mmcsd_spi_use_crc
                0x600147d4       0x4c build\kernel\components\drivers\sdio\mmcsd_core.o
                0x600147d4                mmcsd_spi_use_crc
 .text.mmcsd_set_iocfg
                0x60014820       0x24 build\kernel\components\drivers\sdio\mmcsd_core.o
 .text.mmcsd_set_chip_select
                0x60014844       0x20 build\kernel\components\drivers\sdio\mmcsd_core.o
                0x60014844                mmcsd_set_chip_select
 .text.mmcsd_set_clock
                0x60014864       0x48 build\kernel\components\drivers\sdio\mmcsd_core.o
                0x60014864                mmcsd_set_clock
 .text.mmcsd_set_bus_mode
                0x600148ac       0x20 build\kernel\components\drivers\sdio\mmcsd_core.o
                0x600148ac                mmcsd_set_bus_mode
 .text.mmcsd_set_bus_width
                0x600148cc       0x20 build\kernel\components\drivers\sdio\mmcsd_core.o
                0x600148cc                mmcsd_set_bus_width
 .text.mmcsd_set_data_timeout
                0x600148ec      0x14c build\kernel\components\drivers\sdio\mmcsd_core.o
                0x600148ec                mmcsd_set_data_timeout
 .text.mmcsd_select_voltage
                0x60014a38       0x78 build\kernel\components\drivers\sdio\mmcsd_core.o
                0x60014a38                mmcsd_select_voltage
 .text.mmcsd_power_up
                0x60014ab0       0x80 build\kernel\components\drivers\sdio\mmcsd_core.o
 .text.mmcsd_power_off
                0x60014b30       0x48 build\kernel\components\drivers\sdio\mmcsd_core.o
 .text.mmcsd_change
                0x60014b78       0x20 build\kernel\components\drivers\sdio\mmcsd_core.o
                0x60014b78                mmcsd_change
 .text.mmcsd_detect
                0x60014b98      0x184 build\kernel\components\drivers\sdio\mmcsd_core.o
                0x60014b98                mmcsd_detect
 .text.mmcsd_alloc_host
                0x60014d1c       0x90 build\kernel\components\drivers\sdio\mmcsd_core.o
                0x60014d1c                mmcsd_alloc_host
 .text.mmcsd_free_host
                0x60014dac       0x2c build\kernel\components\drivers\sdio\mmcsd_core.o
                0x60014dac                mmcsd_free_host
 .text.rt_mmcsd_core_init
                0x60014dd8       0xb8 build\kernel\components\drivers\sdio\mmcsd_core.o
                0x60014dd8                rt_mmcsd_core_init
 .text.mmcsd_delay_ms
                0x60014e90       0x34 build\kernel\components\drivers\sdio\sd.o
 .text.GET_BITS
                0x60014ec4       0x9c build\kernel\components\drivers\sdio\sd.o
 .text.mmcsd_parse_csd
                0x60014f60      0x3ac build\kernel\components\drivers\sdio\sd.o
 .text.mmcsd_parse_scr
                0x6001530c       0x50 build\kernel\components\drivers\sdio\sd.o
 .text.mmcsd_switch
                0x6001535c      0x1d0 build\kernel\components\drivers\sdio\sd.o
 .text.mmcsd_app_cmd
                0x6001552c       0x78 build\kernel\components\drivers\sdio\sd.o
 .text.mmcsd_send_app_cmd
                0x600155a4       0xc8 build\kernel\components\drivers\sdio\sd.o
                0x600155a4                mmcsd_send_app_cmd
 .text.mmcsd_app_set_bus_width
                0x6001566c       0x64 build\kernel\components\drivers\sdio\sd.o
                0x6001566c                mmcsd_app_set_bus_width
 .text.mmcsd_send_app_op_cond
                0x600156d0       0xc8 build\kernel\components\drivers\sdio\sd.o
                0x600156d0                mmcsd_send_app_op_cond
 .text.mmcsd_send_if_cond
                0x60015798       0x78 build\kernel\components\drivers\sdio\sd.o
                0x60015798                mmcsd_send_if_cond
 .text.mmcsd_get_card_addr
                0x60015810       0x50 build\kernel\components\drivers\sdio\sd.o
                0x60015810                mmcsd_get_card_addr
 .text.mmcsd_get_scr
                0x60015860      0x10c build\kernel\components\drivers\sdio\sd.o
                0x60015860                mmcsd_get_scr
 .text.mmcsd_sd_init_card
                0x6001596c      0x224 build\kernel\components\drivers\sdio\sd.o
 .text.init_sd  0x60015b90       0xe0 build\kernel\components\drivers\sdio\sd.o
                0x60015b90                init_sd
 .text.rt_list_insert_after
                0x60015c70       0x34 build\kernel\components\drivers\sdio\sdio.o
 .text.rt_list_isempty
                0x60015ca4       0x24 build\kernel\components\drivers\sdio\sdio.o
 .text.mmcsd_delay_ms
                0x60015cc8       0x34 build\kernel\components\drivers\sdio\sdio.o
 .text.sdio_io_send_op_cond
                0x60015cfc       0xd8 build\kernel\components\drivers\sdio\sdio.o
                0x60015cfc                sdio_io_send_op_cond
 .text.sdio_io_rw_direct
                0x60015dd4      0x154 build\kernel\components\drivers\sdio\sdio.o
                0x60015dd4                sdio_io_rw_direct
 .text.sdio_io_readb
                0x60015f28       0x44 build\kernel\components\drivers\sdio\sdio.o
                0x60015f28                sdio_io_readb
 .text.sdio_io_writeb
                0x60015f6c       0x34 build\kernel\components\drivers\sdio\sdio.o
                0x60015f6c                sdio_io_writeb
 .text.sdio_read_cccr
                0x60015fa0      0x174 build\kernel\components\drivers\sdio\sdio.o
 .text.cistpl_funce_func0
                0x60016114       0x80 build\kernel\components\drivers\sdio\sdio.o
 .text.cistpl_funce_func
                0x60016194       0x90 build\kernel\components\drivers\sdio\sdio.o
 .text.sdio_read_cis
                0x60016224      0x29c build\kernel\components\drivers\sdio\sdio.o
 .text.sdio_free_cis
                0x600164c0       0x50 build\kernel\components\drivers\sdio\sdio.o
                0x600164c0                sdio_free_cis
 .text.sdio_read_fbr
                0x60016510       0x74 build\kernel\components\drivers\sdio\sdio.o
 .text.sdio_initialize_function
                0x60016584       0xe4 build\kernel\components\drivers\sdio\sdio.o
 .text.sdio_set_highspeed
                0x60016668       0x8c build\kernel\components\drivers\sdio\sdio.o
 .text.sdio_set_bus_wide
                0x600166f4       0x98 build\kernel\components\drivers\sdio\sdio.o
 .text.sdio_register_card
                0x6001678c       0xa8 build\kernel\components\drivers\sdio\sdio.o
 .text.sdio_init_card
                0x60016834      0x304 build\kernel\components\drivers\sdio\sdio.o
 .text.init_sdio
                0x60016b38       0xe0 build\kernel\components\drivers\sdio\sdio.o
                0x60016b38                init_sdio
 .text.sdio_match_card
                0x60016c18       0x74 build\kernel\components\drivers\sdio\sdio.o
 .text.rt_sdio_init
                0x60016c8c       0x10 build\kernel\components\drivers\sdio\sdio.o
                0x60016c8c                rt_sdio_init
 .text.mmcsd_delay_ms
                0x60016c9c       0x34 build\kernel\components\drivers\sdio\mmc.o
 .text.GET_BITS
                0x60016cd0       0x9c build\kernel\components\drivers\sdio\mmc.o
 .text.mmcsd_parse_csd
                0x60016d6c      0x244 build\kernel\components\drivers\sdio\mmc.o
 .text.mmc_get_ext_csd
                0x60016fb0       0xf0 build\kernel\components\drivers\sdio\mmc.o
 .text.mmc_parse_ext_csd
                0x600170a0       0xdc build\kernel\components\drivers\sdio\mmc.o
 .text.mmc_switch
                0x6001717c       0x70 build\kernel\components\drivers\sdio\mmc.o
 .text.mmc_compare_ext_csds
                0x600171ec      0x210 build\kernel\components\drivers\sdio\mmc.o
 .text.mmc_select_bus_width
                0x600173fc      0x188 build\kernel\components\drivers\sdio\mmc.o
 .text.mmc_send_op_cond
                0x60017584       0xc0 build\kernel\components\drivers\sdio\mmc.o
                0x60017584                mmc_send_op_cond
 .text.mmc_set_card_addr
                0x60017644       0x4c build\kernel\components\drivers\sdio\mmc.o
 .text.mmcsd_mmc_init_card
                0x60017690      0x210 build\kernel\components\drivers\sdio\mmc.o
 .text.init_mmc
                0x600178a0       0xc8 build\kernel\components\drivers\sdio\mmc.o
                0x600178a0                init_mmc
 .text.rt_poll_add
                0x60017968       0x30 build\kernel\components\drivers\serial\serial.o
 .text.serial_fops_rx_ind
                0x60017998       0x20 build\kernel\components\drivers\serial\serial.o
 .text.serial_fops_open
                0x600179b8       0xbc build\kernel\components\drivers\serial\serial.o
 .text.serial_fops_close
                0x60017a74       0x28 build\kernel\components\drivers\serial\serial.o
 .text.serial_fops_ioctl
                0x60017a9c       0x40 build\kernel\components\drivers\serial\serial.o
 .text.serial_fops_read
                0x60017adc       0x64 build\kernel\components\drivers\serial\serial.o
 .text.serial_fops_write
                0x60017b40       0x2c build\kernel\components\drivers\serial\serial.o
 .text.serial_fops_poll
                0x60017b6c       0x9c build\kernel\components\drivers\serial\serial.o
 .text._serial_poll_rx
                0x60017c08       0x80 build\kernel\components\drivers\serial\serial.o
 .text._serial_poll_tx
                0x60017c88       0x7c build\kernel\components\drivers\serial\serial.o
 .text._serial_int_rx
                0x60017d04       0xd8 build\kernel\components\drivers\serial\serial.o
 .text._serial_int_tx
                0x60017ddc       0xc4 build\kernel\components\drivers\serial\serial.o
 .text._serial_check_buffer_size
                0x60017ea0       0x38 build\kernel\components\drivers\serial\serial.o
 .text._serial_fifo_calc_recved_len
                0x60017ed8       0x88 build\kernel\components\drivers\serial\serial.o
 .text.rt_dma_calc_recved_len
                0x60017f60       0x18 build\kernel\components\drivers\serial\serial.o
 .text.rt_dma_recv_update_get_index
                0x60017f78       0xa4 build\kernel\components\drivers\serial\serial.o
 .text.rt_dma_recv_update_put_index
                0x6001801c       0xf8 build\kernel\components\drivers\serial\serial.o
 .text._serial_dma_rx
                0x60018114      0x198 build\kernel\components\drivers\serial\serial.o
 .text._serial_dma_tx
                0x600182ac       0x70 build\kernel\components\drivers\serial\serial.o
 .text.rt_serial_init
                0x6001831c       0x5c build\kernel\components\drivers\serial\serial.o
 .text.rt_serial_open
                0x60018378      0x36c build\kernel\components\drivers\serial\serial.o
 .text.rt_serial_close
                0x600186e4      0x1e0 build\kernel\components\drivers\serial\serial.o
 .text.rt_serial_read
                0x600188c4       0x84 build\kernel\components\drivers\serial\serial.o
 .text.rt_serial_write
                0x60018948       0x84 build\kernel\components\drivers\serial\serial.o
 .text.rt_serial_control
                0x600189cc      0x100 build\kernel\components\drivers\serial\serial.o
 .text.rt_hw_serial_register
                0x60018acc       0xa4 build\kernel\components\drivers\serial\serial.o
                0x60018acc                rt_hw_serial_register
 .text.rt_hw_serial_isr
                0x60018b70      0x264 build\kernel\components\drivers\serial\serial.o
                0x60018b70                rt_hw_serial_isr
 .text.rt_list_init
                0x60018dd4       0x24 build\kernel\components\drivers\src\completion.o
 .text.rt_list_insert_before
                0x60018df8       0x34 build\kernel\components\drivers\src\completion.o
 .text.rt_list_isempty
                0x60018e2c       0x24 build\kernel\components\drivers\src\completion.o
 .text.rt_completion_init
                0x60018e50       0x44 build\kernel\components\drivers\src\completion.o
                0x60018e50                rt_completion_init
 .text.rt_completion_wait
                0x60018e94       0xfc build\kernel\components\drivers\src\completion.o
                0x60018e94                rt_completion_wait
 .text.rt_completion_done
                0x60018f90       0x70 build\kernel\components\drivers\src\completion.o
                0x60018f90                rt_completion_done
 .text.rt_list_init
                0x60019000       0x24 build\kernel\components\drivers\src\dataqueue.o
 .text.rt_list_insert_before
                0x60019024       0x34 build\kernel\components\drivers\src\dataqueue.o
 .text.rt_list_isempty
                0x60019058       0x24 build\kernel\components\drivers\src\dataqueue.o
 .text.rt_data_queue_init
                0x6001907c       0xc0 build\kernel\components\drivers\src\dataqueue.o
                0x6001907c                rt_data_queue_init
 .text.rt_data_queue_push
                0x6001913c      0x1ec build\kernel\components\drivers\src\dataqueue.o
                0x6001913c                rt_data_queue_push
 .text.rt_data_queue_pop
                0x60019328      0x248 build\kernel\components\drivers\src\dataqueue.o
                0x60019328                rt_data_queue_pop
 .text.rt_data_queue_peek
                0x60019570       0xa4 build\kernel\components\drivers\src\dataqueue.o
                0x60019570                rt_data_queue_peek
 .text.rt_data_queue_reset
                0x60019614       0xfc build\kernel\components\drivers\src\dataqueue.o
                0x60019614                rt_data_queue_reset
 .text.rt_data_queue_deinit
                0x60019710       0x70 build\kernel\components\drivers\src\dataqueue.o
                0x60019710                rt_data_queue_deinit
 .text.rt_data_queue_len
                0x60019780       0xc8 build\kernel\components\drivers\src\dataqueue.o
                0x60019780                rt_data_queue_len
 .text.rt_list_init
                0x60019848       0x24 build\kernel\components\drivers\src\waitqueue.o
 .text.rt_list_insert_before
                0x6001986c       0x34 build\kernel\components\drivers\src\waitqueue.o
 .text.rt_list_remove
                0x600198a0       0x38 build\kernel\components\drivers\src\waitqueue.o
 .text.rt_list_isempty
                0x600198d8       0x24 build\kernel\components\drivers\src\waitqueue.o
 .text.rt_wqueue_add
                0x600198fc       0x30 build\kernel\components\drivers\src\waitqueue.o
                0x600198fc                rt_wqueue_add
 .text.rt_wqueue_remove
                0x6001992c       0x28 build\kernel\components\drivers\src\waitqueue.o
                0x6001992c                rt_wqueue_remove
 .text.__wqueue_default_wake
                0x60019954       0x18 build\kernel\components\drivers\src\waitqueue.o
                0x60019954                __wqueue_default_wake
 .text.rt_wqueue_wakeup
                0x6001996c       0x80 build\kernel\components\drivers\src\waitqueue.o
                0x6001996c                rt_wqueue_wakeup
 .text.rt_wqueue_wait
                0x600199ec       0xf8 build\kernel\components\drivers\src\waitqueue.o
                0x600199ec                rt_wqueue_wait
 .text.rt_list_init
                0x60019ae4       0x24 build\kernel\components\drivers\usb\usbhost\core\usbhost_core.o
 .text.rt_list_insert_before
                0x60019b08       0x34 build\kernel\components\drivers\usb\usbhost\core\usbhost_core.o
 .text.rt_list_remove
                0x60019b3c       0x38 build\kernel\components\drivers\usb\usbhost\core\usbhost_core.o
 .text.rt_usb_instance_add_pipe
                0x60019b74       0x50 build\kernel\components\drivers\usb\usbhost\core\usbhost_core.o
 .text.rt_usb_hcd_alloc_pipe
                0x60019bc4       0x64 build\kernel\components\drivers\usb\usbhost\core\usbhost_core.o
 .text.rt_usb_hcd_free_pipe
                0x60019c28       0x3c build\kernel\components\drivers\usb\usbhost\core\usbhost_core.o
 .text.rt_usb_hcd_setup_xfer
                0x60019c64       0x2c build\kernel\components\drivers\usb\usbhost\core\usbhost_core.o
 .text.rt_usbh_alloc_instance
                0x60019c90       0xe8 build\kernel\components\drivers\usb\usbhost\core\usbhost_core.o
                0x60019c90                rt_usbh_alloc_instance
 .text.rt_usbh_attatch_instance
                0x60019d78      0x4a0 build\kernel\components\drivers\usb\usbhost\core\usbhost_core.o
                0x60019d78                rt_usbh_attatch_instance
 .text.rt_usbh_detach_instance
                0x6001a218      0x12c build\kernel\components\drivers\usb\usbhost\core\usbhost_core.o
                0x6001a218                rt_usbh_detach_instance
 .text.rt_usbh_get_descriptor
                0x6001a344       0xa8 build\kernel\components\drivers\usb\usbhost\core\usbhost_core.o
                0x6001a344                rt_usbh_get_descriptor
 .text.rt_usbh_set_address
                0x6001a3ec       0x98 build\kernel\components\drivers\usb\usbhost\core\usbhost_core.o
                0x6001a3ec                rt_usbh_set_address
 .text.rt_usbh_set_configure
                0x6001a484       0x84 build\kernel\components\drivers\usb\usbhost\core\usbhost_core.o
                0x6001a484                rt_usbh_set_configure
 .text.rt_usbh_clear_feature
                0x6001a508       0x68 build\kernel\components\drivers\usb\usbhost\core\usbhost_core.o
                0x6001a508                rt_usbh_clear_feature
 .text.rt_usbh_get_interface_descriptor
                0x6001a570       0xb4 build\kernel\components\drivers\usb\usbhost\core\usbhost_core.o
                0x6001a570                rt_usbh_get_interface_descriptor
 .text.rt_usbh_get_endpoint_descriptor
                0x6001a624       0xd4 build\kernel\components\drivers\usb\usbhost\core\usbhost_core.o
                0x6001a624                rt_usbh_get_endpoint_descriptor
 .text.rt_usb_hcd_pipe_xfer
                0x6001a6f8       0x78 build\kernel\components\drivers\usb\usbhost\core\usbhost_core.o
                0x6001a6f8                rt_usb_hcd_pipe_xfer
 .text.rt_list_init
                0x6001a770       0x24 build\kernel\components\drivers\usb\usbhost\core\driver.o
 .text.rt_list_insert_after
                0x6001a794       0x34 build\kernel\components\drivers\usb\usbhost\core\driver.o
 .text.rt_usbh_class_driver_init
                0x6001a7c8       0x28 build\kernel\components\drivers\usb\usbhost\core\driver.o
                0x6001a7c8                rt_usbh_class_driver_init
 .text.rt_usbh_class_driver_register
                0x6001a7f0       0x44 build\kernel\components\drivers\usb\usbhost\core\driver.o
                0x6001a7f0                rt_usbh_class_driver_register
 .text.rt_usbh_class_driver_enable
                0x6001a834       0x3c build\kernel\components\drivers\usb\usbhost\core\driver.o
                0x6001a834                rt_usbh_class_driver_enable
 .text.rt_usbh_class_driver_disable
                0x6001a870       0x3c build\kernel\components\drivers\usb\usbhost\core\driver.o
                0x6001a870                rt_usbh_class_driver_disable
 .text.rt_usbh_class_driver_find
                0x6001a8ac       0x6c build\kernel\components\drivers\usb\usbhost\core\driver.o
                0x6001a8ac                rt_usbh_class_driver_find
 .text.rt_usb_host_init
                0x6001a918       0x78 build\kernel\components\drivers\usb\usbhost\core\usbhost.o
                0x6001a918                rt_usb_host_init
 .text.rt_usb_instance_find_pipe
                0x6001a990       0x44 build\kernel\components\drivers\usb\usbhost\core\hub.o
 .text.rt_usb_pipe_add_callback
                0x6001a9d4       0x1c build\kernel\components\drivers\usb\usbhost\core\hub.o
 .text.rt_usb_hcd_setup_xfer
                0x6001a9f0       0x2c build\kernel\components\drivers\usb\usbhost\core\hub.o
 .text.root_hub_ctrl
                0x6001aa1c      0x210 build\kernel\components\drivers\usb\usbhost\core\hub.o
 .text.rt_usbh_root_hub_connect_handler
                0x6001ac2c       0x94 build\kernel\components\drivers\usb\usbhost\core\hub.o
                0x6001ac2c                rt_usbh_root_hub_connect_handler
 .text.rt_usbh_root_hub_disconnect_handler
                0x6001acc0       0x6c build\kernel\components\drivers\usb\usbhost\core\hub.o
                0x6001acc0                rt_usbh_root_hub_disconnect_handler
 .text.rt_usbh_hub_get_descriptor
                0x6001ad2c       0x88 build\kernel\components\drivers\usb\usbhost\core\hub.o
                0x6001ad2c                rt_usbh_hub_get_descriptor
 .text.rt_usbh_hub_get_port_status
                0x6001adb4       0x9c build\kernel\components\drivers\usb\usbhost\core\hub.o
                0x6001adb4                rt_usbh_hub_get_port_status
 .text.rt_usbh_hub_clear_port_feature
                0x6001ae50       0x84 build\kernel\components\drivers\usb\usbhost\core\hub.o
                0x6001ae50                rt_usbh_hub_clear_port_feature
 .text.rt_usbh_hub_set_port_feature
                0x6001aed4       0x84 build\kernel\components\drivers\usb\usbhost\core\hub.o
                0x6001aed4                rt_usbh_hub_set_port_feature
 .text.rt_usbh_hub_reset_port
                0x6001af58       0x8c build\kernel\components\drivers\usb\usbhost\core\hub.o
                0x6001af58                rt_usbh_hub_reset_port
 .text.rt_usbh_hub_port_debounce
                0x6001afe4       0xa4 build\kernel\components\drivers\usb\usbhost\core\hub.o
                0x6001afe4                rt_usbh_hub_port_debounce
 .text.rt_usbh_hub_port_change
                0x6001b088      0x190 build\kernel\components\drivers\usb\usbhost\core\hub.o
 .text.rt_usbh_hub_irq
                0x6001b218       0x94 build\kernel\components\drivers\usb\usbhost\core\hub.o
 .text.rt_usbh_hub_enable
                0x6001b2ac      0x1f4 build\kernel\components\drivers\usb\usbhost\core\hub.o
 .text.rt_usbh_hub_disable
                0x6001b4a0       0x84 build\kernel\components\drivers\usb\usbhost\core\hub.o
 .text.rt_usbh_class_driver_hub
                0x6001b524       0x30 build\kernel\components\drivers\usb\usbhost\core\hub.o
                0x6001b524                rt_usbh_class_driver_hub
 .text.rt_usbh_hub_thread_entry
                0x6001b554       0x48 build\kernel\components\drivers\usb\usbhost\core\hub.o
 .text.rt_usbh_event_signal
                0x6001b59c       0x3c build\kernel\components\drivers\usb\usbhost\core\hub.o
                0x6001b59c                rt_usbh_event_signal
 .text.rt_usbh_hub_init
                0x6001b5d8       0x80 build\kernel\components\drivers\usb\usbhost\core\hub.o
                0x6001b5d8                rt_usbh_hub_init
 .text.rt_usb_instance_find_pipe
                0x6001b658       0x44 build\kernel\components\drivers\usb\usbhost\class\mass.o
 .text.rt_usb_hcd_setup_xfer
                0x6001b69c       0x2c build\kernel\components\drivers\usb\usbhost\class\mass.o
 .text._pipe_check
                0x6001b6c8       0xe8 build\kernel\components\drivers\usb\usbhost\class\mass.o
 .text.rt_usb_bulk_only_xfer
                0x6001b7b0      0x184 build\kernel\components\drivers\usb\usbhost\class\mass.o
 .text.rt_usbh_storage_get_max_lun
                0x6001b934       0xd0 build\kernel\components\drivers\usb\usbhost\class\mass.o
                0x6001b934                rt_usbh_storage_get_max_lun
 .text.rt_usbh_storage_reset
                0x6001ba04       0xb0 build\kernel\components\drivers\usb\usbhost\class\mass.o
                0x6001ba04                rt_usbh_storage_reset
 .text.rt_usbh_storage_read10
                0x6001bab4       0xdc build\kernel\components\drivers\usb\usbhost\class\mass.o
                0x6001bab4                rt_usbh_storage_read10
 .text.rt_usbh_storage_write10
                0x6001bb90       0xdc build\kernel\components\drivers\usb\usbhost\class\mass.o
                0x6001bb90                rt_usbh_storage_write10
 .text.rt_usbh_storage_request_sense
                0x6001bc6c       0x9c build\kernel\components\drivers\usb\usbhost\class\mass.o
                0x6001bc6c                rt_usbh_storage_request_sense
 .text.rt_usbh_storage_test_unit_ready
                0x6001bd08       0x94 build\kernel\components\drivers\usb\usbhost\class\mass.o
                0x6001bd08                rt_usbh_storage_test_unit_ready
 .text.rt_usbh_storage_inquiry
                0x6001bd9c       0x9c build\kernel\components\drivers\usb\usbhost\class\mass.o
                0x6001bd9c                rt_usbh_storage_inquiry
 .text.rt_usbh_storage_get_capacity
                0x6001be38       0x98 build\kernel\components\drivers\usb\usbhost\class\mass.o
                0x6001be38                rt_usbh_storage_get_capacity
 .text.rt_usbh_storage_enable
                0x6001bed0      0x144 build\kernel\components\drivers\usb\usbhost\class\mass.o
 .text.rt_usbh_storage_disable
                0x6001c014       0x84 build\kernel\components\drivers\usb\usbhost\class\mass.o
 .text.rt_usbh_class_driver_storage
                0x6001c098       0x30 build\kernel\components\drivers\usb\usbhost\class\mass.o
                0x6001c098                rt_usbh_class_driver_storage
 .text.udisk_get_id
                0x6001c0c8       0x70 build\kernel\components\drivers\usb\usbhost\class\udisk.o
 .text.udisk_free_id
                0x6001c138       0x4c build\kernel\components\drivers\usb\usbhost\class\udisk.o
 .text.rt_udisk_init
                0x6001c184       0x18 build\kernel\components\drivers\usb\usbhost\class\udisk.o
 .text.rt_udisk_read
                0x6001c19c       0x8c build\kernel\components\drivers\usb\usbhost\class\udisk.o
 .text.rt_udisk_write
                0x6001c228       0x90 build\kernel\components\drivers\usb\usbhost\class\udisk.o
 .text.rt_udisk_control
                0x6001c2b8       0x6c build\kernel\components\drivers\usb\usbhost\class\udisk.o
 .text.rt_udisk_run
                0x6001c324      0x604 build\kernel\components\drivers\usb\usbhost\class\udisk.o
                0x6001c324                rt_udisk_run
 .text.rt_udisk_stop
                0x6001c928       0xcc build\kernel\components\drivers\usb\usbhost\class\udisk.o
                0x6001c928                rt_udisk_stop
 .text.rt_list_init
                0x6001c9f4       0x24 build\kernel\components\drivers\usb\usbhost\class\hid.o
 .text.rt_list_insert_after
                0x6001ca18       0x34 build\kernel\components\drivers\usb\usbhost\class\hid.o
 .text.rt_usb_hcd_alloc_pipe
                0x6001ca4c       0x64 build\kernel\components\drivers\usb\usbhost\class\hid.o
 .text.rt_usb_hcd_free_pipe
                0x6001cab0       0x3c build\kernel\components\drivers\usb\usbhost\class\hid.o
 .text.rt_usb_hcd_setup_xfer
                0x6001caec       0x2c build\kernel\components\drivers\usb\usbhost\class\hid.o
 .text.rt_usbh_hid_set_idle
                0x6001cb18       0x8c build\kernel\components\drivers\usb\usbhost\class\hid.o
                0x6001cb18                rt_usbh_hid_set_idle
 .text.rt_usbh_hid_set_protocal
                0x6001cba4       0x80 build\kernel\components\drivers\usb\usbhost\class\hid.o
                0x6001cba4                rt_usbh_hid_set_protocal
 .text.rt_usbh_hid_protocal_register
                0x6001cc24       0x44 build\kernel\components\drivers\usb\usbhost\class\hid.o
                0x6001cc24                rt_usbh_hid_protocal_register
 .text.rt_usbh_hid_protocal_find
                0x6001cc68       0x44 build\kernel\components\drivers\usb\usbhost\class\hid.o
 .text.rt_usbh_hid_enable
                0x6001ccac      0x128 build\kernel\components\drivers\usb\usbhost\class\hid.o
 .text.rt_usbh_hid_disable
                0x6001cdd4       0x68 build\kernel\components\drivers\usb\usbhost\class\hid.o
 .text.rt_usbh_class_driver_hid
                0x6001ce3c       0x34 build\kernel\components\drivers\usb\usbhost\class\hid.o
                0x6001ce3c                rt_usbh_class_driver_hid
 .text.rt_usbh_hid_mouse_callback
                0x6001ce70       0x30 build\kernel\components\drivers\usb\usbhost\class\umouse.o
 .text.mouse_task
                0x6001cea0       0x50 build\kernel\components\drivers\usb\usbhost\class\umouse.o
                0x6001cea0                mouse_task
 .text.rt_usbh_hid_mouse_init
                0x6001cef0       0x7c build\kernel\components\drivers\usb\usbhost\class\umouse.o
 .text.rt_usbh_hid_protocal_mouse
                0x6001cf6c       0x30 build\kernel\components\drivers\usb\usbhost\class\umouse.o
                0x6001cf6c                rt_usbh_hid_protocal_mouse
 .text.finsh_get_prompt
                0x6001cf9c       0xc0 build\kernel\components\finsh\shell.o
                0x6001cf9c                finsh_get_prompt
 .text.finsh_set_prompt_mode
                0x6001d05c       0x48 build\kernel\components\finsh\shell.o
                0x6001d05c                finsh_set_prompt_mode
 .text.finsh_getchar
                0x6001d0a4       0x44 build\kernel\components\finsh\shell.o
 .text.shell_auto_complete
                0x6001d0e8       0x40 build\kernel\components\finsh\shell.o
 .text.shell_handle_history
                0x6001d128       0x34 build\kernel\components\finsh\shell.o
 .text.shell_push_history
                0x6001d15c      0x160 build\kernel\components\finsh\shell.o
 .text.finsh_thread_entry
                0x6001d2bc      0x5b8 build\kernel\components\finsh\shell.o
                0x6001d2bc                finsh_thread_entry
 .text.finsh_system_function_init
                0x6001d874       0x2c build\kernel\components\finsh\shell.o
                0x6001d874                finsh_system_function_init
 .text.finsh_system_var_init
                0x6001d8a0       0x2c build\kernel\components\finsh\shell.o
                0x6001d8a0                finsh_system_var_init
 .text.finsh_system_init
                0x6001d8cc       0xac build\kernel\components\finsh\shell.o
                0x6001d8cc                finsh_system_init
 .text.rt_list_isempty
                0x6001d978       0x24 build\kernel\components\finsh\cmd.o
 .text.rt_list_len
                0x6001d99c       0x38 build\kernel\components\finsh\cmd.o
 .text.hello    0x6001d9d4       0x14 build\kernel\components\finsh\cmd.o
                0x6001d9d4                hello
 .text.clear    0x6001d9e8       0x14 build\kernel\components\finsh\cmd.o
 .text.version  0x6001d9fc       0x10 build\kernel\components\finsh\cmd.o
                0x6001d9fc                version
 .text.object_split
                0x6001da0c       0x28 build\kernel\components\finsh\cmd.o
 .text.list_find_init
                0x6001da34       0x48 build\kernel\components\finsh\cmd.o
 .text.list_get_next
                0x6001da7c       0xc8 build\kernel\components\finsh\cmd.o
 .text.list_thread
                0x6001db44      0x208 build\kernel\components\finsh\cmd.o
                0x6001db44                list_thread
 .text.show_wait_queue
                0x6001dd4c       0x50 build\kernel\components\finsh\cmd.o
 .text.list_sem
                0x6001dd9c      0x12c build\kernel\components\finsh\cmd.o
                0x6001dd9c                list_sem
 .text.list_event
                0x6001dec8      0x118 build\kernel\components\finsh\cmd.o
                0x6001dec8                list_event
 .text.list_mutex
                0x6001dfe0       0xe8 build\kernel\components\finsh\cmd.o
                0x6001dfe0                list_mutex
 .text.list_mailbox
                0x6001e0c8      0x13c build\kernel\components\finsh\cmd.o
                0x6001e0c8                list_mailbox
 .text.list_msgqueue
                0x6001e204      0x12c build\kernel\components\finsh\cmd.o
                0x6001e204                list_msgqueue
 .text.list_memheap
                0x6001e330       0xd8 build\kernel\components\finsh\cmd.o
                0x6001e330                list_memheap
 .text.list_mempool
                0x6001e408      0x144 build\kernel\components\finsh\cmd.o
                0x6001e408                list_mempool
 .text.list_timer
                0x6001e54c      0x108 build\kernel\components\finsh\cmd.o
                0x6001e54c                list_timer
 .text.list_device
                0x6001e654       0xf0 build\kernel\components\finsh\cmd.o
                0x6001e654                list_device
 .text.list     0x6001e744       0x6c build\kernel\components\finsh\cmd.o
                0x6001e744                list
 .text.msh_is_used
                0x6001e7b0       0x10 build\kernel\components\finsh\msh.o
                0x6001e7b0                msh_is_used
 .text.msh_help
                0x6001e7c0       0x7c build\kernel\components\finsh\msh.o
                0x6001e7c0                msh_help
 .text.cmd_ps   0x6001e83c       0x18 build\kernel\components\finsh\msh.o
                0x6001e83c                cmd_ps
 .text.cmd_free
                0x6001e854       0x18 build\kernel\components\finsh\msh.o
                0x6001e854                cmd_free
 .text.msh_split
                0x6001e86c      0x170 build\kernel\components\finsh\msh.o
 .text.msh_get_cmd
                0x6001e9dc       0x80 build\kernel\components\finsh\msh.o
 .text._msh_exec_cmd
                0x6001ea5c       0xd4 build\kernel\components\finsh\msh.o
 .text.msh_exec
                0x6001eb30       0x98 build\kernel\components\finsh\msh.o
                0x6001eb30                msh_exec
 .text.str_common
                0x6001ebc8       0x4c build\kernel\components\finsh\msh.o
 .text.msh_auto_complete_path
                0x6001ec14      0x228 build\kernel\components\finsh\msh.o
                0x6001ec14                msh_auto_complete_path
 .text.msh_auto_complete
                0x6001ee3c      0x104 build\kernel\components\finsh\msh.o
                0x6001ee3c                msh_auto_complete
 .text.msh_readline
                0x6001ef40       0xa4 build\kernel\components\finsh\msh_file.o
 .text.msh_exec_script
                0x6001efe4      0x17c build\kernel\components\finsh\msh_file.o
                0x6001efe4                msh_exec_script
 .text.cmd_ls   0x6001f160       0x34 build\kernel\components\finsh\msh_file.o
                0x6001f160                cmd_ls
 .text.cmd_cp   0x6001f194       0x44 build\kernel\components\finsh\msh_file.o
                0x6001f194                cmd_cp
 .text.cmd_mv   0x6001f1d8      0x138 build\kernel\components\finsh\msh_file.o
                0x6001f1d8                cmd_mv
 .text.cmd_cat  0x6001f310       0x58 build\kernel\components\finsh\msh_file.o
                0x6001f310                cmd_cat
 .text.directory_delete_for_msh
                0x6001f368      0x13c build\kernel\components\finsh\msh_file.o
 .text.cmd_rm   0x6001f4a4      0x1c4 build\kernel\components\finsh\msh_file.o
                0x6001f4a4                cmd_rm
 .text.cmd_cd   0x6001f668       0x58 build\kernel\components\finsh\msh_file.o
                0x6001f668                cmd_cd
 .text.cmd_pwd  0x6001f6c0       0x24 build\kernel\components\finsh\msh_file.o
                0x6001f6c0                cmd_pwd
 .text.cmd_mkdir
                0x6001f6e4       0x40 build\kernel\components\finsh\msh_file.o
                0x6001f6e4                cmd_mkdir
 .text.cmd_mkfs
                0x6001f724       0x90 build\kernel\components\finsh\msh_file.o
                0x6001f724                cmd_mkfs
 .text.cmd_df   0x6001f7b4       0x70 build\kernel\components\finsh\msh_file.o
                0x6001f7b4                cmd_df
 .text.cmd_echo
                0x6001f824       0x94 build\kernel\components\finsh\msh_file.o
                0x6001f824                cmd_echo
 .text.__isleap
                0x6001f8b8       0x60 build\kernel\components\libc\compilers\common\time.o
                0x6001f8b8                __isleap
 .text.gmtime_r
                0x6001f918      0x160 build\kernel\components\libc\compilers\common\time.o
                0x6001f918                gmtime_r
 .text.localtime_r
                0x6001fa78       0x1c build\kernel\components\libc\compilers\common\time.o
                0x6001fa78                localtime_r
 .text.localtime
                0x6001fa94       0x20 build\kernel\components\libc\compilers\common\time.o
                0x6001fa94                localtime
 .text.mktime   0x6001fab4      0x264 build\kernel\components\libc\compilers\common\time.o
                0x6001fab4                mktime
 .text.time     0x6001fd18       0x28 build\kernel\components\libc\compilers\common\time.o
                0x6001fd18                time
 .text.libc_system_init
                0x6001fd40       0x3c build\kernel\components\libc\compilers\newlib\libc.o
                0x6001fd40                libc_system_init
 .text.libc_stdio_set_console
                0x6001fd7c      0x100 build\kernel\components\libc\compilers\newlib\stdio.o
                0x6001fd7c                libc_stdio_set_console
 .text.libc_stdio_get_console
                0x6001fe7c       0x28 build\kernel\components\libc\compilers\newlib\stdio.o
                0x6001fe7c                libc_stdio_get_console
 .text.__errno  0x6001fea4       0x10 build\kernel\components\libc\compilers\newlib\syscalls.o
                0x6001fea4                __errno
 .text._close_r
                0x6001feb4       0x1c build\kernel\components\libc\compilers\newlib\syscalls.o
                0x6001feb4                _close_r
 .text._fstat_r
                0x6001fed0       0x24 build\kernel\components\libc\compilers\newlib\syscalls.o
                0x6001fed0                _fstat_r
 .text._isatty_r
                0x6001fef4       0x30 build\kernel\components\libc\compilers\newlib\syscalls.o
                0x6001fef4                _isatty_r
 .text._lseek_r
                0x6001ff24       0x24 build\kernel\components\libc\compilers\newlib\syscalls.o
                0x6001ff24                _lseek_r
 .text._open_r  0x6001ff48       0x24 build\kernel\components\libc\compilers\newlib\syscalls.o
                0x6001ff48                _open_r
 .text._read_r  0x6001ff6c       0x24 build\kernel\components\libc\compilers\newlib\syscalls.o
                0x6001ff6c                _read_r
 .text._write_r
                0x6001ff90       0x24 build\kernel\components\libc\compilers\newlib\syscalls.o
                0x6001ff90                _write_r
 .text._malloc_r
                0x6001ffb4       0x28 build\kernel\components\libc\compilers\newlib\syscalls.o
                0x6001ffb4                _malloc_r
 .text._realloc_r
                0x6001ffdc       0x2c build\kernel\components\libc\compilers\newlib\syscalls.o
                0x6001ffdc                _realloc_r
 .text._calloc_r
                0x60020008       0x2c build\kernel\components\libc\compilers\newlib\syscalls.o
                0x60020008                _calloc_r
 .text._free_r  0x60020034       0x18 build\kernel\components\libc\compilers\newlib\syscalls.o
                0x60020034                _free_r
 .text.abort    0x6002004c       0x34 build\kernel\components\libc\compilers\newlib\syscalls.o
                0x6002004c                abort
 .text.SCB_EnableICache
                0x60020080       0x40 libraries\MIMXRT1050\MIMXRT1052\system_MIMXRT1052.o
 .text.SCB_EnableDCache
                0x600200c0       0x80 libraries\MIMXRT1050\MIMXRT1052\system_MIMXRT1052.o
 .text.SystemInit
                0x60020140       0xe8 libraries\MIMXRT1050\MIMXRT1052\system_MIMXRT1052.o
                0x60020140                SystemInit
 .text.SystemInitHook
                0x60020228       0x10 libraries\MIMXRT1050\MIMXRT1052\system_MIMXRT1052.o
                0x60020228                SystemInitHook
 .text.CLOCK_GetOscFreq
                0x60020238       0x30 libraries\MIMXRT1050\MIMXRT1052\drivers\fsl_clock.o
 .text.CLOCK_IsPllBypassed
                0x60020268       0x34 libraries\MIMXRT1050\MIMXRT1052\drivers\fsl_clock.o
 .text.CLOCK_IsPllEnabled
                0x6002029c       0x3c libraries\MIMXRT1050\MIMXRT1052\drivers\fsl_clock.o
 .text.CLOCK_GetPllBypassRefClk
                0x600202d8       0x34 libraries\MIMXRT1050\MIMXRT1052\drivers\fsl_clock.o
 .text.CLOCK_InitExternalClk
                0x6002030c       0x78 libraries\MIMXRT1050\MIMXRT1052\drivers\fsl_clock.o
                0x6002030c                CLOCK_InitExternalClk
 .text.CLOCK_SwitchOsc
                0x60020384       0x34 libraries\MIMXRT1050\MIMXRT1052\drivers\fsl_clock.o
                0x60020384                CLOCK_SwitchOsc
 .text.CLOCK_InitRcOsc24M
                0x600203b8       0x24 libraries\MIMXRT1050\MIMXRT1052\drivers\fsl_clock.o
                0x600203b8                CLOCK_InitRcOsc24M
 .text.CLOCK_EnableUsbhs0Clock
                0x600203dc       0x7c libraries\MIMXRT1050\MIMXRT1052\drivers\fsl_clock.o
                0x600203dc                CLOCK_EnableUsbhs0Clock
 .text.CLOCK_EnableUsbhs1Clock
                0x60020458       0x7c libraries\MIMXRT1050\MIMXRT1052\drivers\fsl_clock.o
                0x60020458                CLOCK_EnableUsbhs1Clock
 .text.CLOCK_EnableUsbhs0PhyPllClock
                0x600204d4       0x70 libraries\MIMXRT1050\MIMXRT1052\drivers\fsl_clock.o
                0x600204d4                CLOCK_EnableUsbhs0PhyPllClock
 .text.CLOCK_InitArmPll
                0x60020544       0x68 libraries\MIMXRT1050\MIMXRT1052\drivers\fsl_clock.o
                0x60020544                CLOCK_InitArmPll
 .text.CLOCK_InitUsb1Pll
                0x600205ac       0x68 libraries\MIMXRT1050\MIMXRT1052\drivers\fsl_clock.o
                0x600205ac                CLOCK_InitUsb1Pll
 .text.CLOCK_InitUsb2Pll
                0x60020614       0x68 libraries\MIMXRT1050\MIMXRT1052\drivers\fsl_clock.o
                0x60020614                CLOCK_InitUsb2Pll
 .text.CLOCK_DeinitAudioPll
                0x6002067c       0x1c libraries\MIMXRT1050\MIMXRT1052\drivers\fsl_clock.o
                0x6002067c                CLOCK_DeinitAudioPll
 .text.CLOCK_DeinitVideoPll
                0x60020698       0x1c libraries\MIMXRT1050\MIMXRT1052\drivers\fsl_clock.o
                0x60020698                CLOCK_DeinitVideoPll
 .text.CLOCK_DeinitEnetPll
                0x600206b4       0x1c libraries\MIMXRT1050\MIMXRT1052\drivers\fsl_clock.o
                0x600206b4                CLOCK_DeinitEnetPll
 .text.CLOCK_GetPllFreq
                0x600206d0      0x2f4 libraries\MIMXRT1050\MIMXRT1052\drivers\fsl_clock.o
                0x600206d0                CLOCK_GetPllFreq
 .text.CLOCK_GetSysPfdFreq
                0x600209c4       0xac libraries\MIMXRT1050\MIMXRT1052\drivers\fsl_clock.o
                0x600209c4                CLOCK_GetSysPfdFreq
 .text.CLOCK_EnableUsbhs1PhyPllClock
                0x60020a70       0x54 libraries\MIMXRT1050\MIMXRT1052\drivers\fsl_clock.o
                0x60020a70                CLOCK_EnableUsbhs1PhyPllClock
 .text.SCB_CleanDCache_by_Addr
                0x60020ac4       0x54 libraries\MIMXRT1050\MIMXRT1052\drivers\fsl_cache.o
 .text.SCB_CleanInvalidateDCache_by_Addr
                0x60020b18       0x54 libraries\MIMXRT1050\MIMXRT1052\drivers\fsl_cache.o
 .text.L1CACHE_CleanDCacheByRange
                0x60020b6c       0x34 libraries\MIMXRT1050\MIMXRT1052\drivers\fsl_cache.o
 .text.L1CACHE_CleanInvalidateDCacheByRange
                0x60020ba0       0x34 libraries\MIMXRT1050\MIMXRT1052\drivers\fsl_cache.o
 .text.DCACHE_CleanByRange
                0x60020bd4       0x1c libraries\MIMXRT1050\MIMXRT1052\drivers\fsl_cache.o
                0x60020bd4                DCACHE_CleanByRange
 .text.DCACHE_CleanInvalidateByRange
                0x60020bf0       0x1c libraries\MIMXRT1050\MIMXRT1052\drivers\fsl_cache.o
                0x60020bf0                DCACHE_CleanInvalidateByRange
 .text.CLOCK_ControlGate
                0x60020c0c       0x74 libraries\MIMXRT1050\MIMXRT1052\drivers\fsl_gpio.o
 .text.CLOCK_EnableClock
                0x60020c80       0x20 libraries\MIMXRT1050\MIMXRT1052\drivers\fsl_gpio.o
 .text.GPIO_SetPinInterruptConfig
                0x60020ca0       0x24 libraries\MIMXRT1050\MIMXRT1052\drivers\fsl_gpio.o
 .text.GPIO_GetInstance
                0x60020cc4       0x58 libraries\MIMXRT1050\MIMXRT1052\drivers\fsl_gpio.o
 .text.GPIO_PinInit
                0x60020d1c       0x8c libraries\MIMXRT1050\MIMXRT1052\drivers\fsl_gpio.o
                0x60020d1c                GPIO_PinInit
 .text.GPIO_PinWrite
                0x60020da8       0x64 libraries\MIMXRT1050\MIMXRT1052\drivers\fsl_gpio.o
                0x60020da8                GPIO_PinWrite
 .text.GPIO_PinSetInterruptConfig
                0x60020e0c       0xfc libraries\MIMXRT1050\MIMXRT1052\drivers\fsl_gpio.o
                0x60020e0c                GPIO_PinSetInterruptConfig
 .text.CLOCK_ControlGate
                0x60020f08       0x74 libraries\MIMXRT1050\MIMXRT1052\drivers\fsl_lpuart.o
 .text.CLOCK_EnableClock
                0x60020f7c       0x20 libraries\MIMXRT1050\MIMXRT1052\drivers\fsl_lpuart.o
 .text.LPUART_SoftwareReset
                0x60020f9c       0x2c libraries\MIMXRT1050\MIMXRT1052\drivers\fsl_lpuart.o
 .text.LPUART_GetInstance
                0x60020fc8       0x58 libraries\MIMXRT1050\MIMXRT1052\drivers\fsl_lpuart.o
                0x60020fc8                LPUART_GetInstance
 .text.LPUART_Init
                0x60021020      0x324 libraries\MIMXRT1050\MIMXRT1052\drivers\fsl_lpuart.o
                0x60021020                LPUART_Init
 .text.LPUART_GetDefaultConfig
                0x60021344       0x98 libraries\MIMXRT1050\MIMXRT1052\drivers\fsl_lpuart.o
                0x60021344                LPUART_GetDefaultConfig
 .text.LPUART_EnableInterrupts
                0x600213dc       0x54 libraries\MIMXRT1050\MIMXRT1052\drivers\fsl_lpuart.o
                0x600213dc                LPUART_EnableInterrupts
 .text.LPUART_GetStatusFlags
                0x60021430       0x2c libraries\MIMXRT1050\MIMXRT1052\drivers\fsl_lpuart.o
                0x60021430                LPUART_GetStatusFlags
 .text.LPUART_ClearStatusFlags
                0x6002145c       0xa4 libraries\MIMXRT1050\MIMXRT1052\drivers\fsl_lpuart.o
                0x6002145c                LPUART_ClearStatusFlags
 .text.LPUART1_DriverIRQHandler
                0x60021500       0x24 libraries\MIMXRT1050\MIMXRT1052\drivers\fsl_lpuart.o
                0x60021500                LPUART1_DriverIRQHandler
 .text.LPUART2_DriverIRQHandler
                0x60021524       0x24 libraries\MIMXRT1050\MIMXRT1052\drivers\fsl_lpuart.o
                0x60021524                LPUART2_DriverIRQHandler
 .text.LPUART3_DriverIRQHandler
                0x60021548       0x24 libraries\MIMXRT1050\MIMXRT1052\drivers\fsl_lpuart.o
                0x60021548                LPUART3_DriverIRQHandler
 .text.LPUART4_DriverIRQHandler
                0x6002156c       0x24 libraries\MIMXRT1050\MIMXRT1052\drivers\fsl_lpuart.o
                0x6002156c                LPUART4_DriverIRQHandler
 .text.LPUART5_DriverIRQHandler
                0x60021590       0x24 libraries\MIMXRT1050\MIMXRT1052\drivers\fsl_lpuart.o
                0x60021590                LPUART5_DriverIRQHandler
 .text.LPUART6_DriverIRQHandler
                0x600215b4       0x24 libraries\MIMXRT1050\MIMXRT1052\drivers\fsl_lpuart.o
                0x600215b4                LPUART6_DriverIRQHandler
 .text.LPUART7_DriverIRQHandler
                0x600215d8       0x24 libraries\MIMXRT1050\MIMXRT1052\drivers\fsl_lpuart.o
                0x600215d8                LPUART7_DriverIRQHandler
 .text.LPUART8_DriverIRQHandler
                0x600215fc       0x24 libraries\MIMXRT1050\MIMXRT1052\drivers\fsl_lpuart.o
                0x600215fc                LPUART8_DriverIRQHandler
 .text.__NVIC_DisableIRQ
                0x60021620       0x44 libraries\MIMXRT1050\MIMXRT1052\drivers\fsl_usdhc.o
 .text.CLOCK_ControlGate
                0x60021664       0x74 libraries\MIMXRT1050\MIMXRT1052\drivers\fsl_usdhc.o
 .text.CLOCK_EnableClock
                0x600216d8       0x20 libraries\MIMXRT1050\MIMXRT1052\drivers\fsl_usdhc.o
 .text.DisableIRQ
                0x600216f8       0x2c libraries\MIMXRT1050\MIMXRT1052\drivers\fsl_usdhc.o
 .text.USDHC_EnableInternalDMA
                0x60021724       0x44 libraries\MIMXRT1050\MIMXRT1052\drivers\fsl_usdhc.o
 .text.USDHC_EnableInterruptStatus
                0x60021768       0x24 libraries\MIMXRT1050\MIMXRT1052\drivers\fsl_usdhc.o
 .text.USDHC_DisableInterruptStatus
                0x6002178c       0x24 libraries\MIMXRT1050\MIMXRT1052\drivers\fsl_usdhc.o
 .text.USDHC_EnableInterruptSignal
                0x600217b0       0x24 libraries\MIMXRT1050\MIMXRT1052\drivers\fsl_usdhc.o
 .text.USDHC_DisableInterruptSignal
                0x600217d4       0x24 libraries\MIMXRT1050\MIMXRT1052\drivers\fsl_usdhc.o
 .text.USDHC_GetInterruptStatusFlags
                0x600217f8       0x18 libraries\MIMXRT1050\MIMXRT1052\drivers\fsl_usdhc.o
 .text.USDHC_ClearInterruptStatusFlags
                0x60021810       0x1c libraries\MIMXRT1050\MIMXRT1052\drivers\fsl_usdhc.o
 .text.USDHC_WriteData
                0x6002182c       0x1c libraries\MIMXRT1050\MIMXRT1052\drivers\fsl_usdhc.o
 .text.USDHC_ReadData
                0x60021848       0x18 libraries\MIMXRT1050\MIMXRT1052\drivers\fsl_usdhc.o
 .text.USDHC_GetInstance
                0x60021860       0x54 libraries\MIMXRT1050\MIMXRT1052\drivers\fsl_usdhc.o
 .text.USDHC_SetTransferInterrupt
                0x600218b4       0x60 libraries\MIMXRT1050\MIMXRT1052\drivers\fsl_usdhc.o
 .text.USDHC_SetDataTransferConfig
                0x60021914      0x19c libraries\MIMXRT1050\MIMXRT1052\drivers\fsl_usdhc.o
 .text.USDHC_ReceiveCommandResponse
                0x60021ab0       0xe4 libraries\MIMXRT1050\MIMXRT1052\drivers\fsl_usdhc.o
 .text.USDHC_ReadDataPort
                0x60021b94       0xb0 libraries\MIMXRT1050\MIMXRT1052\drivers\fsl_usdhc.o
 .text.USDHC_ReadByDataPortBlocking
                0x60021c44       0xf8 libraries\MIMXRT1050\MIMXRT1052\drivers\fsl_usdhc.o
 .text.USDHC_WriteDataPort
                0x60021d3c       0xb4 libraries\MIMXRT1050\MIMXRT1052\drivers\fsl_usdhc.o
 .text.USDHC_WriteByDataPortBlocking
                0x60021df0      0x10c libraries\MIMXRT1050\MIMXRT1052\drivers\fsl_usdhc.o
 .text.USDHC_SendCommand
                0x60021efc      0x108 libraries\MIMXRT1050\MIMXRT1052\drivers\fsl_usdhc.o
                0x60021efc                USDHC_SendCommand
 .text.USDHC_WaitCommandDone
                0x60022004       0x9c libraries\MIMXRT1050\MIMXRT1052\drivers\fsl_usdhc.o
 .text.USDHC_TransferDataBlocking
                0x600220a0       0xc4 libraries\MIMXRT1050\MIMXRT1052\drivers\fsl_usdhc.o
 .text.USDHC_Init
                0x60022164      0x154 libraries\MIMXRT1050\MIMXRT1052\drivers\fsl_usdhc.o
                0x60022164                USDHC_Init
 .text.USDHC_Reset
                0x600222b8       0x54 libraries\MIMXRT1050\MIMXRT1052\drivers\fsl_usdhc.o
                0x600222b8                USDHC_Reset
 .text.USDHC_SetSdClock
                0x6002230c      0x1c0 libraries\MIMXRT1050\MIMXRT1052\drivers\fsl_usdhc.o
                0x6002230c                USDHC_SetSdClock
 .text.USDHC_SetADMA1Descriptor
                0x600224cc      0x1a4 libraries\MIMXRT1050\MIMXRT1052\drivers\fsl_usdhc.o
                0x600224cc                USDHC_SetADMA1Descriptor
 .text.USDHC_SetADMA2Descriptor
                0x60022670      0x1f8 libraries\MIMXRT1050\MIMXRT1052\drivers\fsl_usdhc.o
                0x60022670                USDHC_SetADMA2Descriptor
 .text.USDHC_SetInternalDmaConfig
                0x60022868       0xcc libraries\MIMXRT1050\MIMXRT1052\drivers\fsl_usdhc.o
                0x60022868                USDHC_SetInternalDmaConfig
 .text.USDHC_SetAdmaTableConfig
                0x60022934      0x120 libraries\MIMXRT1050\MIMXRT1052\drivers\fsl_usdhc.o
                0x60022934                USDHC_SetAdmaTableConfig
 .text.USDHC_TransferBlocking
                0x60022a54      0x17c libraries\MIMXRT1050\MIMXRT1052\drivers\fsl_usdhc.o
                0x60022a54                USDHC_TransferBlocking
 .text.USDHC1_DriverIRQHandler
                0x60022bd0       0x24 libraries\MIMXRT1050\MIMXRT1052\drivers\fsl_usdhc.o
                0x60022bd0                USDHC1_DriverIRQHandler
 .text.USDHC2_DriverIRQHandler
                0x60022bf4       0x24 libraries\MIMXRT1050\MIMXRT1052\drivers\fsl_usdhc.o
                0x60022bf4                USDHC2_DriverIRQHandler
 .text.CLOCK_ControlGate
                0x60022c18       0x74 libraries\MIMXRT1050\MIMXRT1052\drivers\fsl_enc.o
 .text.CLOCK_EnableClock
                0x60022c8c       0x20 libraries\MIMXRT1050\MIMXRT1052\drivers\fsl_enc.o
 .text.CLOCK_DisableClock
                0x60022cac       0x20 libraries\MIMXRT1050\MIMXRT1052\drivers\fsl_enc.o
 .text.ENC_GetInstance
                0x60022ccc       0x58 libraries\MIMXRT1050\MIMXRT1052\drivers\fsl_enc.o
 .text.ENC_Init
                0x60022d24      0x1a0 libraries\MIMXRT1050\MIMXRT1052\drivers\fsl_enc.o
                0x60022d24                ENC_Init
 .text.ENC_Deinit
                0x60022ec4       0x28 libraries\MIMXRT1050\MIMXRT1052\drivers\fsl_enc.o
                0x60022ec4                ENC_Deinit
 .text.ENC_GetDefaultConfig
                0x60022eec       0x9c libraries\MIMXRT1050\MIMXRT1052\drivers\fsl_enc.o
                0x60022eec                ENC_GetDefaultConfig
 .text.ENC_DoSoftwareLoadInitialPositionValue
                0x60022f88       0x30 libraries\MIMXRT1050\MIMXRT1052\drivers\fsl_enc.o
                0x60022f88                ENC_DoSoftwareLoadInitialPositionValue
 .text.ENC_SetInitialPositionValue
                0x60022fb8       0x28 libraries\MIMXRT1050\MIMXRT1052\drivers\fsl_enc.o
                0x60022fb8                ENC_SetInitialPositionValue
 .text.ENC_GetPositionValue
                0x60022fe0       0x34 libraries\MIMXRT1050\MIMXRT1052\drivers\fsl_enc.o
                0x60022fe0                ENC_GetPositionValue
 .text.XBARA_SetSignalsConnection
                0x60023014       0x70 libraries\MIMXRT1050\MIMXRT1052\drivers\fsl_xbara.o
                0x60023014                XBARA_SetSignalsConnection
 .text.OSA_MemoryAllocate
                0x60023084       0x2c libraries\MIMXRT1050\MIMXRT1052\drivers\fsl_os_abstraction_rtthread.o
                0x60023084                OSA_MemoryAllocate
 .text.OSA_MemoryFree
                0x600230b0       0x18 libraries\MIMXRT1050\MIMXRT1052\drivers\fsl_os_abstraction_rtthread.o
                0x600230b0                OSA_MemoryFree
 .text.OSA_EnterCritical
                0x600230c8       0x20 libraries\MIMXRT1050\MIMXRT1052\drivers\fsl_os_abstraction_rtthread.o
                0x600230c8                OSA_EnterCritical
 .text.OSA_ExitCritical
                0x600230e8       0x20 libraries\MIMXRT1050\MIMXRT1052\drivers\fsl_os_abstraction_rtthread.o
                0x600230e8                OSA_ExitCritical
 .text.OSA_MutexCreate
                0x60023108       0x54 libraries\MIMXRT1050\MIMXRT1052\drivers\fsl_os_abstraction_rtthread.o
                0x60023108                OSA_MutexCreate
 .text.OSA_MutexLock
                0x6002315c       0x6c libraries\MIMXRT1050\MIMXRT1052\drivers\fsl_os_abstraction_rtthread.o
                0x6002315c                OSA_MutexLock
 .text.OSA_MutexUnlock
                0x600231c8       0x40 libraries\MIMXRT1050\MIMXRT1052\drivers\fsl_os_abstraction_rtthread.o
                0x600231c8                OSA_MutexUnlock
 .text.OSA_MutexDestroy
                0x60023208       0x40 libraries\MIMXRT1050\MIMXRT1052\drivers\fsl_os_abstraction_rtthread.o
                0x60023208                OSA_MutexDestroy
 .text.OSA_EventCreate
                0x60023248       0x60 libraries\MIMXRT1050\MIMXRT1052\drivers\fsl_os_abstraction_rtthread.o
                0x60023248                OSA_EventCreate
 .text.OSA_EventSet
                0x600232a8       0x58 libraries\MIMXRT1050\MIMXRT1052\drivers\fsl_os_abstraction_rtthread.o
                0x600232a8                OSA_EventSet
 .text.OSA_EventWait
                0x60023300       0xdc libraries\MIMXRT1050\MIMXRT1052\drivers\fsl_os_abstraction_rtthread.o
                0x60023300                OSA_EventWait
 .text.OSA_EventDestroy
                0x600233dc       0x50 libraries\MIMXRT1050\MIMXRT1052\drivers\fsl_os_abstraction_rtthread.o
                0x600233dc                OSA_EventDestroy
 .text.__NVIC_GetPriorityGrouping
                0x6002342c       0x1c libraries\drivers\drv_gpio.o
 .text.__NVIC_EnableIRQ
                0x60023448       0x3c libraries\drivers\drv_gpio.o
 .text.__NVIC_SetPriority
                0x60023484       0x54 libraries\drivers\drv_gpio.o
 .text.NVIC_EncodePriority
                0x600234d8       0x64 libraries\drivers\drv_gpio.o
 .text.CLOCK_ControlGate
                0x6002353c       0x74 libraries\drivers\drv_gpio.o
 .text.CLOCK_EnableClock
                0x600235b0       0x20 libraries\drivers\drv_gpio.o
 .text.EnableIRQ
                0x600235d0       0x2c libraries\drivers\drv_gpio.o
 .text.GPIO_PinReadPadStatus
                0x600235fc       0x44 libraries\drivers\drv_gpio.o
 .text.GPIO_PortEnableInterrupts
                0x60023640       0x24 libraries\drivers\drv_gpio.o
 .text.GPIO_PortDisableInterrupts
                0x60023664       0x24 libraries\drivers\drv_gpio.o
 .text.GPIO_PortGetInterruptFlags
                0x60023688       0x18 libraries\drivers\drv_gpio.o
 .text.GPIO_PortClearInterruptFlags
                0x600236a0       0x1c libraries\drivers\drv_gpio.o
 .text.IOMUXC_SetPinMux
                0x600236bc       0x3c libraries\drivers\drv_gpio.o
 .text.IOMUXC_SetPinConfig
                0x600236f8       0x28 libraries\drivers\drv_gpio.o
 .text.imxrt_isr
                0x60023720       0xc0 libraries\drivers\drv_gpio.o
 .text.GPIO1_Combined_0_15_IRQHandler
                0x600237e0       0x20 libraries\drivers\drv_gpio.o
                0x600237e0                GPIO1_Combined_0_15_IRQHandler
 .text.GPIO1_Combined_16_31_IRQHandler
                0x60023800       0x20 libraries\drivers\drv_gpio.o
                0x60023800                GPIO1_Combined_16_31_IRQHandler
 .text.GPIO2_Combined_0_15_IRQHandler
                0x60023820       0x20 libraries\drivers\drv_gpio.o
                0x60023820                GPIO2_Combined_0_15_IRQHandler
 .text.GPIO2_Combined_16_31_IRQHandler
                0x60023840       0x20 libraries\drivers\drv_gpio.o
                0x60023840                GPIO2_Combined_16_31_IRQHandler
 .text.GPIO3_Combined_0_15_IRQHandler
                0x60023860       0x20 libraries\drivers\drv_gpio.o
                0x60023860                GPIO3_Combined_0_15_IRQHandler
 .text.GPIO3_Combined_16_31_IRQHandler
                0x60023880       0x20 libraries\drivers\drv_gpio.o
                0x60023880                GPIO3_Combined_16_31_IRQHandler
 .text.GPIO4_Combined_0_15_IRQHandler
                0x600238a0       0x20 libraries\drivers\drv_gpio.o
                0x600238a0                GPIO4_Combined_0_15_IRQHandler
 .text.GPIO4_Combined_16_31_IRQHandler
                0x600238c0       0x20 libraries\drivers\drv_gpio.o
                0x600238c0                GPIO4_Combined_16_31_IRQHandler
 .text.GPIO5_Combined_0_15_IRQHandler
                0x600238e0       0x20 libraries\drivers\drv_gpio.o
                0x600238e0                GPIO5_Combined_0_15_IRQHandler
 .text.imxrt_pin_mode
                0x60023900      0x1cc libraries\drivers\drv_gpio.o
 .text.imxrt_pin_read
                0x60023acc       0x6c libraries\drivers\drv_gpio.o
 .text.imxrt_pin_write
                0x60023b38       0x68 libraries\drivers\drv_gpio.o
 .text.imxrt_pin_attach_irq
                0x60023ba0      0x128 libraries\drivers\drv_gpio.o
 .text.imxrt_pin_detach_irq
                0x60023cc8       0xd4 libraries\drivers\drv_gpio.o
 .text.imxrt_pin_irq_enable
                0x60023d9c      0x174 libraries\drivers\drv_gpio.o
 .text.rt_hw_pin_init
                0x60023f10       0x28 libraries\drivers\drv_gpio.o
                0x60023f10                rt_hw_pin_init
 .text.__NVIC_GetPriorityGrouping
                0x60023f38       0x1c libraries\drivers\drv_uart.o
 .text.__NVIC_EnableIRQ
                0x60023f54       0x3c libraries\drivers\drv_uart.o
 .text.__NVIC_DisableIRQ
                0x60023f90       0x44 libraries\drivers\drv_uart.o
 .text.__NVIC_SetPriority
                0x60023fd4       0x54 libraries\drivers\drv_uart.o
 .text.NVIC_EncodePriority
                0x60024028       0x64 libraries\drivers\drv_uart.o
 .text.CLOCK_GetMux
                0x6002408c       0x44 libraries\drivers\drv_uart.o
 .text.CLOCK_GetDiv
                0x600240d0       0x44 libraries\drivers\drv_uart.o
 .text.CLOCK_GetOscFreq
                0x60024114       0x30 libraries\drivers\drv_uart.o
 .text.EnableIRQ
                0x60024144       0x2c libraries\drivers\drv_uart.o
 .text.DisableIRQ
                0x60024170       0x2c libraries\drivers\drv_uart.o
 .text.LPUART_WriteByte
                0x6002419c       0x20 libraries\drivers\drv_uart.o
 .text.LPUART_ReadByte
                0x600241bc       0x6c libraries\drivers\drv_uart.o
 .text.uart_get_dma_config
                0x60024228       0x10 libraries\drivers\drv_uart.o
 .text.LPUART1_IRQHandler
                0x60024238       0x1c libraries\drivers\drv_uart.o
                0x60024238                LPUART1_IRQHandler
 .text.uart_isr
                0x60024254       0x6c libraries\drivers\drv_uart.o
 .text.GetUartSrcFreq
                0x600242c0       0x64 libraries\drivers\drv_uart.o
                0x600242c0                GetUartSrcFreq
 .text.imxrt_configure
                0x60024324       0xd4 libraries\drivers\drv_uart.o
 .text.imxrt_control
                0x600243f8       0x8c libraries\drivers\drv_uart.o
 .text.imxrt_putc
                0x60024484       0x5c libraries\drivers\drv_uart.o
 .text.imxrt_getc
                0x600244e0       0x5c libraries\drivers\drv_uart.o
 .text.rt_hw_uart_init
                0x6002453c       0xbc libraries\drivers\drv_uart.o
                0x6002453c                rt_hw_uart_init
 .text.CLOCK_SetDiv
                0x600245f8       0xa8 libraries\drivers\drv_sdio.o
 .text.CLOCK_GetDiv
                0x600246a0       0x44 libraries\drivers\drv_sdio.o
 .text.CLOCK_ControlGate
                0x600246e4       0x74 libraries\drivers\drv_sdio.o
 .text.CLOCK_EnableClock
                0x60024758       0x20 libraries\drivers\drv_sdio.o
 .text.USDHC_GetPresentStatusFlags
                0x60024778       0x18 libraries\drivers\drv_sdio.o
 .text.USDHC_SetDataBusWidth
                0x60024790       0x30 libraries\drivers\drv_sdio.o
 .text._mmcsd_gpio_init
                0x600247c0       0x18 libraries\drivers\drv_sdio.o
 .text.SDMMCHOST_ErrorRecovery
                0x600247d8       0x4c libraries\drivers\drv_sdio.o
 .text._mmcsd_host_init
                0x60024824       0x4c libraries\drivers\drv_sdio.o
 .text._mmcsd_clk_init
                0x60024870       0x28 libraries\drivers\drv_sdio.o
 .text._mmcsd_isr_init
                0x60024898       0x14 libraries\drivers\drv_sdio.o
 .text._mmc_request
                0x600248ac      0x2dc libraries\drivers\drv_sdio.o
 .text._mmc_set_iocfg
                0x60024b88       0xfc libraries\drivers\drv_sdio.o
 .text._imxrt_mci_init
                0x60024c84       0xe8 libraries\drivers\drv_sdio.o
                0x60024c84                _imxrt_mci_init
 .text.imxrt_mci_init
                0x60024d6c       0x10 libraries\drivers\drv_sdio.o
                0x60024d6c                imxrt_mci_init
 .text.pulse_encoder_init
                0x60024d7c       0x38 libraries\drivers\drv_pulse_encoder.o
                0x60024d7c                pulse_encoder_init
 .text.pulse_encoder_clear_count
                0x60024db4       0x20 libraries\drivers\drv_pulse_encoder.o
                0x60024db4                pulse_encoder_clear_count
 .text.pulse_encoder_get_count
                0x60024dd4       0x20 libraries\drivers\drv_pulse_encoder.o
                0x60024dd4                pulse_encoder_get_count
 .text.pulse_encoder_control
                0x60024df4       0x4c libraries\drivers\drv_pulse_encoder.o
                0x60024df4                pulse_encoder_control
 .text.rt_hw_pulse_encoder_init
                0x60024e40       0xe8 libraries\drivers\drv_pulse_encoder.o
                0x60024e40                rt_hw_pulse_encoder_init
 .text.USB_EhciPhyGetBase
                0x60024f28       0xac libraries\drivers\usb\phy\usb_phy.o
                0x60024f28                USB_EhciPhyGetBase
 .text.USB_EhciPhyInit
                0x60024fd4       0x9c libraries\drivers\usb\phy\usb_phy.o
                0x60024fd4                USB_EhciPhyInit
 .text.USB_EhcihostPhyDisconnectDetectCmd
                0x60025070       0x4c libraries\drivers\usb\phy\usb_phy.o
                0x60025070                USB_EhcihostPhyDisconnectDetectCmd
 .text.__NVIC_EnableIRQ
                0x600250bc       0x3c libraries\drivers\drv_usbh.o
 .text.__NVIC_SetPriority
                0x600250f8       0x54 libraries\drivers\drv_usbh.o
 .text.EnableIRQ
                0x6002514c       0x2c libraries\drivers\drv_usbh.o
 .text._imxrt_usb_host_send_callback
                0x60025178       0x2c libraries\drivers\drv_usbh.o
 .text.USB_HostClockInit
                0x600251a4       0x68 libraries\drivers\drv_usbh.o
 .text.USB_HostIsrEnable
                0x6002520c       0x48 libraries\drivers\drv_usbh.o
                0x6002520c                USB_HostIsrEnable
 .text.USB_OTG1_IRQHandler
                0x60025254       0x20 libraries\drivers\drv_usbh.o
                0x60025254                USB_OTG1_IRQHandler
 .text._ehci0_reset_port
                0x60025274       0x18 libraries\drivers\drv_usbh.o
 .text._ehci0_pipe_xfer
                0x6002528c      0x33c libraries\drivers\drv_usbh.o
 .text._ehci0_get_free_pipe_index
                0x600255c8       0x5c libraries\drivers\drv_usbh.o
 .text._ehci0_free_pipe_index
                0x60025624       0x38 libraries\drivers\drv_usbh.o
 .text._ehci0_open_pipe
                0x6002565c       0x98 libraries\drivers\drv_usbh.o
 .text._ehci0_close_pipe
                0x600256f4       0x40 libraries\drivers\drv_usbh.o
 .text.usb0_host_callback
                0x60025734       0xc4 libraries\drivers\drv_usbh.o
 .text._ehci0_usbh_thread
                0x600257f8       0x18 libraries\drivers\drv_usbh.o
 .text._ehci0_usbh_init
                0x60025810       0x7c libraries\drivers\drv_usbh.o
 .text.USB_OTG2_IRQHandler
                0x6002588c       0x20 libraries\drivers\drv_usbh.o
                0x6002588c                USB_OTG2_IRQHandler
 .text._ehci1_reset_port
                0x600258ac       0x18 libraries\drivers\drv_usbh.o
 .text._ehci1_pipe_xfer
                0x600258c4      0x358 libraries\drivers\drv_usbh.o
 .text._ehci1_get_free_pipe_index
                0x60025c1c       0x5c libraries\drivers\drv_usbh.o
 .text._ehci1_free_pipe_index
                0x60025c78       0x38 libraries\drivers\drv_usbh.o
 .text._ehci1_open_pipe
                0x60025cb0       0xa0 libraries\drivers\drv_usbh.o
 .text._ehci1_close_pipe
                0x60025d50       0x44 libraries\drivers\drv_usbh.o
 .text.usb1_host_callback
                0x60025d94       0xcc libraries\drivers\drv_usbh.o
 .text._ehci1_usbh_thread
                0x60025e60       0x1c libraries\drivers\drv_usbh.o
 .text._ehci1_usbh_init
                0x60025e7c       0x7c libraries\drivers\drv_usbh.o
 .text.imxrt_usbh_register
                0x60025ef8       0xf8 libraries\drivers\drv_usbh.o
                0x60025ef8                imxrt_usbh_register
 .text.USB_HostEnumerationTransferCallback
                0x60025ff0      0x194 libraries\drivers\usb\host\usb_host_devices.o
 .text.USB_HostProcessState
                0x60026184      0x1f8 libraries\drivers\usb\host\usb_host_devices.o
 .text.USB_HostProcessCallback
                0x6002637c      0x1fc libraries\drivers\usb\host\usb_host_devices.o
 .text.USB_HostNotifyDevice
                0x60026578       0x5c libraries\drivers\usb\host\usb_host_devices.o
 .text.USB_HostAllocateDeviceAddress
                0x600265d4       0xa8 libraries\drivers\usb\host\usb_host_devices.o
 .text.USB_HostReleaseDeviceAddress
                0x6002667c       0x64 libraries\drivers\usb\host\usb_host_devices.o
 .text.USB_HostRemoveDeviceInstance
                0x600266e0       0x78 libraries\drivers\usb\host\usb_host_devices.o
 .text.USB_HostReleaseDeviceResource
                0x60026758       0xa4 libraries\drivers\usb\host\usb_host_devices.o
 .text.USB_HostParseDeviceConfigurationDescriptor
                0x600267fc      0x3e4 libraries\drivers\usb\host\usb_host_devices.o
 .text.USB_HostAttachDevice
                0x60026be0      0x1e8 libraries\drivers\usb\host\usb_host_devices.o
                0x60026be0                USB_HostAttachDevice
 .text.USB_HostDetachDevice
                0x60026dc8       0x5c libraries\drivers\usb\host\usb_host_devices.o
                0x60026dc8                USB_HostDetachDevice
 .text.USB_HostDetachDeviceInternal
                0x60026e24       0x80 libraries\drivers\usb\host\usb_host_devices.o
                0x60026e24                USB_HostDetachDeviceInternal
 .text.USB_HostValidateDevice
                0x60026ea4       0x4c libraries\drivers\usb\host\usb_host_devices.o
                0x60026ea4                USB_HostValidateDevice
 .text.USB_HostControlBus
                0x60026ef0       0x40 libraries\drivers\usb\host\usb_host_devices.o
 .text.USB_HostCloseDeviceInterface
                0x60026f30      0x160 libraries\drivers\usb\host\usb_host_devices.o
                0x60026f30                USB_HostCloseDeviceInterface
 .text.USB_HostBandwidthComputeTime
                0x60027090      0x128 libraries\drivers\usb\host\usb_host_ehci.o
 .text.USB_HostBandwidthFslsHostComputeCurrent
                0x600271b8       0x78 libraries\drivers\usb\host\usb_host_ehci.o
 .text.USB_HostBandwidthHsHostComputeCurrentFsls
                0x60027230      0x1e0 libraries\drivers\usb\host\usb_host_ehci.o
 .text.USB_HostBandwidthHsHostComputeCurrentHsAll
                0x60027410      0x1ac libraries\drivers\usb\host\usb_host_ehci.o
 .text.USB_HostBandwidthHsHostAllocateHsCommon
                0x600275bc       0xf0 libraries\drivers\usb\host\usb_host_ehci.o
 .text.USB_HostBandwidthHsHostAllocateInterrupt
                0x600276ac      0x408 libraries\drivers\usb\host\usb_host_ehci.o
 .text.USB_HostBandwidthFslsHostAllocate
                0x60027ab4      0x114 libraries\drivers\usb\host\usb_host_ehci.o
 .text.USB_HostEhciGet2PowerValue
                0x60027bc8       0x88 libraries\drivers\usb\host\usb_host_ehci.o
 .text.USB_HostEhciZeroMem
                0x60027c50       0x30 libraries\drivers\usb\host\usb_host_ehci.o
 .text.USB_HostEhciDelay
                0x60027c80       0x48 libraries\drivers\usb\host\usb_host_ehci.o
 .text.USB_HostEhciStartAsync
                0x60027cc8       0x80 libraries\drivers\usb\host\usb_host_ehci.o
                0x60027cc8                USB_HostEhciStartAsync
 .text.USB_HostEhciStopAsync
                0x60027d48       0x64 libraries\drivers\usb\host\usb_host_ehci.o
 .text.USB_HostEhciStartPeriodic
                0x60027dac       0x94 libraries\drivers\usb\host\usb_host_ehci.o
                0x60027dac                USB_HostEhciStartPeriodic
 .text.USB_HostEhciStopPeriodic
                0x60027e40       0x64 libraries\drivers\usb\host\usb_host_ehci.o
 .text.USB_HostEhciQhQtdListInit
                0x60027ea4      0x3a8 libraries\drivers\usb\host\usb_host_ehci.o
 .text.USB_HostEhciQtdListRelease
                0x6002824c       0xc8 libraries\drivers\usb\host\usb_host_ehci.o
 .text.USB_HostEhciQhQtdListDeinit
                0x60028314      0x104 libraries\drivers\usb\host\usb_host_ehci.o
 .text.USB_HostEhciTransferQtdListDeinit
                0x60028418      0x180 libraries\drivers\usb\host\usb_host_ehci.o
 .text.USB_HostEhciQhInit
                0x60028598      0x1d8 libraries\drivers\usb\host\usb_host_ehci.o
 .text.USB_HostEhciQhDeinit
                0x60028770       0x4c libraries\drivers\usb\host\usb_host_ehci.o
 .text.USB_HostEhciAddQhToFrame
                0x600287bc       0xa0 libraries\drivers\usb\host\usb_host_ehci.o
 .text.USB_HostEhciRemoveFromFrame
                0x6002885c       0x64 libraries\drivers\usb\host\usb_host_ehci.o
 .text.USB_HostEhciOpenControlBulk
                0x600288c0       0x44 libraries\drivers\usb\host\usb_host_ehci.o
 .text.USB_HostEhciCloseControlBulk
                0x60028904       0xcc libraries\drivers\usb\host\usb_host_ehci.o
 .text.USB_HostEhciOpenInterrupt
                0x600289d0       0x8c libraries\drivers\usb\host\usb_host_ehci.o
 .text.USB_HostEhciCloseInterrupt
                0x60028a5c       0x60 libraries\drivers\usb\host\usb_host_ehci.o
 .text.USB_HostEhciResetIP
                0x60028abc       0x50 libraries\drivers\usb\host\usb_host_ehci.o
 .text.USB_HostEhciStartIP
                0x60028b0c       0xa4 libraries\drivers\usb\host\usb_host_ehci.o
 .text.USB_HostEhciCancelPipe
                0x60028bb0       0x88 libraries\drivers\usb\host\usb_host_ehci.o
 .text.USB_HostEhciControlBus
                0x60028c38       0xd4 libraries\drivers\usb\host\usb_host_ehci.o
                0x60028c38                USB_HostEhciControlBus
 .text.USB_HostEhciTransactionDone
                0x60028d0c      0x2c4 libraries\drivers\usb\host\usb_host_ehci.o
                0x60028d0c                USB_HostEhciTransactionDone
 .text.USB_HostEhciPortChange
                0x60028fd0      0x1d0 libraries\drivers\usb\host\usb_host_ehci.o
                0x60028fd0                USB_HostEhciPortChange
 .text.USB_HostEhciTimer0
                0x600291a0      0x1c0 libraries\drivers\usb\host\usb_host_ehci.o
                0x600291a0                USB_HostEhciTimer0
 .text.USB_HostEhciCreate
                0x60029360      0x314 libraries\drivers\usb\host\usb_host_ehci.o
                0x60029360                USB_HostEhciCreate
 .text.USB_HostEhciDestory
                0x60029674       0x74 libraries\drivers\usb\host\usb_host_ehci.o
                0x60029674                USB_HostEhciDestory
 .text.USB_HostEhciOpenPipe
                0x600296e8      0x228 libraries\drivers\usb\host\usb_host_ehci.o
                0x600296e8                USB_HostEhciOpenPipe
 .text.USB_HostEhciClosePipe
                0x60029910       0xd0 libraries\drivers\usb\host\usb_host_ehci.o
                0x60029910                USB_HostEhciClosePipe
 .text.USB_HostEhciWritePipe
                0x600299e0       0x48 libraries\drivers\usb\host\usb_host_ehci.o
                0x600299e0                USB_HostEhciWritePipe
 .text.USB_HostEhciReadpipe
                0x60029a28       0x20 libraries\drivers\usb\host\usb_host_ehci.o
                0x60029a28                USB_HostEhciReadpipe
 .text.USB_HostEhciIoctl
                0x60029a48      0x14c libraries\drivers\usb\host\usb_host_ehci.o
                0x60029a48                USB_HostEhciIoctl
 .text.USB_HostEhciTaskFunction
                0x60029b94       0xf4 libraries\drivers\usb\host\usb_host_ehci.o
                0x60029b94                USB_HostEhciTaskFunction
 .text.USB_HostEhciIsrFunction
                0x60029c88       0xc8 libraries\drivers\usb\host\usb_host_ehci.o
                0x60029c88                USB_HostEhciIsrFunction
 .text.USB_HostCh9RequestCommon
                0x60029d50       0x58 libraries\drivers\usb\host\usb_host_framework.o
                0x60029d50                USB_HostCh9RequestCommon
 .text.USB_HostStandardSetAddress
                0x60029da8       0x34 libraries\drivers\usb\host\usb_host_framework.o
                0x60029da8                USB_HostStandardSetAddress
 .text.USB_HostStandardSetGetDescriptor
                0x60029ddc       0x50 libraries\drivers\usb\host\usb_host_framework.o
                0x60029ddc                USB_HostStandardSetGetDescriptor
 .text.USB_HostGetInstance
                0x60029e2c       0xf4 libraries\drivers\usb\host\usb_host_hci.o
 .text.USB_HostReleaseInstance
                0x60029f20       0x2c libraries\drivers\usb\host\usb_host_hci.o
 .text.USB_HostGetControllerInterface
                0x60029f4c       0x30 libraries\drivers\usb\host\usb_host_hci.o
 .text.USB_HostInit
                0x60029f7c      0x168 libraries\drivers\usb\host\usb_host_hci.o
                0x60029f7c                USB_HostInit
 .text.USB_HostOpenPipe
                0x6002a0e4       0x44 libraries\drivers\usb\host\usb_host_hci.o
                0x6002a0e4                USB_HostOpenPipe
 .text.USB_HostClosePipe
                0x6002a128       0x44 libraries\drivers\usb\host\usb_host_hci.o
                0x6002a128                USB_HostClosePipe
 .text.USB_HostSendSetup
                0x6002a16c       0x94 libraries\drivers\usb\host\usb_host_hci.o
                0x6002a16c                USB_HostSendSetup
 .text.USB_HostCancelTransfer
                0x6002a200       0x50 libraries\drivers\usb\host\usb_host_hci.o
                0x6002a200                USB_HostCancelTransfer
 .text.USB_HostMallocTransfer
                0x6002a250       0x78 libraries\drivers\usb\host\usb_host_hci.o
                0x6002a250                USB_HostMallocTransfer
 .text.USB_HostFreeTransfer
                0x6002a2c8       0x58 libraries\drivers\usb\host\usb_host_hci.o
                0x6002a2c8                USB_HostFreeTransfer
 .text.USB_HostHelperGetPeripheralInformation
                0x6002a320      0x13c libraries\drivers\usb\host\usb_host_hci.o
                0x6002a320                USB_HostHelperGetPeripheralInformation
 .text.__assert_func
                0x6002a45c       0x3c c:/rtthread/env/tools/gnu_gcc/arm_gcc/mingw/bin/../lib/gcc/arm-none-eabi/5.4.1/../../../../arm-none-eabi/lib/armv7e-m/fpu\libc.a(lib_a-assert.o)
                0x6002a45c                __assert_func
 .text._fclose_r
                0x6002a498       0x84 c:/rtthread/env/tools/gnu_gcc/arm_gcc/mingw/bin/../lib/gcc/arm-none-eabi/5.4.1/../../../../arm-none-eabi/lib/armv7e-m/fpu\libc.a(lib_a-fclose.o)
                0x6002a498                _fclose_r
 .text.fclose   0x6002a51c       0x10 c:/rtthread/env/tools/gnu_gcc/arm_gcc/mingw/bin/../lib/gcc/arm-none-eabi/5.4.1/../../../../arm-none-eabi/lib/armv7e-m/fpu\libc.a(lib_a-fclose.o)
                0x6002a51c                fclose
 .text.__sflush_r
                0x6002a52c      0x148 c:/rtthread/env/tools/gnu_gcc/arm_gcc/mingw/bin/../lib/gcc/arm-none-eabi/5.4.1/../../../../arm-none-eabi/lib/armv7e-m/fpu\libc.a(lib_a-fflush.o)
                0x6002a52c                __sflush_r
 .text._fflush_r
                0x6002a674       0x2c c:/rtthread/env/tools/gnu_gcc/arm_gcc/mingw/bin/../lib/gcc/arm-none-eabi/5.4.1/../../../../arm-none-eabi/lib/armv7e-m/fpu\libc.a(lib_a-fflush.o)
                0x6002a674                _fflush_r
 .text.fflush   0x6002a6a0       0x24 c:/rtthread/env/tools/gnu_gcc/arm_gcc/mingw/bin/../lib/gcc/arm-none-eabi/5.4.1/../../../../arm-none-eabi/lib/armv7e-m/fpu\libc.a(lib_a-fflush.o)
                0x6002a6a0                fflush
 .text.fileno   0x6002a6c4       0x34 c:/rtthread/env/tools/gnu_gcc/arm_gcc/mingw/bin/../lib/gcc/arm-none-eabi/5.4.1/../../../../arm-none-eabi/lib/armv7e-m/fpu\libc.a(lib_a-fileno.o)
                0x6002a6c4                fileno
 .text._cleanup_r
                0x6002a6f8        0xc c:/rtthread/env/tools/gnu_gcc/arm_gcc/mingw/bin/../lib/gcc/arm-none-eabi/5.4.1/../../../../arm-none-eabi/lib/armv7e-m/fpu\libc.a(lib_a-findfp.o)
                0x6002a6f8                _cleanup_r
 .text.__sinit.part.1
                0x6002a704       0xf0 c:/rtthread/env/tools/gnu_gcc/arm_gcc/mingw/bin/../lib/gcc/arm-none-eabi/5.4.1/../../../../arm-none-eabi/lib/armv7e-m/fpu\libc.a(lib_a-findfp.o)
 .text.__sfmoreglue
                0x6002a7f4       0x30 c:/rtthread/env/tools/gnu_gcc/arm_gcc/mingw/bin/../lib/gcc/arm-none-eabi/5.4.1/../../../../arm-none-eabi/lib/armv7e-m/fpu\libc.a(lib_a-findfp.o)
                0x6002a7f4                __sfmoreglue
 .text.__sfp    0x6002a824       0x88 c:/rtthread/env/tools/gnu_gcc/arm_gcc/mingw/bin/../lib/gcc/arm-none-eabi/5.4.1/../../../../arm-none-eabi/lib/armv7e-m/fpu\libc.a(lib_a-findfp.o)
                0x6002a824                __sfp
 .text.__sinit  0x6002a8ac        0xc c:/rtthread/env/tools/gnu_gcc/arm_gcc/mingw/bin/../lib/gcc/arm-none-eabi/5.4.1/../../../../arm-none-eabi/lib/armv7e-m/fpu\libc.a(lib_a-findfp.o)
                0x6002a8ac                __sinit
 .text.__sfp_lock_acquire
                0x6002a8b8        0x4 c:/rtthread/env/tools/gnu_gcc/arm_gcc/mingw/bin/../lib/gcc/arm-none-eabi/5.4.1/../../../../arm-none-eabi/lib/armv7e-m/fpu\libc.a(lib_a-findfp.o)
                0x6002a8b8                __sfp_lock_acquire
 .text.__sfp_lock_release
                0x6002a8bc        0x4 c:/rtthread/env/tools/gnu_gcc/arm_gcc/mingw/bin/../lib/gcc/arm-none-eabi/5.4.1/../../../../arm-none-eabi/lib/armv7e-m/fpu\libc.a(lib_a-findfp.o)
                0x6002a8bc                __sfp_lock_release
 .text.fiprintf
                0x6002a8c0       0x28 c:/rtthread/env/tools/gnu_gcc/arm_gcc/mingw/bin/../lib/gcc/arm-none-eabi/5.4.1/../../../../arm-none-eabi/lib/armv7e-m/fpu\libc.a(lib_a-fiprintf.o)
                0x6002a8c0                fiprintf
 .text._fopen_r
                0x6002a8e8       0x8c c:/rtthread/env/tools/gnu_gcc/arm_gcc/mingw/bin/../lib/gcc/arm-none-eabi/5.4.1/../../../../arm-none-eabi/lib/armv7e-m/fpu\libc.a(lib_a-fopen.o)
                0x6002a8e8                _fopen_r
 .text.fopen    0x6002a974       0x10 c:/rtthread/env/tools/gnu_gcc/arm_gcc/mingw/bin/../lib/gcc/arm-none-eabi/5.4.1/../../../../arm-none-eabi/lib/armv7e-m/fpu\libc.a(lib_a-fopen.o)
                0x6002a974                fopen
 .text._fseek_r
                0x6002a984        0x4 c:/rtthread/env/tools/gnu_gcc/arm_gcc/mingw/bin/../lib/gcc/arm-none-eabi/5.4.1/../../../../arm-none-eabi/lib/armv7e-m/fpu\libc.a(lib_a-fseek.o)
                0x6002a984                _fseek_r
 .text._fseeko_r
                0x6002a988      0x2c0 c:/rtthread/env/tools/gnu_gcc/arm_gcc/mingw/bin/../lib/gcc/arm-none-eabi/5.4.1/../../../../arm-none-eabi/lib/armv7e-m/fpu\libc.a(lib_a-fseeko.o)
                0x6002a988                _fseeko_r
 .text._fwalk   0x6002ac48       0x4c c:/rtthread/env/tools/gnu_gcc/arm_gcc/mingw/bin/../lib/gcc/arm-none-eabi/5.4.1/../../../../arm-none-eabi/lib/armv7e-m/fpu\libc.a(lib_a-fwalk.o)
                0x6002ac48                _fwalk
 .text._fwalk_reent
                0x6002ac94       0x54 c:/rtthread/env/tools/gnu_gcc/arm_gcc/mingw/bin/../lib/gcc/arm-none-eabi/5.4.1/../../../../arm-none-eabi/lib/armv7e-m/fpu\libc.a(lib_a-fwalk.o)
                0x6002ac94                _fwalk_reent
 .text.__swhatbuf_r
                0x6002ace8       0x60 c:/rtthread/env/tools/gnu_gcc/arm_gcc/mingw/bin/../lib/gcc/arm-none-eabi/5.4.1/../../../../arm-none-eabi/lib/armv7e-m/fpu\libc.a(lib_a-makebuf.o)
                0x6002ace8                __swhatbuf_r
 .text.__smakebuf_r
                0x6002ad48       0x88 c:/rtthread/env/tools/gnu_gcc/arm_gcc/mingw/bin/../lib/gcc/arm-none-eabi/5.4.1/../../../../arm-none-eabi/lib/armv7e-m/fpu\libc.a(lib_a-makebuf.o)
                0x6002ad48                __smakebuf_r
 .text.malloc   0x6002add0       0x10 c:/rtthread/env/tools/gnu_gcc/arm_gcc/mingw/bin/../lib/gcc/arm-none-eabi/5.4.1/../../../../arm-none-eabi/lib/armv7e-m/fpu\libc.a(lib_a-malloc.o)
                0x6002add0                malloc
 .text.memcmp   0x6002ade0       0x64 c:/rtthread/env/tools/gnu_gcc/arm_gcc/mingw/bin/../lib/gcc/arm-none-eabi/5.4.1/../../../../arm-none-eabi/lib/armv7e-m/fpu\libc.a(lib_a-memcmp.o)
                0x6002ade0                memcmp
 .text.memset   0x6002ae44       0x9c c:/rtthread/env/tools/gnu_gcc/arm_gcc/mingw/bin/../lib/gcc/arm-none-eabi/5.4.1/../../../../arm-none-eabi/lib/armv7e-m/fpu\libc.a(lib_a-memset.o)
                0x6002ae44                memset
 .text.putenv   0x6002aee0       0x10 c:/rtthread/env/tools/gnu_gcc/arm_gcc/mingw/bin/../lib/gcc/arm-none-eabi/5.4.1/../../../../arm-none-eabi/lib/armv7e-m/fpu\libc.a(lib_a-putenv.o)
                0x6002aee0                putenv
 .text._putenv_r
                0x6002aef0       0x44 c:/rtthread/env/tools/gnu_gcc/arm_gcc/mingw/bin/../lib/gcc/arm-none-eabi/5.4.1/../../../../arm-none-eabi/lib/armv7e-m/fpu\libc.a(lib_a-putenv_r.o)
                0x6002aef0                _putenv_r
 .text.lflush   0x6002af34       0x14 c:/rtthread/env/tools/gnu_gcc/arm_gcc/mingw/bin/../lib/gcc/arm-none-eabi/5.4.1/../../../../arm-none-eabi/lib/armv7e-m/fpu\libc.a(lib_a-refill.o)
 .text.__srefill_r
                0x6002af48      0x114 c:/rtthread/env/tools/gnu_gcc/arm_gcc/mingw/bin/../lib/gcc/arm-none-eabi/5.4.1/../../../../arm-none-eabi/lib/armv7e-m/fpu\libc.a(lib_a-refill.o)
                0x6002af48                __srefill_r
 .text.__srget_r
                0x6002b05c       0x34 c:/rtthread/env/tools/gnu_gcc/arm_gcc/mingw/bin/../lib/gcc/arm-none-eabi/5.4.1/../../../../arm-none-eabi/lib/armv7e-m/fpu\libc.a(lib_a-rget.o)
                0x6002b05c                __srget_r
 .text._setenv_r
                0x6002b090      0x188 c:/rtthread/env/tools/gnu_gcc/arm_gcc/mingw/bin/../lib/gcc/arm-none-eabi/5.4.1/../../../../arm-none-eabi/lib/armv7e-m/fpu\libc.a(lib_a-setenv_r.o)
                0x6002b090                _setenv_r
 .text.setvbuf  0x6002b218      0x150 c:/rtthread/env/tools/gnu_gcc/arm_gcc/mingw/bin/../lib/gcc/arm-none-eabi/5.4.1/../../../../arm-none-eabi/lib/armv7e-m/fpu\libc.a(lib_a-setvbuf.o)
                0x6002b218                setvbuf
 .text.snprintf
                0x6002b368       0x9c c:/rtthread/env/tools/gnu_gcc/arm_gcc/mingw/bin/../lib/gcc/arm-none-eabi/5.4.1/../../../../arm-none-eabi/lib/armv7e-m/fpu\libc.a(lib_a-snprintf.o)
                0x6002b368                snprintf
 .text.__sread  0x6002b404       0x24 c:/rtthread/env/tools/gnu_gcc/arm_gcc/mingw/bin/../lib/gcc/arm-none-eabi/5.4.1/../../../../arm-none-eabi/lib/armv7e-m/fpu\libc.a(lib_a-stdio.o)
                0x6002b404                __sread
 .text.__swrite
                0x6002b428       0x3c c:/rtthread/env/tools/gnu_gcc/arm_gcc/mingw/bin/../lib/gcc/arm-none-eabi/5.4.1/../../../../arm-none-eabi/lib/armv7e-m/fpu\libc.a(lib_a-stdio.o)
                0x6002b428                __swrite
 .text.__sseek  0x6002b464       0x20 c:/rtthread/env/tools/gnu_gcc/arm_gcc/mingw/bin/../lib/gcc/arm-none-eabi/5.4.1/../../../../arm-none-eabi/lib/armv7e-m/fpu\libc.a(lib_a-stdio.o)
                0x6002b464                __sseek
 .text.__sclose
                0x6002b484        0x8 c:/rtthread/env/tools/gnu_gcc/arm_gcc/mingw/bin/../lib/gcc/arm-none-eabi/5.4.1/../../../../arm-none-eabi/lib/armv7e-m/fpu\libc.a(lib_a-stdio.o)
                0x6002b484                __sclose
 .text.strchr   0x6002b48c       0xd0 c:/rtthread/env/tools/gnu_gcc/arm_gcc/mingw/bin/../lib/gcc/arm-none-eabi/5.4.1/../../../../arm-none-eabi/lib/armv7e-m/fpu\libc.a(lib_a-strchr.o)
                0x6002b48c                strchr
 .text.strcpy   0x6002b55c       0xbc c:/rtthread/env/tools/gnu_gcc/arm_gcc/mingw/bin/../lib/gcc/arm-none-eabi/5.4.1/../../../../arm-none-eabi/lib/armv7e-m/fpu\libc.a(lib_a-strcpy.o)
                0x6002b55c                strcpy
 .text._strdup_r
                0x6002b618       0x28 c:/rtthread/env/tools/gnu_gcc/arm_gcc/mingw/bin/../lib/gcc/arm-none-eabi/5.4.1/../../../../arm-none-eabi/lib/armv7e-m/fpu\libc.a(lib_a-strdup_r.o)
                0x6002b618                _strdup_r
 .text.strncmp  0x6002b640       0xa0 c:/rtthread/env/tools/gnu_gcc/arm_gcc/mingw/bin/../lib/gcc/arm-none-eabi/5.4.1/../../../../arm-none-eabi/lib/armv7e-m/fpu\libc.a(lib_a-strncmp.o)
                0x6002b640                strncmp
 .text.strncpy  0x6002b6e0       0x68 c:/rtthread/env/tools/gnu_gcc/arm_gcc/mingw/bin/../lib/gcc/arm-none-eabi/5.4.1/../../../../arm-none-eabi/lib/armv7e-m/fpu\libc.a(lib_a-strncpy.o)
                0x6002b6e0                strncpy
 .text.strrchr  0x6002b748       0x24 c:/rtthread/env/tools/gnu_gcc/arm_gcc/mingw/bin/../lib/gcc/arm-none-eabi/5.4.1/../../../../arm-none-eabi/lib/armv7e-m/fpu\libc.a(lib_a-strrchr.o)
                0x6002b748                strrchr
 .text.critical_factorization
                0x6002b76c       0xb8 c:/rtthread/env/tools/gnu_gcc/arm_gcc/mingw/bin/../lib/gcc/arm-none-eabi/5.4.1/../../../../arm-none-eabi/lib/armv7e-m/fpu\libc.a(lib_a-strstr.o)
 .text.two_way_long_needle
                0x6002b824      0x200 c:/rtthread/env/tools/gnu_gcc/arm_gcc/mingw/bin/../lib/gcc/arm-none-eabi/5.4.1/../../../../arm-none-eabi/lib/armv7e-m/fpu\libc.a(lib_a-strstr.o)
 .text.strstr   0x6002ba24      0x220 c:/rtthread/env/tools/gnu_gcc/arm_gcc/mingw/bin/../lib/gcc/arm-none-eabi/5.4.1/../../../../arm-none-eabi/lib/armv7e-m/fpu\libc.a(lib_a-strstr.o)
                0x6002ba24                strstr
 *fill*         0x6002bc44        0x4 
 .text._svfprintf_r
                0x6002bc48     0x16e4 c:/rtthread/env/tools/gnu_gcc/arm_gcc/mingw/bin/../lib/gcc/arm-none-eabi/5.4.1/../../../../arm-none-eabi/lib/armv7e-m/fpu\libc.a(lib_a-svfprintf.o)
                0x6002bc48                _svfprintf_r
 .text.__sprint_r.part.0
                0x6002d32c       0x78 c:/rtthread/env/tools/gnu_gcc/arm_gcc/mingw/bin/../lib/gcc/arm-none-eabi/5.4.1/../../../../arm-none-eabi/lib/armv7e-m/fpu\libc.a(lib_a-vfiprintf.o)
 .text._vfiprintf_r
                0x6002d3a4      0xdfc c:/rtthread/env/tools/gnu_gcc/arm_gcc/mingw/bin/../lib/gcc/arm-none-eabi/5.4.1/../../../../arm-none-eabi/lib/armv7e-m/fpu\libc.a(lib_a-vfiprintf.o)
                0x6002d3a4                _vfiprintf_r
 .text.__sbprintf
                0x6002e1a0       0x6c c:/rtthread/env/tools/gnu_gcc/arm_gcc/mingw/bin/../lib/gcc/arm-none-eabi/5.4.1/../../../../arm-none-eabi/lib/armv7e-m/fpu\libc.a(lib_a-vfiprintf.o)
 .text.__swsetup_r
                0x6002e20c       0xc8 c:/rtthread/env/tools/gnu_gcc/arm_gcc/mingw/bin/../lib/gcc/arm-none-eabi/5.4.1/../../../../arm-none-eabi/lib/armv7e-m/fpu\libc.a(lib_a-wsetup.o)
                0x6002e20c                __swsetup_r
 .text.quorem   0x6002e2d4      0x128 c:/rtthread/env/tools/gnu_gcc/arm_gcc/mingw/bin/../lib/gcc/arm-none-eabi/5.4.1/../../../../arm-none-eabi/lib/armv7e-m/fpu\libc.a(lib_a-dtoa.o)
 *fill*         0x6002e3fc        0x4 
 .text._dtoa_r  0x6002e400      0xe34 c:/rtthread/env/tools/gnu_gcc/arm_gcc/mingw/bin/../lib/gcc/arm-none-eabi/5.4.1/../../../../arm-none-eabi/lib/armv7e-m/fpu\libc.a(lib_a-dtoa.o)
                0x6002e400                _dtoa_r
 .text.__env_lock
                0x6002f234        0x4 c:/rtthread/env/tools/gnu_gcc/arm_gcc/mingw/bin/../lib/gcc/arm-none-eabi/5.4.1/../../../../arm-none-eabi/lib/armv7e-m/fpu\libc.a(lib_a-envlock.o)
                0x6002f234                __env_lock
 .text.__env_unlock
                0x6002f238        0x4 c:/rtthread/env/tools/gnu_gcc/arm_gcc/mingw/bin/../lib/gcc/arm-none-eabi/5.4.1/../../../../arm-none-eabi/lib/armv7e-m/fpu\libc.a(lib_a-envlock.o)
                0x6002f238                __env_unlock
 .text.__sflags
                0x6002f23c       0x74 c:/rtthread/env/tools/gnu_gcc/arm_gcc/mingw/bin/../lib/gcc/arm-none-eabi/5.4.1/../../../../arm-none-eabi/lib/armv7e-m/fpu\libc.a(lib_a-flags.o)
                0x6002f23c                __sflags
 .text.__fputwc
                0x6002f2b0       0x98 c:/rtthread/env/tools/gnu_gcc/arm_gcc/mingw/bin/../lib/gcc/arm-none-eabi/5.4.1/../../../../arm-none-eabi/lib/armv7e-m/fpu\libc.a(lib_a-fputwc.o)
                0x6002f2b0                __fputwc
 .text._fputwc_r
                0x6002f348       0x28 c:/rtthread/env/tools/gnu_gcc/arm_gcc/mingw/bin/../lib/gcc/arm-none-eabi/5.4.1/../../../../arm-none-eabi/lib/armv7e-m/fpu\libc.a(lib_a-fputwc.o)
                0x6002f348                _fputwc_r
 .text.__sfvwrite_r
                0x6002f370      0x304 c:/rtthread/env/tools/gnu_gcc/arm_gcc/mingw/bin/../lib/gcc/arm-none-eabi/5.4.1/../../../../arm-none-eabi/lib/armv7e-m/fpu\libc.a(lib_a-fvwrite.o)
                0x6002f370                __sfvwrite_r
 .text._findenv_r
                0x6002f674       0x7c c:/rtthread/env/tools/gnu_gcc/arm_gcc/mingw/bin/../lib/gcc/arm-none-eabi/5.4.1/../../../../arm-none-eabi/lib/armv7e-m/fpu\libc.a(lib_a-getenv_r.o)
                0x6002f674                _findenv_r
 .text.__locale_mb_cur_max
                0x6002f6f0       0x1c c:/rtthread/env/tools/gnu_gcc/arm_gcc/mingw/bin/../lib/gcc/arm-none-eabi/5.4.1/../../../../arm-none-eabi/lib/armv7e-m/fpu\libc.a(lib_a-locale.o)
                0x6002f6f0                __locale_mb_cur_max
 .text._localeconv_r
                0x6002f70c       0x1c c:/rtthread/env/tools/gnu_gcc/arm_gcc/mingw/bin/../lib/gcc/arm-none-eabi/5.4.1/../../../../arm-none-eabi/lib/armv7e-m/fpu\libc.a(lib_a-localeconv.o)
                0x6002f70c                _localeconv_r
 .text.__ascii_mbtowc
                0x6002f728       0x2c c:/rtthread/env/tools/gnu_gcc/arm_gcc/mingw/bin/../lib/gcc/arm-none-eabi/5.4.1/../../../../arm-none-eabi/lib/armv7e-m/fpu\libc.a(lib_a-mbtowc_r.o)
                0x6002f728                __ascii_mbtowc
 .text.memmove  0x6002f754       0xc8 c:/rtthread/env/tools/gnu_gcc/arm_gcc/mingw/bin/../lib/gcc/arm-none-eabi/5.4.1/../../../../arm-none-eabi/lib/armv7e-m/fpu\libc.a(lib_a-memmove.o)
                0x6002f754                memmove
 .text._Balloc  0x6002f81c       0x4c c:/rtthread/env/tools/gnu_gcc/arm_gcc/mingw/bin/../lib/gcc/arm-none-eabi/5.4.1/../../../../arm-none-eabi/lib/armv7e-m/fpu\libc.a(lib_a-mprec.o)
                0x6002f81c                _Balloc
 .text._Bfree   0x6002f868       0x14 c:/rtthread/env/tools/gnu_gcc/arm_gcc/mingw/bin/../lib/gcc/arm-none-eabi/5.4.1/../../../../arm-none-eabi/lib/armv7e-m/fpu\libc.a(lib_a-mprec.o)
                0x6002f868                _Bfree
 .text.__multadd
                0x6002f87c       0x80 c:/rtthread/env/tools/gnu_gcc/arm_gcc/mingw/bin/../lib/gcc/arm-none-eabi/5.4.1/../../../../arm-none-eabi/lib/armv7e-m/fpu\libc.a(lib_a-mprec.o)
                0x6002f87c                __multadd
 .text.__hi0bits
                0x6002f8fc       0x40 c:/rtthread/env/tools/gnu_gcc/arm_gcc/mingw/bin/../lib/gcc/arm-none-eabi/5.4.1/../../../../arm-none-eabi/lib/armv7e-m/fpu\libc.a(lib_a-mprec.o)
                0x6002f8fc                __hi0bits
 .text.__lo0bits
                0x6002f93c       0x5c c:/rtthread/env/tools/gnu_gcc/arm_gcc/mingw/bin/../lib/gcc/arm-none-eabi/5.4.1/../../../../arm-none-eabi/lib/armv7e-m/fpu\libc.a(lib_a-mprec.o)
                0x6002f93c                __lo0bits
 .text.__i2b    0x6002f998       0x14 c:/rtthread/env/tools/gnu_gcc/arm_gcc/mingw/bin/../lib/gcc/arm-none-eabi/5.4.1/../../../../arm-none-eabi/lib/armv7e-m/fpu\libc.a(lib_a-mprec.o)
                0x6002f998                __i2b
 .text.__multiply
                0x6002f9ac      0x130 c:/rtthread/env/tools/gnu_gcc/arm_gcc/mingw/bin/../lib/gcc/arm-none-eabi/5.4.1/../../../../arm-none-eabi/lib/armv7e-m/fpu\libc.a(lib_a-mprec.o)
                0x6002f9ac                __multiply
 .text.__pow5mult
                0x6002fadc       0xa0 c:/rtthread/env/tools/gnu_gcc/arm_gcc/mingw/bin/../lib/gcc/arm-none-eabi/5.4.1/../../../../arm-none-eabi/lib/armv7e-m/fpu\libc.a(lib_a-mprec.o)
                0x6002fadc                __pow5mult
 .text.__lshift
                0x6002fb7c       0xb0 c:/rtthread/env/tools/gnu_gcc/arm_gcc/mingw/bin/../lib/gcc/arm-none-eabi/5.4.1/../../../../arm-none-eabi/lib/armv7e-m/fpu\libc.a(lib_a-mprec.o)
                0x6002fb7c                __lshift
 .text.__mcmp   0x6002fc2c       0x44 c:/rtthread/env/tools/gnu_gcc/arm_gcc/mingw/bin/../lib/gcc/arm-none-eabi/5.4.1/../../../../arm-none-eabi/lib/armv7e-m/fpu\libc.a(lib_a-mprec.o)
                0x6002fc2c                __mcmp
 .text.__mdiff  0x6002fc70      0x114 c:/rtthread/env/tools/gnu_gcc/arm_gcc/mingw/bin/../lib/gcc/arm-none-eabi/5.4.1/../../../../arm-none-eabi/lib/armv7e-m/fpu\libc.a(lib_a-mprec.o)
                0x6002fc70                __mdiff
 .text.__d2b    0x6002fd84       0xbc c:/rtthread/env/tools/gnu_gcc/arm_gcc/mingw/bin/../lib/gcc/arm-none-eabi/5.4.1/../../../../arm-none-eabi/lib/armv7e-m/fpu\libc.a(lib_a-mprec.o)
                0x6002fd84                __d2b
 .text.__ssprint_r
                0x6002fe40      0x100 c:/rtthread/env/tools/gnu_gcc/arm_gcc/mingw/bin/../lib/gcc/arm-none-eabi/5.4.1/../../../../arm-none-eabi/lib/armv7e-m/fpu\libc.a(lib_a-svfiprintf.o)
                0x6002fe40                __ssprint_r
 .text.__swbuf_r
                0x6002ff40       0xac c:/rtthread/env/tools/gnu_gcc/arm_gcc/mingw/bin/../lib/gcc/arm-none-eabi/5.4.1/../../../../arm-none-eabi/lib/armv7e-m/fpu\libc.a(lib_a-wbuf.o)
                0x6002ff40                __swbuf_r
 .text._wcrtomb_r
                0x6002ffec       0x54 c:/rtthread/env/tools/gnu_gcc/arm_gcc/mingw/bin/../lib/gcc/arm-none-eabi/5.4.1/../../../../arm-none-eabi/lib/armv7e-m/fpu\libc.a(lib_a-wcrtomb.o)
                0x6002ffec                _wcrtomb_r
 .text.__ascii_wctomb
                0x60030040       0x1c c:/rtthread/env/tools/gnu_gcc/arm_gcc/mingw/bin/../lib/gcc/arm-none-eabi/5.4.1/../../../../arm-none-eabi/lib/armv7e-m/fpu\libc.a(lib_a-wctomb_r.o)
                0x60030040                __ascii_wctomb
 *(.rodata)
 .rodata        0x6003005c       0x72 build\applications\main.o
 *fill*         0x600300ce        0x2 
 .rodata        0x600300d0        0x6 build\board\board.o
 *fill*         0x600300d6        0x2 
 .rodata        0x600300d8       0x5f build\board\MCUX_Config\clock_config.o
 *fill*         0x60030137        0x1 
 .rodata        0x60030138       0x43 build\board\MCUX_Config\pin_mux.o
 *fill*         0x6003017b        0x1 
 .rodata        0x6003017c       0x17 build\kernel\src\components.o
 *fill*         0x60030193        0x1 
 .rodata        0x60030194      0x108 build\kernel\src\device.o
 .rodata        0x6003029c       0x34 build\kernel\src\idle.o
 .rodata        0x600302d0      0x476 build\kernel\src\ipc.o
 *fill*         0x60030746        0x2 
 .rodata        0x60030748       0xc7 build\kernel\src\kservice.o
 *fill*         0x6003080f        0x1 
 .rodata        0x60030810      0x177 build\kernel\src\memheap.o
 *fill*         0x60030987        0x1 
 .rodata        0x60030988       0x91 build\kernel\src\object.o
 *fill*         0x60030a19        0x3 
 .rodata        0x60030a1c       0x65 build\kernel\src\scheduler.o
 *fill*         0x60030a81        0x3 
 .rodata        0x60030a84      0x19e build\kernel\src\thread.o
 *fill*         0x60030c22        0x2 
 .rodata        0x60030c24       0xd7 build\kernel\src\timer.o
 *fill*         0x60030cfb        0x1 
 .rodata        0x60030cfc      0x2ce build\kernel\libcpu\arm\cortex-m7\cpuport.o
 *fill*         0x60030fca        0x2 
 .rodata        0x60030fcc      0x142 build\kernel\components\dfs\src\dfs.o
 *fill*         0x6003110e        0x2 
 .rodata        0x60031110      0x1d4 build\kernel\components\dfs\src\dfs_file.o
 .rodata        0x600312e4      0x1cc build\kernel\components\dfs\src\dfs_fs.o
 .rodata        0x600314b0        0x4 build\kernel\components\dfs\src\dfs_posix.o
 .rodata        0x600314b4       0x5a build\kernel\components\dfs\filesystems\devfs\devfs.o
 *fill*         0x6003150e        0x2 
 .rodata        0x60031510       0xfa build\kernel\components\dfs\filesystems\elmfat\dfs_elm.o
 *fill*         0x6003160a        0x2 
 .rodata        0x6003160c       0x54 build\kernel\components\dfs\filesystems\elmfat\ff.o
 .rodata        0x60031660       0x37 build\kernel\components\drivers\misc\pin.o
 *fill*         0x60031697        0x1 
 .rodata        0x60031698       0x3a build\kernel\components\drivers\misc\pulse_encoder.o
 *fill*         0x600316d2        0x2 
 .rodata        0x600316d4      0x11b build\kernel\components\drivers\sdio\block_dev.o
 *fill*         0x600317ef        0x1 
 .rodata        0x600317f0       0xf5 build\kernel\components\drivers\sdio\mmcsd_core.o
 *fill*         0x600318e5        0x3 
 .rodata        0x600318e8      0x11b build\kernel\components\drivers\sdio\sd.o
 *fill*         0x60031a03        0x1 
 .rodata        0x60031a04      0x2b4 build\kernel\components\drivers\sdio\sdio.o
 .rodata        0x60031cb8      0x16a build\kernel\components\drivers\sdio\mmc.o
 *fill*         0x60031e22        0x2 
 .rodata        0x60031e24      0x1e6 build\kernel\components\drivers\serial\serial.o
 *fill*         0x6003200a        0x2 
 .rodata        0x6003200c       0x72 build\kernel\components\drivers\src\completion.o
 *fill*         0x6003207e        0x2 
 .rodata        0x60032080       0x90 build\kernel\components\drivers\src\dataqueue.o
 .rodata        0x60032110       0x2a build\kernel\components\drivers\src\waitqueue.o
 *fill*         0x6003213a        0x2 
 .rodata        0x6003213c      0x395 build\kernel\components\drivers\usb\usbhost\core\usbhost_core.o
 *fill*         0x600324d1        0x3 
 .rodata        0x600324d4        0xf build\kernel\components\drivers\usb\usbhost\core\driver.o
 *fill*         0x600324e3        0x1 
 .rodata        0x600324e4       0x23 build\kernel\components\drivers\usb\usbhost\core\usbhost.o
 *fill*         0x60032507        0x1 
 .rodata        0x60032508      0x157 build\kernel\components\drivers\usb\usbhost\core\hub.o
 *fill*         0x6003265f        0x1 
 .rodata        0x60032660      0x306 build\kernel\components\drivers\usb\usbhost\class\mass.o
 *fill*         0x60032966        0x2 
 .rodata        0x60032968      0x270 build\kernel\components\drivers\usb\usbhost\class\udisk.o
 .rodata        0x60032bd8      0x145 build\kernel\components\drivers\usb\usbhost\class\hid.o
 *fill*         0x60032d1d        0x3 
 .rodata        0x60032d20       0x39 build\kernel\components\drivers\usb\usbhost\class\umouse.o
 *fill*         0x60032d59        0x3 
 .rodata        0x60032d5c       0x79 build\kernel\components\finsh\shell.o
 *fill*         0x60032dd5        0x3 
 .rodata        0x60032dd8      0x6c5 build\kernel\components\finsh\cmd.o
 *fill*         0x6003349d        0x3 
 .rodata        0x600334a0       0x84 build\kernel\components\finsh\msh.o
 .rodata        0x60033524      0x2e5 build\kernel\components\finsh\msh_file.o
 *fill*         0x60033809        0x3 
 .rodata        0x6003380c       0x17 build\kernel\components\libc\compilers\newlib\libc.o
 *fill*         0x60033823        0x1 
 .rodata        0x60033824       0x13 build\kernel\components\libc\compilers\newlib\stdio.o
 *fill*         0x60033837        0x1 
 .rodata        0x60033838       0x46 build\kernel\components\libc\compilers\newlib\syscalls.o
 *fill*         0x6003387e        0x2 
 .rodata        0x60033880       0x54 libraries\MIMXRT1050\MIMXRT1052\drivers\fsl_clock.o
 .rodata        0x600338d4       0xa1 libraries\MIMXRT1050\MIMXRT1052\drivers\fsl_gpio.o
 *fill*         0x60033975        0x3 
 .rodata        0x60033978      0x196 libraries\MIMXRT1050\MIMXRT1052\drivers\fsl_lpuart.o
 *fill*         0x60033b0e        0x2 
 .rodata        0x60033b10      0x365 libraries\MIMXRT1050\MIMXRT1052\drivers\fsl_usdhc.o
 *fill*         0x60033e75        0x3 
 .rodata        0x60033e78       0xa7 libraries\MIMXRT1050\MIMXRT1052\drivers\fsl_enc.o
 *fill*         0x60033f1f        0x1 
 .rodata        0x60033f20       0xa3 libraries\MIMXRT1050\MIMXRT1052\drivers\fsl_os_abstraction_rtthread.o
 *fill*         0x60033fc3        0x1 
 .rodata        0x60033fc4       0x84 libraries\drivers\drv_gpio.o
 .rodata        0x60034048       0x44 libraries\drivers\drv_uart.o
 .rodata        0x6003408c      0x10a libraries\drivers\drv_sdio.o
 *fill*         0x60034196        0x2 
 .rodata        0x60034198       0x3e libraries\drivers\drv_pulse_encoder.o
 *fill*         0x600341d6        0x2 
 .rodata        0x600341d8        0xc libraries\drivers\usb\phy\usb_phy.o
 .rodata        0x600341e4      0x159 libraries\drivers\drv_usbh.o
 *fill*         0x6003433d        0x3 
 .rodata        0x60034340       0x16 libraries\drivers\usb\host\usb_host_devices.o
 *fill*         0x60034356        0x2 
 .rodata        0x60034358        0x8 libraries\drivers\usb\host\usb_host_ehci.o
 *(.rodata*)
 .rodata.name   0x60034360       0x31 build\applications\main.o
                0x60034360                __fsym___cmd_pulse_encoder_sample_name
                0x6003437c                __fsym___cmd_pulse_encoder_sample_desc
 *fill*         0x60034391        0x3 
 .rodata.armPllConfig_BOARD_BootClockRUN
                0x60034394        0x8 build\board\MCUX_Config\clock_config.o
                0x60034394                armPllConfig_BOARD_BootClockRUN
 .rodata.usb2PllConfig_BOARD_BootClockRUN
                0x6003439c        0x2 build\board\MCUX_Config\clock_config.o
                0x6003439c                usb2PllConfig_BOARD_BootClockRUN
 *fill*         0x6003439e        0x2 
 .rodata.__func__.9110
                0x600343a0       0x12 build\board\MCUX_Config\clock_config.o
 *fill*         0x600343b2        0x2 
 .rodata.__func__.9096
                0x600343b4        0xd build\board\MCUX_Config\clock_config.o
 *fill*         0x600343c1        0x3 
 .rodata.__func__.9084
                0x600343c4        0xd build\board\MCUX_Config\clock_config.o
 *fill*         0x600343d1        0x3 
 .rodata.__func__.9110
                0x600343d4       0x12 build\board\MCUX_Config\pin_mux.o
 *fill*         0x600343e6        0x2 
 .rodata.__FUNCTION__.5752
                0x600343e8       0x14 build\kernel\src\components.o
 .rodata.__FUNCTION__.5802
                0x600343fc        0xf build\kernel\src\device.o
 *fill*         0x6003440b        0x1 
 .rodata.__FUNCTION__.6832
                0x6003440c       0x15 build\kernel\src\device.o
 *fill*         0x60034421        0x3 
 .rodata.__FUNCTION__.6853
                0x60034424        0xf build\kernel\src\device.o
 *fill*         0x60034433        0x1 
 .rodata.__FUNCTION__.6859
                0x60034434        0xf build\kernel\src\device.o
 *fill*         0x60034443        0x1 
 .rodata.__FUNCTION__.6864
                0x60034444       0x10 build\kernel\src\device.o
 .rodata.__FUNCTION__.6871
                0x60034454        0xf build\kernel\src\device.o
 *fill*         0x60034463        0x1 
 .rodata.__FUNCTION__.6878
                0x60034464       0x10 build\kernel\src\device.o
 .rodata.__FUNCTION__.6884
                0x60034474       0x12 build\kernel\src\device.o
 *fill*         0x60034486        0x2 
 .rodata.__FUNCTION__.6891
                0x60034488       0x1a build\kernel\src\device.o
 *fill*         0x600344a2        0x2 
 .rodata.__FUNCTION__.5733
                0x600344a4       0x16 build\kernel\src\idle.o
 *fill*         0x600344ba        0x2 
 .rodata.__FUNCTION__.5741
                0x600344bc        0xc build\kernel\src\ipc.o
 .rodata.__FUNCTION__.5745
                0x600344c8        0xe build\kernel\src\ipc.o
 *fill*         0x600344d6        0x2 
 .rodata.__FUNCTION__.5753
                0x600344d8        0xe build\kernel\src\ipc.o
 *fill*         0x600344e6        0x2 
 .rodata.__FUNCTION__.5758
                0x600344e8        0xe build\kernel\src\ipc.o
 *fill*         0x600344f6        0x2 
 .rodata.__FUNCTION__.5765
                0x600344f8        0xc build\kernel\src\ipc.o
 .rodata.__FUNCTION__.5776
                0x60034504        0xf build\kernel\src\ipc.o
 *fill*         0x60034513        0x1 
 .rodata.__FUNCTION__.5790
                0x60034514        0xe build\kernel\src\ipc.o
 *fill*         0x60034522        0x2 
 .rodata.__FUNCTION__.5794
                0x60034524       0x10 build\kernel\src\ipc.o
 .rodata.__FUNCTION__.5801
                0x60034534       0x10 build\kernel\src\ipc.o
 .rodata.__FUNCTION__.5806
                0x60034544       0x10 build\kernel\src\ipc.o
 .rodata.__FUNCTION__.5814
                0x60034554        0xe build\kernel\src\ipc.o
 *fill*         0x60034562        0x2 
 .rodata.__FUNCTION__.5822
                0x60034564       0x11 build\kernel\src\ipc.o
 *fill*         0x60034575        0x3 
 .rodata.__FUNCTION__.5847
                0x60034578       0x10 build\kernel\src\ipc.o
 .rodata.__FUNCTION__.5851
                0x60034588       0x10 build\kernel\src\ipc.o
 .rodata.__FUNCTION__.5862
                0x60034598        0xe build\kernel\src\ipc.o
 *fill*         0x600345a6        0x2 
 .rodata.__FUNCTION__.5877
                0x600345a8        0xe build\kernel\src\ipc.o
 *fill*         0x600345b6        0x2 
 .rodata.__FUNCTION__.5893
                0x600345b8        0xb build\kernel\src\ipc.o
 *fill*         0x600345c3        0x1 
 .rodata.__FUNCTION__.5919
                0x600345c4       0x10 build\kernel\src\ipc.o
 .rodata.__FUNCTION__.5943
                0x600345d4        0xb build\kernel\src\ipc.o
 *fill*         0x600345df        0x1 
 .rodata.__FUNCTION__.5986
                0x600345e0        0xd build\kernel\src\ipc.o
 *fill*         0x600345ed        0x3 
 .rodata.__FUNCTION__.6005
                0x600345f0       0x10 build\kernel\src\ipc.o
 .rodata.__FUNCTION__.6034
                0x60034600        0xb build\kernel\src\ipc.o
 *fill*         0x6003460b        0x1 
 .rodata.__lowest_bit_bitmap
                0x6003460c      0x100 build\kernel\src\kservice.o
                0x6003460c                __lowest_bit_bitmap
 .rodata.large_digits.5874
                0x6003470c       0x11 build\kernel\src\kservice.o
 *fill*         0x6003471d        0x3 
 .rodata.small_digits.5873
                0x60034720       0x11 build\kernel\src\kservice.o
 *fill*         0x60034731        0x3 
 .rodata.__FUNCTION__.5707
                0x60034734       0x10 build\kernel\src\memheap.o
 .rodata.__FUNCTION__.5719
                0x60034744       0x11 build\kernel\src\memheap.o
 *fill*         0x60034755        0x3 
 .rodata.__FUNCTION__.5733
                0x60034758       0x13 build\kernel\src\memheap.o
 *fill*         0x6003476b        0x1 
 .rodata.__FUNCTION__.5746
                0x6003476c       0x10 build\kernel\src\memheap.o
 .rodata.__FUNCTION__.5760
                0x6003477c        0xa build\kernel\src\memheap.o
 *fill*         0x60034786        0x2 
 .rodata.__FUNCTION__.5781
                0x60034788        0xf build\kernel\src\object.o
 *fill*         0x60034797        0x1 
 .rodata.__FUNCTION__.5790
                0x60034798       0x11 build\kernel\src\object.o
 *fill*         0x600347a9        0x3 
 .rodata.__FUNCTION__.5799
                0x600347ac       0x13 build\kernel\src\object.o
 *fill*         0x600347bf        0x1 
 .rodata.__FUNCTION__.5804
                0x600347c0       0x11 build\kernel\src\object.o
 *fill*         0x600347d1        0x3 
 .rodata.__FUNCTION__.5808
                0x600347d4       0x1a build\kernel\src\object.o
 *fill*         0x600347ee        0x2 
 .rodata.__FUNCTION__.5812
                0x600347f0       0x13 build\kernel\src\object.o
 *fill*         0x60034803        0x1 
 .rodata.__FUNCTION__.5821
                0x60034804        0xf build\kernel\src\object.o
 *fill*         0x60034813        0x1 
 .rodata.__FUNCTION__.5718
                0x60034814       0x1a build\kernel\src\scheduler.o
 *fill*         0x6003482e        0x2 
 .rodata.__FUNCTION__.5756
                0x60034830       0x1a build\kernel\src\scheduler.o
 *fill*         0x6003484a        0x2 
 .rodata.__FUNCTION__.5762
                0x6003484c       0x1a build\kernel\src\scheduler.o
 *fill*         0x60034866        0x2 
 .rodata.__FUNCTION__.5739
                0x60034868       0x10 build\kernel\src\thread.o
 .rodata.__FUNCTION__.5751
                0x60034878        0xf build\kernel\src\thread.o
 *fill*         0x60034887        0x1 
 .rodata.__FUNCTION__.5760
                0x60034888       0x12 build\kernel\src\thread.o
 *fill*         0x6003489a        0x2 
 .rodata.__FUNCTION__.5765
                0x6003489c       0x11 build\kernel\src\thread.o
 *fill*         0x600348ad        0x3 
 .rodata.__FUNCTION__.5781
                0x600348b0       0x11 build\kernel\src\thread.o
 *fill*         0x600348c1        0x3 
 .rodata.__FUNCTION__.5792
                0x600348c4       0x10 build\kernel\src\thread.o
 .rodata.__FUNCTION__.5813
                0x600348d4       0x12 build\kernel\src\thread.o
 *fill*         0x600348e6        0x2 
 .rodata.__FUNCTION__.5824
                0x600348e8       0x12 build\kernel\src\thread.o
 *fill*         0x600348fa        0x2 
 .rodata.__FUNCTION__.5829
                0x600348fc       0x11 build\kernel\src\thread.o
 *fill*         0x6003490d        0x3 
 .rodata.__FUNCTION__.5834
                0x60034910       0x12 build\kernel\src\thread.o
 *fill*         0x60034922        0x2 
 .rodata.__FUNCTION__.5751
                0x60034924        0xe build\kernel\src\timer.o
 *fill*         0x60034932        0x2 
 .rodata.__FUNCTION__.5756
                0x60034934       0x10 build\kernel\src\timer.o
 .rodata.__FUNCTION__.5780
                0x60034944        0xf build\kernel\src\timer.o
 *fill*         0x60034953        0x1 
 .rodata.__FUNCTION__.5797
                0x60034954        0xe build\kernel\src\timer.o
 *fill*         0x60034962        0x2 
 .rodata.__FUNCTION__.5804
                0x60034964       0x11 build\kernel\src\timer.o
 *fill*         0x60034975        0x3 
 .rodata.name   0x60034978       0x25 build\kernel\components\dfs\src\dfs.o
                0x60034978                __fsym___cmd_list_fd_name
                0x60034988                __fsym___cmd_list_fd_desc
 *fill*         0x6003499d        0x3 
 .rodata.__FUNCTION__.8355
                0x600349a0        0x9 build\kernel\components\dfs\src\dfs.o
 *fill*         0x600349a9        0x3 
 .rodata.__FUNCTION__.8389
                0x600349ac        0x7 build\kernel\components\dfs\src\dfs.o
 *fill*         0x600349b3        0x1 
 .rodata.__FUNCTION__.8421
                0x600349b4       0x13 build\kernel\components\dfs\src\dfs.o
 *fill*         0x600349c7        0x1 
 .rodata.name   0x600349c8       0x65 build\kernel\components\dfs\src\dfs_file.o
                0x600349c8                __fsym_ls_name
                0x600349cc                __fsym_ls_desc
                0x600349e4                __fsym_rm_name
                0x600349e8                __fsym_rm_desc
                0x60034a04                __fsym_cat_name
                0x60034a08                __fsym_cat_desc
                0x60034a14                __fsym_copy_name
                0x60034a1c                __fsym_copy_desc
 *fill*         0x60034a2d        0x3 
 .rodata.name   0x60034a30       0x2e build\kernel\components\dfs\src\dfs_fs.o
                0x60034a30                __fsym_mkfs_name
                0x60034a38                __fsym_mkfs_desc
                0x60034a4c                __fsym_df_name
                0x60034a50                __fsym_df_desc
 *fill*         0x60034a5e        0x2 
 .rodata.__FUNCTION__.8326
                0x60034a60       0x16 build\kernel\components\dfs\src\dfs_fs.o
 *fill*         0x60034a76        0x2 
 .rodata.__FUNCTION__.8347
                0x60034a78       0x1d build\kernel\components\dfs\src\dfs_fs.o
 *fill*         0x60034a95        0x3 
 .rodata.name   0x60034a98       0x41 build\kernel\components\dfs\src\dfs_posix.o
                0x60034a98                __fsym_mkdir_name
                0x60034aa0                __fsym_mkdir_desc
                0x60034ab4                __fsym_cd_name
                0x60034ab8                __fsym_cd_desc
 *fill*         0x60034ad9        0x3 
 .rodata._device_fops
                0x60034adc       0x24 build\kernel\components\dfs\filesystems\devfs\devfs.o
 .rodata._device_fs
                0x60034b00       0x28 build\kernel\components\dfs\filesystems\devfs\devfs.o
 .rodata.__FUNCTION__.8324
                0x60034b28       0x14 build\kernel\components\dfs\filesystems\devfs\devfs.o
 .rodata.__FUNCTION__.8332
                0x60034b3c       0x13 build\kernel\components\dfs\filesystems\devfs\devfs.o
 *fill*         0x60034b4f        0x1 
 .rodata.__FUNCTION__.8340
                0x60034b50       0x14 build\kernel\components\dfs\filesystems\devfs\devfs.o
 .rodata.__FUNCTION__.8346
                0x60034b64       0x14 build\kernel\components\dfs\filesystems\devfs\devfs.o
 .rodata.__FUNCTION__.8358
                0x60034b78       0x13 build\kernel\components\dfs\filesystems\devfs\devfs.o
 *fill*         0x60034b8b        0x1 
 .rodata.__FUNCTION__.8380
                0x60034b8c       0x17 build\kernel\components\dfs\filesystems\devfs\devfs.o
 *fill*         0x60034ba3        0x1 
 .rodata.dfs_elm_fops
                0x60034ba4       0x24 build\kernel\components\dfs\filesystems\elmfat\dfs_elm.o
 .rodata.dfs_elm
                0x60034bc8       0x28 build\kernel\components\dfs\filesystems\elmfat\dfs_elm.o
 .rodata.__FUNCTION__.8588
                0x60034bf0       0x10 build\kernel\components\dfs\filesystems\elmfat\dfs_elm.o
 .rodata.__FUNCTION__.8609
                0x60034c00        0xf build\kernel\components\dfs\filesystems\elmfat\dfs_elm.o
 *fill*         0x60034c0f        0x1 
 .rodata.__FUNCTION__.8628
                0x60034c10        0xe build\kernel\components\dfs\filesystems\elmfat\dfs_elm.o
 *fill*         0x60034c1e        0x2 
 .rodata.__FUNCTION__.8640
                0x60034c20        0xe build\kernel\components\dfs\filesystems\elmfat\dfs_elm.o
 *fill*         0x60034c2e        0x2 
 .rodata.__FUNCTION__.8649
                0x60034c30        0xd build\kernel\components\dfs\filesystems\elmfat\dfs_elm.o
 *fill*         0x60034c3d        0x3 
 .rodata.__FUNCTION__.8658
                0x60034c40        0xe build\kernel\components\dfs\filesystems\elmfat\dfs_elm.o
 *fill*         0x60034c4e        0x2 
 .rodata.__FUNCTION__.8664
                0x60034c50        0xe build\kernel\components\dfs\filesystems\elmfat\dfs_elm.o
 *fill*         0x60034c5e        0x2 
 .rodata.__FUNCTION__.8671
                0x60034c60        0xe build\kernel\components\dfs\filesystems\elmfat\dfs_elm.o
 *fill*         0x60034c6e        0x2 
 .rodata.__FUNCTION__.8683
                0x60034c70       0x11 build\kernel\components\dfs\filesystems\elmfat\dfs_elm.o
 *fill*         0x60034c81        0x3 
 .rodata.LfnOfs
                0x60034c84        0xd build\kernel\components\dfs\filesystems\elmfat\ff.o
 *fill*         0x60034c91        0x3 
 .rodata.ExCvt  0x60034c94       0x80 build\kernel\components\dfs\filesystems\elmfat\ff.o
 .rodata.defopt.6541
                0x60034d14       0x10 build\kernel\components\dfs\filesystems\elmfat\ff.o
 .rodata.cst32.6540
                0x60034d24        0xe build\kernel\components\dfs\filesystems\elmfat\ff.o
 *fill*         0x60034d32        0x2 
 .rodata.cst.6539
                0x60034d34        0xe build\kernel\components\dfs\filesystems\elmfat\ff.o
 *fill*         0x60034d42        0x2 
 .rodata.uc437  0x60034d44      0x100 build\kernel\components\dfs\filesystems\elmfat\ffunicode.o
 .rodata.cvt1.5885
                0x60034e44      0x1f2 build\kernel\components\dfs\filesystems\elmfat\ffunicode.o
 *fill*         0x60035036        0x2 
 .rodata.cvt2.5886
                0x60035038       0xbc build\kernel\components\dfs\filesystems\elmfat\ffunicode.o
 .rodata.name   0x600350f4       0x99 build\kernel\components\drivers\misc\pin.o
                0x600350f4                __fsym_pinMode_name
                0x600350fc                __fsym_pinMode_desc
                0x60035114                __fsym_pinWrite_name
                0x60035120                __fsym_pinWrite_desc
                0x6003513c                __fsym_pinRead_name
                0x60035144                __fsym_pinRead_desc
                0x60035164                __fsym_pinGet_name
                0x6003516c                __fsym_pinGet_desc
 *fill*         0x6003518d        0x3 
 .rodata.__FUNCTION__.8317
                0x60035190        0xa build\kernel\components\drivers\misc\pin.o
 *fill*         0x6003519a        0x2 
 .rodata.__FUNCTION__.8326
                0x6003519c        0xb build\kernel\components\drivers\misc\pin.o
 *fill*         0x600351a7        0x1 
 .rodata.__FUNCTION__.8334
                0x600351a8        0xd build\kernel\components\drivers\misc\pin.o
 *fill*         0x600351b5        0x3 
 .rodata.__FUNCTION__.8361
                0x600351b8        0xc build\kernel\components\drivers\misc\pin.o
 .rodata.__FUNCTION__.8369
                0x600351c4        0xd build\kernel\components\drivers\misc\pin.o
 *fill*         0x600351d1        0x3 
 .rodata.__FUNCTION__.8376
                0x600351d4        0xc build\kernel\components\drivers\misc\pin.o
 .rodata.__FUNCTION__.8383
                0x600351e0        0xb build\kernel\components\drivers\misc\pin.o
 *fill*         0x600351eb        0x1 
 .rodata.__FUNCTION__.6863
                0x600351ec       0x21 build\kernel\components\drivers\misc\pulse_encoder.o
 *fill*         0x6003520d        0x3 
 .rodata.__FUNCTION__.6147
                0x60035210       0x13 build\kernel\components\drivers\sdio\mmcsd_core.o
 *fill*         0x60035223        0x1 
 .rodata.tran_unit
                0x60035224       0x20 build\kernel\components\drivers\sdio\sd.o
 .rodata.tran_value
                0x60035244       0x10 build\kernel\components\drivers\sdio\sd.o
 .rodata.tacc_uint
                0x60035254       0x20 build\kernel\components\drivers\sdio\sd.o
 .rodata.tacc_value
                0x60035274       0x10 build\kernel\components\drivers\sdio\sd.o
 .rodata.speed_value
                0x60035284       0x10 build\kernel\components\drivers\sdio\sdio.o
 .rodata.speed_unit
                0x60035294       0x20 build\kernel\components\drivers\sdio\sdio.o
 .rodata.__FUNCTION__.6004
                0x600352b4       0x15 build\kernel\components\drivers\sdio\sdio.o
 *fill*         0x600352c9        0x3 
 .rodata.__FUNCTION__.6018
                0x600352cc       0x12 build\kernel\components\drivers\sdio\sdio.o
 *fill*         0x600352de        0x2 
 .rodata.__FUNCTION__.6149
                0x600352e0        0xe build\kernel\components\drivers\sdio\sdio.o
 *fill*         0x600352ee        0x2 
 .rodata.__FUNCTION__.6186
                0x600352f0       0x19 build\kernel\components\drivers\sdio\sdio.o
 *fill*         0x60035309        0x3 
 .rodata.__FUNCTION__.6234
                0x6003530c        0xa build\kernel\components\drivers\sdio\sdio.o
 *fill*         0x60035316        0x2 
 .rodata.tran_unit
                0x60035318       0x20 build\kernel\components\drivers\sdio\mmc.o
 .rodata.tran_value
                0x60035338       0x10 build\kernel\components\drivers\sdio\mmc.o
 .rodata.tacc_uint
                0x60035348       0x20 build\kernel\components\drivers\sdio\mmc.o
 .rodata.tacc_value
                0x60035368       0x10 build\kernel\components\drivers\sdio\mmc.o
 .rodata._serial_fops
                0x60035378       0x24 build\kernel\components\drivers\serial\serial.o
 .rodata.__FUNCTION__.8487
                0x6003539c       0x11 build\kernel\components\drivers\serial\serial.o
 *fill*         0x600353ad        0x3 
 .rodata.__FUNCTION__.8529
                0x600353b0       0x11 build\kernel\components\drivers\serial\serial.o
 *fill*         0x600353c1        0x3 
 .rodata.__FUNCTION__.8586
                0x600353c4       0x1d build\kernel\components\drivers\serial\serial.o
 *fill*         0x600353e1        0x3 
 .rodata.__FUNCTION__.8595
                0x600353e4       0x1d build\kernel\components\drivers\serial\serial.o
 *fill*         0x60035401        0x3 
 .rodata.__FUNCTION__.8601
                0x60035404       0x1d build\kernel\components\drivers\serial\serial.o
 *fill*         0x60035421        0x3 
 .rodata.__FUNCTION__.8627
                0x60035424        0xf build\kernel\components\drivers\serial\serial.o
 *fill*         0x60035433        0x1 
 .rodata.__FUNCTION__.8634
                0x60035434        0xf build\kernel\components\drivers\serial\serial.o
 *fill*         0x60035443        0x1 
 .rodata.__FUNCTION__.8644
                0x60035444       0x10 build\kernel\components\drivers\serial\serial.o
 .rodata.__FUNCTION__.8657
                0x60035454        0xf build\kernel\components\drivers\serial\serial.o
 *fill*         0x60035463        0x1 
 .rodata.__FUNCTION__.8561
                0x60035464        0xf build\kernel\components\drivers\serial\serial.o
 *fill*         0x60035473        0x1 
 .rodata.__FUNCTION__.8608
                0x60035474        0xf build\kernel\components\drivers\serial\serial.o
 *fill*         0x60035483        0x1 
 .rodata.__FUNCTION__.8540
                0x60035484       0x10 build\kernel\components\drivers\serial\serial.o
 .rodata.__FUNCTION__.8665
                0x60035494       0x10 build\kernel\components\drivers\serial\serial.o
 .rodata.__FUNCTION__.8574
                0x600354a4        0xf build\kernel\components\drivers\serial\serial.o
 *fill*         0x600354b3        0x1 
 .rodata.__FUNCTION__.8550
                0x600354b4       0x10 build\kernel\components\drivers\serial\serial.o
 .rodata.__FUNCTION__.8673
                0x600354c4       0x12 build\kernel\components\drivers\serial\serial.o
 *fill*         0x600354d6        0x2 
 .rodata.__FUNCTION__.8691
                0x600354d8       0x16 build\kernel\components\drivers\serial\serial.o
 *fill*         0x600354ee        0x2 
 .rodata.__FUNCTION__.8700
                0x600354f0       0x11 build\kernel\components\drivers\serial\serial.o
 *fill*         0x60035501        0x3 
 .rodata.__FUNCTION__.6902
                0x60035504       0x13 build\kernel\components\drivers\src\completion.o
 *fill*         0x60035517        0x1 
 .rodata.__FUNCTION__.6910
                0x60035518       0x13 build\kernel\components\drivers\src\completion.o
 *fill*         0x6003552b        0x1 
 .rodata.__FUNCTION__.6917
                0x6003552c       0x13 build\kernel\components\drivers\src\completion.o
 *fill*         0x6003553f        0x1 
 .rodata.__FUNCTION__.6908
                0x60035540       0x13 build\kernel\components\drivers\src\dataqueue.o
 *fill*         0x60035553        0x1 
 .rodata.__FUNCTION__.6918
                0x60035554       0x13 build\kernel\components\drivers\src\dataqueue.o
 *fill*         0x60035567        0x1 
 .rodata.__FUNCTION__.6933
                0x60035568       0x12 build\kernel\components\drivers\src\dataqueue.o
 *fill*         0x6003557a        0x2 
 .rodata.__FUNCTION__.6945
                0x6003557c       0x13 build\kernel\components\drivers\src\dataqueue.o
 *fill*         0x6003558f        0x1 
 .rodata.__FUNCTION__.6951
                0x60035590       0x14 build\kernel\components\drivers\src\dataqueue.o
 .rodata.__FUNCTION__.6962
                0x600355a4       0x15 build\kernel\components\drivers\src\dataqueue.o
 *fill*         0x600355b9        0x3 
 .rodata.__FUNCTION__.6968
                0x600355bc       0x12 build\kernel\components\drivers\src\dataqueue.o
 *fill*         0x600355ce        0x2 
 .rodata.__FUNCTION__.6934
                0x600355d0        0xf build\kernel\components\drivers\src\waitqueue.o
 *fill*         0x600355df        0x1 
 .rodata.__FUNCTION__.6049
                0x600355e0       0x19 build\kernel\components\drivers\usb\usbhost\core\usbhost_core.o
 *fill*         0x600355f9        0x3 
 .rodata.__FUNCTION__.6013
                0x600355fc       0x15 build\kernel\components\drivers\usb\usbhost\core\usbhost_core.o
 *fill*         0x60035611        0x3 
 .rodata.__FUNCTION__.5990
                0x60035614       0x19 build\kernel\components\drivers\usb\usbhost\core\usbhost_core.o
 *fill*         0x6003562d        0x3 
 .rodata.__FUNCTION__.6063
                0x60035630       0x18 build\kernel\components\drivers\usb\usbhost\core\usbhost_core.o
 .rodata.__FUNCTION__.6078
                0x60035648       0x17 build\kernel\components\drivers\usb\usbhost\core\usbhost_core.o
 *fill*         0x6003565f        0x1 
 .rodata.__FUNCTION__.6084
                0x60035660       0x14 build\kernel\components\drivers\usb\usbhost\core\usbhost_core.o
 .rodata.__FUNCTION__.6091
                0x60035674       0x16 build\kernel\components\drivers\usb\usbhost\core\usbhost_core.o
 *fill*         0x6003568a        0x2 
 .rodata.__FUNCTION__.6106
                0x6003568c       0x16 build\kernel\components\drivers\usb\usbhost\core\usbhost_core.o
 *fill*         0x600356a2        0x2 
 .rodata.__FUNCTION__.6115
                0x600356a4       0x21 build\kernel\components\drivers\usb\usbhost\core\usbhost_core.o
 *fill*         0x600356c5        0x3 
 .rodata.__FUNCTION__.6128
                0x600356c8       0x20 build\kernel\components\drivers\usb\usbhost\core\usbhost_core.o
 .rodata.__FUNCTION__.6042
                0x600356e8       0x1c build\kernel\components\drivers\usb\usbhost\core\driver.o
 .rodata.__FUNCTION__.6047
                0x60035704       0x1d build\kernel\components\drivers\usb\usbhost\core\driver.o
 *fill*         0x60035721        0x3 
 .rodata.__FUNCTION__.6072
                0x60035724       0x1b build\kernel\components\drivers\usb\usbhost\core\hub.o
 *fill*         0x6003573f        0x1 
 .rodata.__FUNCTION__.6087
                0x60035740       0x1c build\kernel\components\drivers\usb\usbhost\core\hub.o
 .rodata.__FUNCTION__.6095
                0x6003575c       0x1f build\kernel\components\drivers\usb\usbhost\core\hub.o
 *fill*         0x6003577b        0x1 
 .rodata.__FUNCTION__.6103
                0x6003577c       0x1d build\kernel\components\drivers\usb\usbhost\core\hub.o
 *fill*         0x60035799        0x3 
 .rodata.__FUNCTION__.6110
                0x6003579c       0x17 build\kernel\components\drivers\usb\usbhost\core\hub.o
 *fill*         0x600357b3        0x1 
 .rodata.__FUNCTION__.6123
                0x600357b4       0x1a build\kernel\components\drivers\usb\usbhost\core\hub.o
 *fill*         0x600357ce        0x2 
 .rodata.__FUNCTION__.6132
                0x600357d0       0x18 build\kernel\components\drivers\usb\usbhost\core\hub.o
 .rodata.__FUNCTION__.6146
                0x600357e8       0x10 build\kernel\components\drivers\usb\usbhost\core\hub.o
 .rodata.__FUNCTION__.6158
                0x600357f8       0x13 build\kernel\components\drivers\usb\usbhost\core\hub.o
 *fill*         0x6003580b        0x1 
 .rodata.__FUNCTION__.6168
                0x6003580c       0x14 build\kernel\components\drivers\usb\usbhost\core\hub.o
 .rodata.__FUNCTION__.6190
                0x60035820       0x15 build\kernel\components\drivers\usb\usbhost\core\hub.o
 *fill*         0x60035835        0x3 
 .rodata.__FUNCTION__.8295
                0x60035838       0x16 build\kernel\components\drivers\usb\usbhost\class\mass.o
 *fill*         0x6003584e        0x2 
 .rodata.__FUNCTION__.8304
                0x60035850       0x1c build\kernel\components\drivers\usb\usbhost\class\mass.o
 .rodata.__FUNCTION__.8311
                0x6003586c       0x16 build\kernel\components\drivers\usb\usbhost\class\mass.o
 *fill*         0x60035882        0x2 
 .rodata.__FUNCTION__.8320
                0x60035884       0x17 build\kernel\components\drivers\usb\usbhost\class\mass.o
 *fill*         0x6003589b        0x1 
 .rodata.__FUNCTION__.8329
                0x6003589c       0x18 build\kernel\components\drivers\usb\usbhost\class\mass.o
 .rodata.__FUNCTION__.8336
                0x600358b4       0x1e build\kernel\components\drivers\usb\usbhost\class\mass.o
 *fill*         0x600358d2        0x2 
 .rodata.__FUNCTION__.8342
                0x600358d4       0x20 build\kernel\components\drivers\usb\usbhost\class\mass.o
 .rodata.__FUNCTION__.8349
                0x600358f4       0x18 build\kernel\components\drivers\usb\usbhost\class\mass.o
 .rodata.__FUNCTION__.8356
                0x6003590c       0x1d build\kernel\components\drivers\usb\usbhost\class\mass.o
 *fill*         0x60035929        0x3 
 .rodata.__FUNCTION__.8364
                0x6003592c       0x17 build\kernel\components\drivers\usb\usbhost\class\mass.o
 *fill*         0x60035943        0x1 
 .rodata.__FUNCTION__.8375
                0x60035944       0x18 build\kernel\components\drivers\usb\usbhost\class\mass.o
 .rodata.__FUNCTION__.8279
                0x6003595c        0xd build\kernel\components\drivers\usb\usbhost\class\udisk.o
 *fill*         0x60035969        0x3 
 .rodata.__FUNCTION__.8283
                0x6003596c        0xe build\kernel\components\drivers\usb\usbhost\class\udisk.o
 *fill*         0x6003597a        0x2 
 .rodata.__FUNCTION__.8297
                0x6003597c        0xe build\kernel\components\drivers\usb\usbhost\class\udisk.o
 *fill*         0x6003598a        0x2 
 .rodata.__FUNCTION__.8308
                0x6003598c        0xf build\kernel\components\drivers\usb\usbhost\class\udisk.o
 *fill*         0x6003599b        0x1 
 .rodata.__FUNCTION__.8316
                0x6003599c       0x11 build\kernel\components\drivers\usb\usbhost\class\udisk.o
 *fill*         0x600359ad        0x3 
 .rodata.__FUNCTION__.8331
                0x600359b0        0xd build\kernel\components\drivers\usb\usbhost\class\udisk.o
 *fill*         0x600359bd        0x3 
 .rodata.__FUNCTION__.8352
                0x600359c0        0xe build\kernel\components\drivers\usb\usbhost\class\udisk.o
 *fill*         0x600359ce        0x2 
 .rodata.__FUNCTION__.6064
                0x600359d0       0x15 build\kernel\components\drivers\usb\usbhost\class\hid.o
 *fill*         0x600359e5        0x3 
 .rodata.__FUNCTION__.6095
                0x600359e8       0x19 build\kernel\components\drivers\usb\usbhost\class\hid.o
 *fill*         0x60035a01        0x3 
 .rodata.__FUNCTION__.6108
                0x60035a04       0x1e build\kernel\components\drivers\usb\usbhost\class\hid.o
 *fill*         0x60035a22        0x2 
 .rodata.__FUNCTION__.6134
                0x60035a24       0x13 build\kernel\components\drivers\usb\usbhost\class\hid.o
 *fill*         0x60035a37        0x1 
 .rodata.__FUNCTION__.6146
                0x60035a38       0x14 build\kernel\components\drivers\usb\usbhost\class\hid.o
 .rodata.__FUNCTION__.6013
                0x60035a4c       0x15 build\kernel\components\drivers\usb\usbhost\class\hid.o
 *fill*         0x60035a61        0x3 
 .rodata.__FUNCTION__.6070
                0x60035a64       0x17 build\kernel\components\drivers\usb\usbhost\class\umouse.o
 *fill*         0x60035a7b        0x1 
 .rodata.__FUNCTION__.8709
                0x60035a7c       0x16 build\kernel\components\finsh\shell.o
 *fill*         0x60035a92        0x2 
 .rodata.name   0x60035a94      0x422 build\kernel\components\finsh\cmd.o
                0x60035a94                __fsym_hello_name
                0x60035a9c                __fsym_hello_desc
                0x60035aac                __fsym_clear_name
                0x60035ab4                __fsym_clear_desc
                0x60035ad0                __fsym___cmd_clear_name
                0x60035adc                __fsym___cmd_clear_desc
                0x60035af8                __fsym_version_name
                0x60035b00                __fsym_version_desc
                0x60035b24                __fsym___cmd_version_name
                0x60035b34                __fsym___cmd_version_desc
                0x60035b58                __fsym_list_thread_name
                0x60035b64                __fsym_list_thread_desc
                0x60035b70                __fsym___cmd_list_thread_name
                0x60035b84                __fsym___cmd_list_thread_desc
                0x60035b90                __fsym_list_sem_name
                0x60035b9c                __fsym_list_sem_desc
                0x60035bb8                __fsym___cmd_list_sem_name
                0x60035bc8                __fsym___cmd_list_sem_desc
                0x60035be4                __fsym_list_event_name
                0x60035bf0                __fsym_list_event_desc
                0x60035c08                __fsym___cmd_list_event_name
                0x60035c1c                __fsym___cmd_list_event_desc
                0x60035c34                __fsym_list_mutex_name
                0x60035c40                __fsym_list_mutex_desc
                0x60035c58                __fsym___cmd_list_mutex_name
                0x60035c6c                __fsym___cmd_list_mutex_desc
                0x60035c84                __fsym_list_mailbox_name
                0x60035c94                __fsym_list_mailbox_desc
                0x60035cac                __fsym___cmd_list_mailbox_name
                0x60035cc0                __fsym___cmd_list_mailbox_desc
                0x60035cd8                __fsym_list_msgqueue_name
                0x60035ce8                __fsym_list_msgqueue_desc
                0x60035d08                __fsym___cmd_list_msgqueue_name
                0x60035d1c                __fsym___cmd_list_msgqueue_desc
                0x60035d3c                __fsym_list_memheap_name
                0x60035d4c                __fsym_list_memheap_desc
                0x60035d68                __fsym___cmd_list_memheap_name
                0x60035d7c                __fsym___cmd_list_memheap_desc
                0x60035d98                __fsym_list_mempool_name
                0x60035da8                __fsym_list_mempool_desc
                0x60035dc4                __fsym___cmd_list_mempool_name
                0x60035dd8                __fsym___cmd_list_mempool_desc
                0x60035df4                __fsym_list_timer_name
                0x60035e00                __fsym_list_timer_desc
                0x60035e18                __fsym___cmd_list_timer_name
                0x60035e2c                __fsym___cmd_list_timer_desc
                0x60035e44                __fsym_list_device_name
                0x60035e50                __fsym_list_device_desc
                0x60035e68                __fsym___cmd_list_device_name
                0x60035e7c                __fsym___cmd_list_device_desc
                0x60035e94                __fsym_list_name
                0x60035e9c                __fsym_list_desc
 *fill*         0x60035eb6        0x2 
 .rodata.device_type_str
                0x60035eb8       0x5c build\kernel\components\finsh\cmd.o
 .rodata.name   0x60035f14       0x7d build\kernel\components\finsh\msh.o
                0x60035f14                __fsym___cmd_help_name
                0x60035f20                __fsym___cmd_help_desc
                0x60035f38                __fsym___cmd_ps_name
                0x60035f44                __fsym___cmd_ps_desc
                0x60035f60                __fsym___cmd_free_name
                0x60035f6c                __fsym___cmd_free_desc
 *fill*         0x60035f91        0x3 
 .rodata.__FUNCTION__.8702
                0x60035f94        0xe build\kernel\components\finsh\msh.o
 *fill*         0x60035fa2        0x2 
 .rodata.name   0x60035fa4      0x1b8 build\kernel\components\finsh\msh_file.o
                0x60035fa4                __fsym___cmd_ls_name
                0x60035fb0                __fsym___cmd_ls_desc
                0x60035fd4                __fsym___cmd_cp_name
                0x60035fe0                __fsym___cmd_cp_desc
                0x60035ff8                __fsym___cmd_mv_name
                0x60036004                __fsym___cmd_mv_desc
                0x6003601c                __fsym___cmd_cat_name
                0x60036028                __fsym___cmd_cat_desc
                0x6003603c                __fsym___cmd_rm_name
                0x60036048                __fsym___cmd_rm_desc
                0x60036064                __fsym___cmd_cd_name
                0x60036070                __fsym___cmd_cd_desc
                0x60036094                __fsym___cmd_pwd_name
                0x600360a0                __fsym___cmd_pwd_desc
                0x600360d4                __fsym___cmd_mkdir_name
                0x600360e0                __fsym___cmd_mkdir_desc
                0x600360f8                __fsym___cmd_mkfs_name
                0x60036104                __fsym___cmd_mkfs_desc
                0x60036124                __fsym___cmd_df_name
                0x60036130                __fsym___cmd_df_desc
                0x6003613c                __fsym___cmd_echo_name
                0x60036148                __fsym___cmd_echo_desc
 .rodata.__spm  0x6003615c       0x1a build\kernel\components\libc\compilers\common\time.o
                0x6003615c                __spm
 *fill*         0x60036176        0x2 
 .rodata.__func__.9281
                0x60036178       0x16 libraries\MIMXRT1050\MIMXRT1052\drivers\fsl_clock.o
 *fill*         0x6003618e        0x2 
 .rodata.s_gpioBases
                0x60036190       0x18 libraries\MIMXRT1050\MIMXRT1052\drivers\fsl_gpio.o
 .rodata.s_gpioClock
                0x600361a8        0xc libraries\MIMXRT1050\MIMXRT1052\drivers\fsl_gpio.o
 .rodata.__func__.9375
                0x600361b4       0x11 libraries\MIMXRT1050\MIMXRT1052\drivers\fsl_gpio.o
 *fill*         0x600361c5        0x3 
 .rodata.__func__.9110
                0x600361c8       0x12 libraries\MIMXRT1050\MIMXRT1052\drivers\fsl_gpio.o
 *fill*         0x600361da        0x2 
 .rodata.__func__.9386
                0x600361dc        0xe libraries\MIMXRT1050\MIMXRT1052\drivers\fsl_gpio.o
 *fill*         0x600361ea        0x2 
 .rodata.s_lpuartBases
                0x600361ec       0x24 libraries\MIMXRT1050\MIMXRT1052\drivers\fsl_lpuart.o
 .rodata.s_lpuartClock
                0x60036210       0x12 libraries\MIMXRT1050\MIMXRT1052\drivers\fsl_lpuart.o
 *fill*         0x60036222        0x2 
 .rodata.__func__.9526
                0x60036224       0x13 libraries\MIMXRT1050\MIMXRT1052\drivers\fsl_lpuart.o
 *fill*         0x60036237        0x1 
 .rodata.__func__.9566
                0x60036238        0xc libraries\MIMXRT1050\MIMXRT1052\drivers\fsl_lpuart.o
 .rodata.__func__.9110
                0x60036244       0x12 libraries\MIMXRT1050\MIMXRT1052\drivers\fsl_lpuart.o
 *fill*         0x60036256        0x2 
 .rodata.__func__.9593
                0x60036258       0x18 libraries\MIMXRT1050\MIMXRT1052\drivers\fsl_lpuart.o
 .rodata.s_usdhcBase
                0x60036270        0xc libraries\MIMXRT1050\MIMXRT1052\drivers\fsl_usdhc.o
 .rodata.s_usdhcIRQ
                0x6003627c        0x6 libraries\MIMXRT1050\MIMXRT1052\drivers\fsl_usdhc.o
 *fill*         0x60036282        0x2 
 .rodata.s_usdhcClock
                0x60036284        0x6 libraries\MIMXRT1050\MIMXRT1052\drivers\fsl_usdhc.o
 *fill*         0x6003628a        0x2 
 .rodata.__func__.9897
                0x6003628c       0x12 libraries\MIMXRT1050\MIMXRT1052\drivers\fsl_usdhc.o
 *fill*         0x6003629e        0x2 
 .rodata.__func__.9976
                0x600362a0       0x12 libraries\MIMXRT1050\MIMXRT1052\drivers\fsl_usdhc.o
 *fill*         0x600362b2        0x2 
 .rodata.__func__.9996
                0x600362b4       0x16 libraries\MIMXRT1050\MIMXRT1052\drivers\fsl_usdhc.o
 *fill*         0x600362ca        0x2 
 .rodata.__func__.10016
                0x600362cc        0xb libraries\MIMXRT1050\MIMXRT1052\drivers\fsl_usdhc.o
 *fill*         0x600362d7        0x1 
 .rodata.__func__.9110
                0x600362d8       0x12 libraries\MIMXRT1050\MIMXRT1052\drivers\fsl_usdhc.o
 *fill*         0x600362ea        0x2 
 .rodata.__func__.10043
                0x600362ec       0x11 libraries\MIMXRT1050\MIMXRT1052\drivers\fsl_usdhc.o
 *fill*         0x600362fd        0x3 
 .rodata.__func__.10084
                0x60036300       0x19 libraries\MIMXRT1050\MIMXRT1052\drivers\fsl_usdhc.o
 *fill*         0x60036319        0x3 
 .rodata.__func__.10102
                0x6003631c       0x19 libraries\MIMXRT1050\MIMXRT1052\drivers\fsl_usdhc.o
 *fill*         0x60036335        0x3 
 .rodata.__func__.10122
                0x60036338       0x1b libraries\MIMXRT1050\MIMXRT1052\drivers\fsl_usdhc.o
 *fill*         0x60036353        0x1 
 .rodata.__func__.10129
                0x60036354       0x19 libraries\MIMXRT1050\MIMXRT1052\drivers\fsl_usdhc.o
 *fill*         0x6003636d        0x3 
 .rodata.__func__.10144
                0x60036370       0x17 libraries\MIMXRT1050\MIMXRT1052\drivers\fsl_usdhc.o
 *fill*         0x60036387        0x1 
 .rodata.s_encBases
                0x60036388       0x14 libraries\MIMXRT1050\MIMXRT1052\drivers\fsl_enc.o
 .rodata.s_encClocks
                0x6003639c        0xa libraries\MIMXRT1050\MIMXRT1052\drivers\fsl_enc.o
 *fill*         0x600363a6        0x2 
 .rodata.__func__.9393
                0x600363a8       0x10 libraries\MIMXRT1050\MIMXRT1052\drivers\fsl_enc.o
 .rodata.__func__.9398
                0x600363b8        0x9 libraries\MIMXRT1050\MIMXRT1052\drivers\fsl_enc.o
 *fill*         0x600363c1        0x3 
 .rodata.__func__.9110
                0x600363c4       0x12 libraries\MIMXRT1050\MIMXRT1052\drivers\fsl_enc.o
 *fill*         0x600363d6        0x2 
 .rodata.__func__.9406
                0x600363d8       0x15 libraries\MIMXRT1050\MIMXRT1052\drivers\fsl_enc.o
 *fill*         0x600363ed        0x3 
 .rodata.__func__.10738
                0x600363f0       0x10 libraries\MIMXRT1050\MIMXRT1052\drivers\fsl_os_abstraction_rtthread.o
 .rodata.__func__.10747
                0x60036400        0xe libraries\MIMXRT1050\MIMXRT1052\drivers\fsl_os_abstraction_rtthread.o
 *fill*         0x6003640e        0x2 
 .rodata.__func__.10753
                0x60036410       0x10 libraries\MIMXRT1050\MIMXRT1052\drivers\fsl_os_abstraction_rtthread.o
 .rodata.__func__.10758
                0x60036420       0x11 libraries\MIMXRT1050\MIMXRT1052\drivers\fsl_os_abstraction_rtthread.o
 *fill*         0x60036431        0x3 
 .rodata.__func__.10764
                0x60036434       0x10 libraries\MIMXRT1050\MIMXRT1052\drivers\fsl_os_abstraction_rtthread.o
 .rodata.__func__.10772
                0x60036444        0xd libraries\MIMXRT1050\MIMXRT1052\drivers\fsl_os_abstraction_rtthread.o
 *fill*         0x60036451        0x3 
 .rodata.__func__.10796
                0x60036454        0xe libraries\MIMXRT1050\MIMXRT1052\drivers\fsl_os_abstraction_rtthread.o
 *fill*         0x60036462        0x2 
 .rodata.__func__.10805
                0x60036464       0x11 libraries\MIMXRT1050\MIMXRT1052\drivers\fsl_os_abstraction_rtthread.o
 *fill*         0x60036475        0x3 
 .rodata.mask_tab
                0x60036478       0x28 libraries\drivers\drv_gpio.o
                0x60036478                mask_tab
 .rodata.reg_offset
                0x600364a0       0x80 libraries\drivers\drv_gpio.o
                0x600364a0                reg_offset
 .rodata.irq_tab
                0x60036520       0x14 libraries\drivers\drv_gpio.o
 .rodata.imxrt_pin_ops
                0x60036534       0x1c libraries\drivers\drv_gpio.o
 .rodata.__func__.11613
                0x60036550       0x12 libraries\drivers\drv_gpio.o
 *fill*         0x60036562        0x2 
 .rodata.__func__.11835
                0x60036564       0x16 libraries\drivers\drv_gpio.o
 *fill*         0x6003657a        0x2 
 .rodata.imxrt_uart_ops
                0x6003657c       0x14 libraries\drivers\drv_uart.o
 .rodata.__FUNCTION__.12411
                0x60036590        0x9 libraries\drivers\drv_uart.o
 *fill*         0x60036599        0x3 
 .rodata.__FUNCTION__.12422
                0x6003659c       0x10 libraries\drivers\drv_uart.o
 .rodata.__FUNCTION__.12439
                0x600365ac        0xe libraries\drivers\drv_uart.o
 *fill*         0x600365ba        0x2 
 .rodata.__FUNCTION__.12448
                0x600365bc        0xb libraries\drivers\drv_uart.o
 *fill*         0x600365c7        0x1 
 .rodata.__FUNCTION__.12457
                0x600365c8        0xb libraries\drivers\drv_uart.o
 *fill*         0x600365d3        0x1 
 .rodata.ops    0x600365d4       0x10 libraries\drivers\drv_sdio.o
 .rodata.__func__.10644
                0x600365e4       0x12 libraries\drivers\drv_sdio.o
 *fill*         0x600365f6        0x2 
 .rodata.__func__.10630
                0x600365f8        0xd libraries\drivers\drv_sdio.o
 *fill*         0x60036605        0x3 
 .rodata.__FUNCTION__.12420
                0x60036608        0xd libraries\drivers\drv_sdio.o
 *fill*         0x60036615        0x3 
 .rodata.__FUNCTION__.12440
                0x60036618        0xf libraries\drivers\drv_sdio.o
 *fill*         0x60036627        0x1 
 .rodata._ops   0x60036628       0x10 libraries\drivers\drv_pulse_encoder.o
 .rodata.s_EnumEntries
                0x60036638       0x38 libraries\drivers\usb\host\usb_host_devices.o
 .rodata.s_EhciInterface
                0x60036670       0x1c libraries\drivers\usb\host\usb_host_hci.o
 .rodata.str1.4
                0x6003668c       0x3f c:/rtthread/env/tools/gnu_gcc/arm_gcc/mingw/bin/../lib/gcc/arm-none-eabi/5.4.1/../../../../arm-none-eabi/lib/armv7e-m/fpu\libc.a(lib_a-assert.o)
                                 0x43 (size before relaxing)
 *fill*         0x600366cb        0x1 
 .rodata._global_impure_ptr
                0x600366cc        0x4 c:/rtthread/env/tools/gnu_gcc/arm_gcc/mingw/bin/../lib/gcc/arm-none-eabi/5.4.1/../../../../arm-none-eabi/lib/armv7e-m/fpu\libc.a(lib_a-impure.o)
                0x600366cc                _global_impure_ptr
 .rodata.zeroes.7258
                0x600366d0       0x10 c:/rtthread/env/tools/gnu_gcc/arm_gcc/mingw/bin/../lib/gcc/arm-none-eabi/5.4.1/../../../../arm-none-eabi/lib/armv7e-m/fpu\libc.a(lib_a-svfprintf.o)
 .rodata.str1.4
                0x600366e0       0x42 c:/rtthread/env/tools/gnu_gcc/arm_gcc/mingw/bin/../lib/gcc/arm-none-eabi/5.4.1/../../../../arm-none-eabi/lib/armv7e-m/fpu\libc.a(lib_a-svfprintf.o)
 *fill*         0x60036722        0x2 
 .rodata.blanks.7257
                0x60036724       0x10 c:/rtthread/env/tools/gnu_gcc/arm_gcc/mingw/bin/../lib/gcc/arm-none-eabi/5.4.1/../../../../arm-none-eabi/lib/armv7e-m/fpu\libc.a(lib_a-svfprintf.o)
 .rodata.zeroes.7252
                0x60036734       0x10 c:/rtthread/env/tools/gnu_gcc/arm_gcc/mingw/bin/../lib/gcc/arm-none-eabi/5.4.1/../../../../arm-none-eabi/lib/armv7e-m/fpu\libc.a(lib_a-vfiprintf.o)
 .rodata.blanks.7251
                0x60036744       0x10 c:/rtthread/env/tools/gnu_gcc/arm_gcc/mingw/bin/../lib/gcc/arm-none-eabi/5.4.1/../../../../arm-none-eabi/lib/armv7e-m/fpu\libc.a(lib_a-vfiprintf.o)
 .rodata.str1.4
                0x60036754       0x2f c:/rtthread/env/tools/gnu_gcc/arm_gcc/mingw/bin/../lib/gcc/arm-none-eabi/5.4.1/../../../../arm-none-eabi/lib/armv7e-m/fpu\libc.a(lib_a-vfiprintf.o)
 .rodata.str1.4
                0x60036754       0x10 c:/rtthread/env/tools/gnu_gcc/arm_gcc/mingw/bin/../lib/gcc/arm-none-eabi/5.4.1/../../../../arm-none-eabi/lib/armv7e-m/fpu\libc.a(lib_a-dtoa.o)
                                 0x12 (size before relaxing)
 .rodata.str1.4
                0x60036764       0x10 c:/rtthread/env/tools/gnu_gcc/arm_gcc/mingw/bin/../lib/gcc/arm-none-eabi/5.4.1/../../../../arm-none-eabi/lib/armv7e-m/fpu\libc.a(lib_a-locale.o)
                                 0x12 (size before relaxing)
 *fill*         0x60036774        0x4 
 .rodata.__mprec_tens
                0x60036778       0xc8 c:/rtthread/env/tools/gnu_gcc/arm_gcc/mingw/bin/../lib/gcc/arm-none-eabi/5.4.1/../../../../arm-none-eabi/lib/armv7e-m/fpu\libc.a(lib_a-mprec.o)
                0x60036778                __mprec_tens
 .rodata.__mprec_bigtens
                0x60036840       0x28 c:/rtthread/env/tools/gnu_gcc/arm_gcc/mingw/bin/../lib/gcc/arm-none-eabi/5.4.1/../../../../arm-none-eabi/lib/armv7e-m/fpu\libc.a(lib_a-mprec.o)
                0x60036840                __mprec_bigtens
 .rodata.p05.6087
                0x60036868        0xc c:/rtthread/env/tools/gnu_gcc/arm_gcc/mingw/bin/../lib/gcc/arm-none-eabi/5.4.1/../../../../arm-none-eabi/lib/armv7e-m/fpu\libc.a(lib_a-mprec.o)
 .rodata._ctype_
                0x60036874      0x101 c:/rtthread/env/tools/gnu_gcc/arm_gcc/mingw/bin/../lib/gcc/arm-none-eabi/5.4.1/../../../../arm-none-eabi/lib/armv7e-m/fpu\libc.a(lib_a-ctype_.o)
                0x60036874                _ctype_
 *(.glue_7)
 .glue_7        0x60036975        0x0 linker stubs
 *(.glue_7t)
 .glue_7t       0x60036975        0x0 linker stubs
 *(.eh_frame)
 *(.init)
 *(.fini)
                0x60036978                . = ALIGN (0x4)
 *fill*         0x60036975        0x3 
                0x60036978                . = ALIGN (0x4)
                0x60036978                __fsymtab_start = .
 *(FSymTab)
 FSymTab        0x60036978        0xc build\applications\main.o
                0x60036978                __fsym___cmd_pulse_encoder_sample
 FSymTab        0x60036984        0xc build\kernel\components\dfs\src\dfs.o
                0x60036984                __fsym___cmd_list_fd
 FSymTab        0x60036990       0x30 build\kernel\components\dfs\src\dfs_file.o
                0x60036990                __fsym_ls
                0x6003699c                __fsym_rm
                0x600369a8                __fsym_cat
                0x600369b4                __fsym_copy
 FSymTab        0x600369c0       0x18 build\kernel\components\dfs\src\dfs_fs.o
                0x600369c0                __fsym_mkfs
                0x600369cc                __fsym_df
 FSymTab        0x600369d8       0x18 build\kernel\components\dfs\src\dfs_posix.o
                0x600369d8                __fsym_mkdir
                0x600369e4                __fsym_cd
 FSymTab        0x600369f0       0x30 build\kernel\components\drivers\misc\pin.o
                0x600369f0                __fsym_pinMode
                0x600369fc                __fsym_pinWrite
                0x60036a08                __fsym_pinRead
                0x60036a14                __fsym_pinGet
 FSymTab        0x60036a20      0x138 build\kernel\components\finsh\cmd.o
                0x60036a20                __fsym_hello
                0x60036a2c                __fsym_clear
                0x60036a38                __fsym___cmd_clear
                0x60036a44                __fsym_version
                0x60036a50                __fsym___cmd_version
                0x60036a5c                __fsym_list_thread
                0x60036a68                __fsym___cmd_list_thread
                0x60036a74                __fsym_list_sem
                0x60036a80                __fsym___cmd_list_sem
                0x60036a8c                __fsym_list_event
                0x60036a98                __fsym___cmd_list_event
                0x60036aa4                __fsym_list_mutex
                0x60036ab0                __fsym___cmd_list_mutex
                0x60036abc                __fsym_list_mailbox
                0x60036ac8                __fsym___cmd_list_mailbox
                0x60036ad4                __fsym_list_msgqueue
                0x60036ae0                __fsym___cmd_list_msgqueue
                0x60036aec                __fsym_list_memheap
                0x60036af8                __fsym___cmd_list_memheap
                0x60036b04                __fsym_list_mempool
                0x60036b10                __fsym___cmd_list_mempool
                0x60036b1c                __fsym_list_timer
                0x60036b28                __fsym___cmd_list_timer
                0x60036b34                __fsym_list_device
                0x60036b40                __fsym___cmd_list_device
                0x60036b4c                __fsym_list
 FSymTab        0x60036b58       0x24 build\kernel\components\finsh\msh.o
                0x60036b58                __fsym___cmd_help
                0x60036b64                __fsym___cmd_ps
                0x60036b70                __fsym___cmd_free
 FSymTab        0x60036b7c       0x84 build\kernel\components\finsh\msh_file.o
                0x60036b7c                __fsym___cmd_ls
                0x60036b88                __fsym___cmd_cp
                0x60036b94                __fsym___cmd_mv
                0x60036ba0                __fsym___cmd_cat
                0x60036bac                __fsym___cmd_rm
                0x60036bb8                __fsym___cmd_cd
                0x60036bc4                __fsym___cmd_pwd
                0x60036bd0                __fsym___cmd_mkdir
                0x60036bdc                __fsym___cmd_mkfs
                0x60036be8                __fsym___cmd_df
                0x60036bf4                __fsym___cmd_echo
                0x60036c00                __fsymtab_end = .
                0x60036c00                . = ALIGN (0x4)
                0x60036c00                __vsymtab_start = .
 *(VSymTab)
                0x60036c00                __vsymtab_end = .
                0x60036c00                . = ALIGN (0x4)
                0x60036c00                . = ALIGN (0x4)
                0x60036c00                __rt_init_start = .
 *(SORT(.rti_fn*))
 .rti_fn.0      0x60036c00        0x4 build\kernel\src\components.o
                0x60036c00                __rt_init_rti_start
 .rti_fn.0.end  0x60036c04        0x4 build\kernel\src\components.o
                0x60036c04                __rt_init_rti_board_start
 .rti_fn.1      0x60036c08        0x4 libraries\drivers\drv_gpio.o
                0x60036c08                __rt_init_rt_hw_pin_init
 .rti_fn.1      0x60036c0c        0x4 libraries\drivers\drv_uart.o
                0x60036c0c                __rt_init_rt_hw_uart_init
 .rti_fn.1      0x60036c10        0x4 libraries\drivers\drv_pulse_encoder.o
                0x60036c10                __rt_init_rt_hw_pulse_encoder_init
 .rti_fn.1.end  0x60036c14        0x4 build\kernel\src\components.o
                0x60036c14                __rt_init_rti_board_end
 .rti_fn.2      0x60036c18        0x4 build\kernel\components\dfs\src\dfs.o
                0x60036c18                __rt_init_dfs_init
 .rti_fn.2      0x60036c1c        0x4 build\kernel\components\drivers\sdio\mmcsd_core.o
                0x60036c1c                __rt_init_rt_mmcsd_core_init
 .rti_fn.3      0x60036c20        0x4 libraries\drivers\drv_sdio.o
                0x60036c20                __rt_init_imxrt_mci_init
 .rti_fn.3      0x60036c24        0x4 libraries\drivers\drv_usbh.o
                0x60036c24                __rt_init_imxrt_usbh_register
 .rti_fn.4      0x60036c28        0x4 build\kernel\components\dfs\filesystems\elmfat\dfs_elm.o
                0x60036c28                __rt_init_elm_init
 .rti_fn.4      0x60036c2c        0x4 build\kernel\components\libc\compilers\newlib\libc.o
                0x60036c2c                __rt_init_libc_system_init
 .rti_fn.6      0x60036c30        0x4 build\kernel\components\finsh\shell.o
                0x60036c30                __rt_init_finsh_system_init
 .rti_fn.6.end  0x60036c34        0x4 build\kernel\src\components.o
                0x60036c34                __rt_init_rti_end
                0x60036c38                __rt_init_end = .

.vfp11_veneer   0x60036c38        0x0
 .vfp11_veneer  0x60036c38        0x0 linker stubs

.v4_bx          0x60036c38        0x0
 .v4_bx         0x60036c38        0x0 linker stubs

.iplt           0x60036c38        0x0
 .iplt          0x60036c38        0x0 build\applications\main.o

.ARM.extab
 *(.ARM.extab* .gnu.linkonce.armextab.*)

.ARM            0x60036c38        0x8
                0x60036c38                __exidx_start = .
 *(.ARM.exidx*)
 .ARM.exidx     0x60036c38        0x8 c:/rtthread/env/tools/gnu_gcc/arm_gcc/mingw/bin/../lib/gcc/arm-none-eabi/5.4.1/armv7e-m/fpu\libgcc.a(_udivmoddi4.o)
                0x60036c40                __exidx_end = .

.rel.dyn        0x60036c40        0x0
 .rel.iplt      0x60036c40        0x0 build\applications\main.o

.ctors          0x60036c40        0x0
                0x60036c40                __CTOR_LIST__ = .
 *crtbegin.o(.ctors)
 *crtbegin?.o(.ctors)
 *(EXCLUDE_FILE(*crtend.o *crtend?.o) .ctors)
 *(SORT(.ctors.*))
 *(.ctors)
                0x60036c40                __CTOR_END__ = .

.dtors          0x60036c40        0x0
                0x60036c40                __DTOR_LIST__ = .
 *crtbegin.o(.dtors)
 *crtbegin?.o(.dtors)
 *(EXCLUDE_FILE(*crtend.o *crtend?.o) .dtors)
 *(SORT(.dtors.*))
 *(.dtors)
                0x60036c40                __DTOR_END__ = .

.preinit_array  0x60036c40        0x0
                [!provide]                PROVIDE (__preinit_array_start, .)
 *(.preinit_array*)
                [!provide]                PROVIDE (__preinit_array_end, .)

.init_array     0x60036c40        0x0
                [!provide]                PROVIDE (__init_array_start, .)
 *(SORT(.init_array.*))
 *(.init_array*)
                [!provide]                PROVIDE (__init_array_end, .)

.fini_array     0x60036c40        0x0
                [!provide]                PROVIDE (__fini_array_start, .)
 *(SORT(.fini_array.*))
 *(.fini_array*)
                [!provide]                PROVIDE (__fini_array_end, .)
                0x60036c40                __etext = .
                0x60036c40                __DATA_ROM = .

.data           0x20000000     0x11ec load address 0x60036c40
                0x20000000                . = ALIGN (0x4)
                0x20000000                __DATA_RAM = .
                0x20000000                __data_start__ = .
 *(m_usb_dma_init_data)
 *(.data)
 *(.data*)
 .data.rt_object_container
                0x20000000       0xa0 build\kernel\src\object.o
 .data.working_directory
                0x200000a0      0x100 build\kernel\components\dfs\src\dfs.o
                0x200000a0                working_directory
 .data.blk_devices
                0x200001a0        0x8 build\kernel\components\drivers\sdio\block_dev.o
 .data.sdio_cards
                0x200001a8        0x8 build\kernel\components\drivers\sdio\sdio.o
 .data.sdio_drivers
                0x200001b0        0x8 build\kernel\components\drivers\sdio\sdio.o
 .data.ep0_out_desc
                0x200001b8        0x7 build\kernel\components\drivers\usb\usbhost\core\usbhost_core.o
 *fill*         0x200001bf        0x1 
 .data.ep0_in_desc
                0x200001c0        0x7 build\kernel\components\drivers\usb\usbhost\core\usbhost_core.o
 *fill*         0x200001c7        0x1 
 .data.SystemCoreClock
                0x200001c8        0x4 libraries\MIMXRT1050\MIMXRT1052\system_MIMXRT1052.o
                0x200001c8                SystemCoreClock
 .data.hdr_tab  0x200001cc      0x624 libraries\drivers\drv_gpio.o
 .data.uarts    0x200007f0       0x70 libraries\drivers\drv_uart.o
 .data.imxrt_pulse_encoder_obj
                0x20000860       0x60 libraries\drivers\drv_pulse_encoder.o
 .data.imxrt_usb_host_obj
                0x200008c0      0x360 libraries\drivers\drv_usbh.o
 .data._ehci0_uhcd_ops
                0x20000c20       0x10 libraries\drivers\drv_usbh.o
 .data._ehci1_uhcd_ops
                0x20000c30       0x10 libraries\drivers\drv_usbh.o
 .data.s_SlotMaxBandwidth
                0x20000c40        0x8 libraries\drivers\usb\host\usb_host_ehci.o
 .data.s_SlotMaxBandwidthHs
                0x20000c48        0x8 libraries\drivers\usb\host\usb_host_ehci.o
 .data.impure_data
                0x20000c50      0x428 c:/rtthread/env/tools/gnu_gcc/arm_gcc/mingw/bin/../lib/gcc/arm-none-eabi/5.4.1/../../../../arm-none-eabi/lib/armv7e-m/fpu\libc.a(lib_a-impure.o)
 .data._impure_ptr
                0x20001078        0x4 c:/rtthread/env/tools/gnu_gcc/arm_gcc/mingw/bin/../lib/gcc/arm-none-eabi/5.4.1/../../../../arm-none-eabi/lib/armv7e-m/fpu\libc.a(lib_a-impure.o)
                0x20001078                _impure_ptr
 .data.environ  0x2000107c        0x4 c:/rtthread/env/tools/gnu_gcc/arm_gcc/mingw/bin/../lib/gcc/arm-none-eabi/5.4.1/../../../../arm-none-eabi/lib/armv7e-m/fpu\libc.a(lib_a-environ.o)
                0x2000107c                environ
 .data.__global_locale
                0x20001080      0x16c c:/rtthread/env/tools/gnu_gcc/arm_gcc/mingw/bin/../lib/gcc/arm-none-eabi/5.4.1/../../../../arm-none-eabi/lib/armv7e-m/fpu\libc.a(lib_a-locale.o)
                0x20001080                __global_locale
 *(.jcr*)
                0x200011ec                . = ALIGN (0x4)
                0x200011ec                __data_end__ = .
                0x60037e2c                __NDATA_ROM = (__DATA_ROM + (__data_end__ - __data_start__))

.igot.plt       0x200011ec        0x0 load address 0x60037e2c
 .igot.plt      0x200011ec        0x0 build\applications\main.o

.ncache.init    0x200011ec        0x0 load address 0x60037e2c
                0x200011ec                __noncachedata_start__ = .
 *(NonCacheable.init)
                0x200011ec                . = ALIGN (0x4)
                0x200011ec                __noncachedata_init_end__ = .
                0x200011ec                . = __noncachedata_init_end__

.ncache         0x200011ec       0x24 load address 0x60037e2c
 *(NonCacheable)
 NonCacheable   0x200011ec        0x4 libraries\MIMXRT1050\MIMXRT1052\drivers\fsl_usdhc.o
                0x200011ec                s_usdhcBootDummy
 NonCacheable   0x200011f0       0x20 libraries\drivers\drv_sdio.o
                0x200011f0                g_usdhcAdma2Table
                0x20001210                . = ALIGN (0x4)
                0x20001210                __noncachedata_end__ = .
                0x60037e2c                __DATA_END = (__NDATA_ROM + (__noncachedata_init_end__ - __noncachedata_start__))
                0x64000000                text_end = (ORIGIN (m_text) + LENGTH (m_text))
                0x00000001                ASSERT ((__DATA_END <= text_end), region m_text overflowed with text and data)

.bss            0x20002000     0x6418 load address 0x60039000
                0x20002000                . = ALIGN (0x4)
                0x20002000                __START_BSS = .
                0x20002000                __bss_start__ = .
 *(m_usb_dma_noninit_data)
 *(.bss)
 *(.bss*)
 .bss.rt_tick   0x20002000        0x4 build\kernel\src\clock.o
 .bss.idle      0x20002004       0x80 build\kernel\src\idle.o
 .bss.rt_thread_stack
                0x20002084      0x100 build\kernel\src\idle.o
 .bss.idle_hook_list
                0x20002184       0x10 build\kernel\src\idle.o
 .bss.rt_interrupt_enter_hook
                0x20002194        0x4 build\kernel\src\irq.o
 .bss.rt_interrupt_leave_hook
                0x20002198        0x4 build\kernel\src\irq.o
 .bss.rt_interrupt_nest
                0x2000219c        0x1 build\kernel\src\irq.o
                0x2000219c                rt_interrupt_nest
 *fill*         0x2000219d        0x3 
 .bss.__rt_errno
                0x200021a0        0x4 build\kernel\src\kservice.o
 .bss._console_device
                0x200021a4        0x4 build\kernel\src\kservice.o
 .bss.rt_log_buf.5984
                0x200021a8       0x80 build\kernel\src\kservice.o
 .bss._heap     0x20002228       0x64 build\kernel\src\memheap.o
 .bss.rt_object_attach_hook
                0x2000228c        0x4 build\kernel\src\object.o
 .bss.rt_object_detach_hook
                0x20002290        0x4 build\kernel\src\object.o
 .bss.rt_scheduler_lock_nest
                0x20002294        0x2 build\kernel\src\scheduler.o
 *fill*         0x20002296        0x2 
 .bss.rt_current_thread
                0x20002298        0x4 build\kernel\src\scheduler.o
                0x20002298                rt_current_thread
 .bss.rt_scheduler_hook
                0x2000229c        0x4 build\kernel\src\scheduler.o
 .bss.rt_thread_suspend_hook
                0x200022a0        0x4 build\kernel\src\thread.o
 .bss.rt_thread_resume_hook
                0x200022a4        0x4 build\kernel\src\thread.o
 .bss.rt_thread_inited_hook
                0x200022a8        0x4 build\kernel\src\thread.o
 .bss.rt_timer_list
                0x200022ac        0x8 build\kernel\src\timer.o
 .bss.rt_timer_enter_hook
                0x200022b4        0x4 build\kernel\src\timer.o
 .bss.rt_timer_exit_hook
                0x200022b8        0x4 build\kernel\src\timer.o
 .bss.random_nr.5779
                0x200022bc        0x4 build\kernel\src\timer.o
 .bss.rt_exception_hook
                0x200022c0        0x4 build\kernel\libcpu\arm\cortex-m7\cpuport.o
 .bss.fslock    0x200022c4       0x24 build\kernel\components\dfs\src\dfs.o
 .bss._fdtab    0x200022e8        0x8 build\kernel\components\dfs\src\dfs.o
 .bss.init_ok.8343
                0x200022f0        0x4 build\kernel\components\dfs\src\dfs.o
 .bss.fd        0x200022f4       0x24 build\kernel\components\dfs\src\dfs_file.o
 .bss.dirent    0x20002318      0x104 build\kernel\components\dfs\src\dfs_file.o
 .bss.disk      0x2000241c        0x8 build\kernel\components\dfs\filesystems\elmfat\dfs_elm.o
 .bss.FatFs     0x20002424        0x8 build\kernel\components\dfs\filesystems\elmfat\ff.o
 .bss.Fsid      0x2000242c        0x2 build\kernel\components\dfs\filesystems\elmfat\ff.o
 *fill*         0x2000242e        0x2 
 .bss._hw_pin   0x20002430       0x54 build\kernel\components\drivers\misc\pin.o
 .bss.mmcsd_detect_thread
                0x20002484       0x80 build\kernel\components\drivers\sdio\mmcsd_core.o
 .bss.mmcsd_stack
                0x20002504      0x400 build\kernel\components\drivers\sdio\mmcsd_core.o
 .bss.mmcsd_detect_mb
                0x20002904       0x30 build\kernel\components\drivers\sdio\mmcsd_core.o
 .bss.mmcsd_detect_mb_pool
                0x20002934       0x10 build\kernel\components\drivers\sdio\mmcsd_core.o
 .bss.mmcsd_hotpluge_mb
                0x20002944       0x30 build\kernel\components\drivers\sdio\mmcsd_core.o
 .bss.mmcsd_hotpluge_mb_pool
                0x20002974       0x10 build\kernel\components\drivers\sdio\mmcsd_core.o
 .bss.already_output.8581
                0x20002984        0x4 build\kernel\components\drivers\serial\serial.o
 .bss.dev       0x20002988     0x1500 build\kernel\components\drivers\usb\usbhost\core\usbhost_core.o
 .bss._driver_list
                0x20003e88        0x8 build\kernel\components\drivers\usb\usbhost\core\driver.o
 .bss._driver_list_created
                0x20003e90        0x4 build\kernel\components\drivers\usb\usbhost\core\driver.o
 .bss.hub_driver
                0x20003e94       0x1c build\kernel\components\drivers\usb\usbhost\core\hub.o
 .bss.storage_driver
                0x20003eb0       0x1c build\kernel\components\drivers\usb\usbhost\class\mass.o
 .bss._udisk_idset
                0x20003ecc        0x1 build\kernel\components\drivers\usb\usbhost\class\udisk.o
 *fill*         0x20003ecd        0x3 
 .bss.hid_driver
                0x20003ed0       0x1c build\kernel\components\drivers\usb\usbhost\class\hid.o
 .bss._protocal_list
                0x20003eec        0x8 build\kernel\components\drivers\usb\usbhost\class\hid.o
 .bss.mouse_protocal
                0x20003ef4       0x14 build\kernel\components\drivers\usb\usbhost\class\umouse.o
 .bss._syscall_table_begin
                0x20003f08        0x4 build\kernel\components\finsh\shell.o
                0x20003f08                _syscall_table_begin
 .bss._syscall_table_end
                0x20003f0c        0x4 build\kernel\components\finsh\shell.o
                0x20003f0c                _syscall_table_end
 .bss._sysvar_table_begin
                0x20003f10        0x4 build\kernel\components\finsh\shell.o
                0x20003f10                _sysvar_table_begin
 .bss._sysvar_table_end
                0x20003f14        0x4 build\kernel\components\finsh\shell.o
                0x20003f14                _sysvar_table_end
 .bss.finsh_prompt_custom
                0x20003f18        0x4 build\kernel\components\finsh\shell.o
 .bss.finsh_prompt.8701
                0x20003f1c       0x81 build\kernel\components\finsh\shell.o
 *fill*         0x20003f9d        0x3 
 .bss.tmp.5664  0x20003fa0       0x24 build\kernel\components\libc\compilers\common\time.o
 .bss.std_console
                0x20003fc4        0x4 build\kernel\components\libc\compilers\newlib\stdio.o
 .bss.s_lpuartHandle
                0x20003fc8       0x24 libraries\MIMXRT1050\MIMXRT1052\drivers\fsl_lpuart.o
 .bss.s_lpuartIsr
                0x20003fec        0x4 libraries\MIMXRT1050\MIMXRT1052\drivers\fsl_lpuart.o
 .bss.s_usdhcHandle
                0x20003ff0        0xc libraries\MIMXRT1050\MIMXRT1052\drivers\fsl_usdhc.o
 .bss.s_usdhcIsr
                0x20003ffc        0x4 libraries\MIMXRT1050\MIMXRT1052\drivers\fsl_usdhc.o
 .bss._ehci0_pipe_buf
                0x20004000       0x40 libraries\drivers\drv_usbh.o
 .bss._ehci0_pipe_idx
                0x20004040        0x1 libraries\drivers\drv_usbh.o
 *fill*         0x20004041        0x1 
 .bss._ehci0_pipe_index
                0x20004042        0x2 libraries\drivers\drv_usbh.o
 .bss._ehci1_pipe_buf
                0x20004044       0x40 libraries\drivers\drv_usbh.o
 .bss._ehci1_pipe_idx
                0x20004084        0x1 libraries\drivers\drv_usbh.o
 *fill*         0x20004085        0x1 
 .bss._ehci1_pipe_index
                0x20004086        0x2 libraries\drivers\drv_usbh.o
 *fill*         0x20004088      0xf78 
 .bss.s_UsbHostEhciFrameList1
                0x20005000     0x1000 libraries\drivers\usb\host\usb_host_ehci.o
 .bss.s_UsbHostEhciFrameList2
                0x20006000     0x1000 libraries\drivers\usb\host\usb_host_ehci.o
 .bss.usbHostEhciFramListStatus
                0x20007000        0x2 libraries\drivers\usb\host\usb_host_ehci.o
 *fill*         0x20007002       0x3e 
 .bss.s_UsbHostEhciData1
                0x20007040      0x5c0 libraries\drivers\usb\host\usb_host_ehci.o
 .bss.s_UsbHostEhciData2
                0x20007600      0x5c0 libraries\drivers\usb\host\usb_host_ehci.o
 .bss.interruptStatus.12644
                0x20007bc0        0x4 libraries\drivers\usb\host\usb_host_ehci.o
 .bss.s_Setupbuffer
                0x20007bc4      0x100 libraries\drivers\usb\host\usb_host_hci.o
 .bss.alloced.4731
                0x20007cc4        0x4 c:/rtthread/env/tools/gnu_gcc/arm_gcc/mingw/bin/../lib/gcc/arm-none-eabi/5.4.1/../../../../arm-none-eabi/lib/armv7e-m/fpu\libc.a(lib_a-setenv_r.o)
 .bss.initial_env
                0x20007cc8        0x4 c:/rtthread/env/tools/gnu_gcc/arm_gcc/mingw/bin/../lib/gcc/arm-none-eabi/5.4.1/../../../../arm-none-eabi/lib/armv7e-m/fpu\libc.a(lib_a-environ.o)
 *(COMMON)
 COMMON         0x20007ccc        0x4 build\kernel\src\kservice.o
                0x20007ccc                rt_assert_hook
 COMMON         0x20007cd0        0xc build\kernel\src\object.o
                0x20007cd0                rt_object_put_hook
                0x20007cd4                rt_object_take_hook
                0x20007cd8                rt_object_trytake_hook
 COMMON         0x20007cdc      0x110 build\kernel\src\scheduler.o
                0x20007cdc                rt_thread_priority_table
                0x20007ddc                rt_current_priority
                0x20007de0                rt_thread_ready_priority_group
                0x20007de4                rt_thread_defunct
 COMMON         0x20007dec        0xc build\kernel\libcpu\arm\cortex-m7\cpuport.o
                0x20007dec                rt_interrupt_to_thread
                0x20007df0                rt_interrupt_from_thread
                0x20007df4                rt_thread_switch_interrupt_flag
 COMMON         0x20007df8       0x28 build\kernel\components\dfs\src\dfs.o
                0x20007df8                filesystem_table
                0x20007e18                filesystem_operation_table
 COMMON         0x20007e20        0x4 build\kernel\components\drivers\usb\usbhost\class\umouse.o
                0x20007e20                mouse_thread
 COMMON         0x20007e24        0x4 build\kernel\components\finsh\shell.o
                0x20007e24                shell
 COMMON         0x20007e28        0x8 libraries\MIMXRT1050\MIMXRT1052\drivers\fsl_clock.o
                0x20007e28                g_xtalFreq
                0x20007e2c                g_rtcXtalFreq
 COMMON         0x20007e30        0x8 libraries\drivers\drv_usbh.o
                0x20007e30                usbh0_thread
                0x20007e34                usbh1_thread
 COMMON         0x20007e38      0x5e0 libraries\drivers\usb\host\usb_host_hci.o
                0x20007e38                g_UsbHostInstance
                0x20008418                . = ALIGN (0x4)
                0x20008418                __bss_end__ = .
                0x20008418                __END_BSS = .

.heap           0x20008418     0x2000 load address 0x6003f418
                0x20008418                . = ALIGN (0x8)
                0x20008418                __end__ = .
                [!provide]                PROVIDE (end, .)
                0x20008418                __HeapBase = .
                0x2000a418                . = (. + HEAP_SIZE)
 *fill*         0x20008418     0x2000 
                0x2000a418                __HeapLimit = .
                0x2000a418                __heap_limit = .

.stack          0x2000a418     0x2000 load address 0x60041418
                0x2000a418                . = ALIGN (0x8)
                0x2000a418                stack_start = .
                0x2000c418                . = (. + STACK_SIZE)
 *fill*         0x2000a418     0x2000 
                0x2000c418                stack_end = .
                0x2000c418                __StackTop = .

.RTT_HEAP       0x2000c418        0x0
                0x2000c418                heap_start = .
                0x2000c418                . = ALIGN (0x8)
                0x20020000                PROVIDE (heap_end, (ORIGIN (m_data) + LENGTH (m_data)))
                0x2000a418                __StackLimit = (__StackTop - STACK_SIZE)
                [!provide]                PROVIDE (__stack, __StackTop)

.ARM.attributes
                0x00000000       0x37
 *(.ARM.attributes)
 .ARM.attributes
                0x00000000       0x39 build\applications\main.o
 .ARM.attributes
                0x00000039       0x39 build\board\board.o
 .ARM.attributes
                0x00000072       0x39 build\board\MCUX_Config\clock_config.o
 .ARM.attributes
                0x000000ab       0x39 build\board\MCUX_Config\pin_mux.o
 .ARM.attributes
                0x000000e4       0x39 build\xip\fsl_flexspi_nor_boot.o
 .ARM.attributes
                0x0000011d       0x39 build\xip\fsl_flexspi_nor_config.o
 .ARM.attributes
                0x00000156       0x39 build\kernel\src\clock.o
 .ARM.attributes
                0x0000018f       0x39 build\kernel\src\components.o
 .ARM.attributes
                0x000001c8       0x39 build\kernel\src\device.o
 .ARM.attributes
                0x00000201       0x39 build\kernel\src\idle.o
 .ARM.attributes
                0x0000023a       0x39 build\kernel\src\ipc.o
 .ARM.attributes
                0x00000273       0x39 build\kernel\src\irq.o
 .ARM.attributes
                0x000002ac       0x39 build\kernel\src\kservice.o
 .ARM.attributes
                0x000002e5       0x39 build\kernel\src\memheap.o
 .ARM.attributes
                0x0000031e       0x39 build\kernel\src\object.o
 .ARM.attributes
                0x00000357       0x39 build\kernel\src\scheduler.o
 .ARM.attributes
                0x00000390       0x39 build\kernel\src\thread.o
 .ARM.attributes
                0x000003c9       0x39 build\kernel\src\timer.o
 .ARM.attributes
                0x00000402       0x39 build\kernel\libcpu\arm\cortex-m7\cpuport.o
 .ARM.attributes
                0x0000043b       0x25 build\kernel\libcpu\arm\cortex-m7\context_gcc.o
 .ARM.attributes
                0x00000460       0x39 build\kernel\components\dfs\src\dfs.o
 .ARM.attributes
                0x00000499       0x39 build\kernel\components\dfs\src\dfs_file.o
 .ARM.attributes
                0x000004d2       0x39 build\kernel\components\dfs\src\dfs_fs.o
 .ARM.attributes
                0x0000050b       0x39 build\kernel\components\dfs\src\dfs_posix.o
 .ARM.attributes
                0x00000544       0x39 build\kernel\components\dfs\filesystems\devfs\devfs.o
 .ARM.attributes
                0x0000057d       0x39 build\kernel\components\dfs\filesystems\elmfat\dfs_elm.o
 .ARM.attributes
                0x000005b6       0x39 build\kernel\components\dfs\filesystems\elmfat\ff.o
 .ARM.attributes
                0x000005ef       0x39 build\kernel\components\dfs\filesystems\elmfat\ffunicode.o
 .ARM.attributes
                0x00000628       0x39 build\kernel\components\drivers\misc\pin.o
 .ARM.attributes
                0x00000661       0x39 build\kernel\components\drivers\misc\pulse_encoder.o
 .ARM.attributes
                0x0000069a       0x39 build\kernel\components\drivers\sdio\block_dev.o
 .ARM.attributes
                0x000006d3       0x39 build\kernel\components\drivers\sdio\mmcsd_core.o
 .ARM.attributes
                0x0000070c       0x39 build\kernel\components\drivers\sdio\sd.o
 .ARM.attributes
                0x00000745       0x39 build\kernel\components\drivers\sdio\sdio.o
 .ARM.attributes
                0x0000077e       0x39 build\kernel\components\drivers\sdio\mmc.o
 .ARM.attributes
                0x000007b7       0x39 build\kernel\components\drivers\serial\serial.o
 .ARM.attributes
                0x000007f0       0x39 build\kernel\components\drivers\src\completion.o
 .ARM.attributes
                0x00000829       0x39 build\kernel\components\drivers\src\dataqueue.o
 .ARM.attributes
                0x00000862       0x39 build\kernel\components\drivers\src\waitqueue.o
 .ARM.attributes
                0x0000089b       0x39 build\kernel\components\drivers\usb\usbhost\core\usbhost_core.o
 .ARM.attributes
                0x000008d4       0x39 build\kernel\components\drivers\usb\usbhost\core\driver.o
 .ARM.attributes
                0x0000090d       0x39 build\kernel\components\drivers\usb\usbhost\core\usbhost.o
 .ARM.attributes
                0x00000946       0x39 build\kernel\components\drivers\usb\usbhost\core\hub.o
 .ARM.attributes
                0x0000097f       0x39 build\kernel\components\drivers\usb\usbhost\class\mass.o
 .ARM.attributes
                0x000009b8       0x39 build\kernel\components\drivers\usb\usbhost\class\udisk.o
 .ARM.attributes
                0x000009f1       0x39 build\kernel\components\drivers\usb\usbhost\class\hid.o
 .ARM.attributes
                0x00000a2a       0x39 build\kernel\components\drivers\usb\usbhost\class\umouse.o
 .ARM.attributes
                0x00000a63       0x39 build\kernel\components\finsh\shell.o
 .ARM.attributes
                0x00000a9c       0x39 build\kernel\components\finsh\cmd.o
 .ARM.attributes
                0x00000ad5       0x39 build\kernel\components\finsh\msh.o
 .ARM.attributes
                0x00000b0e       0x39 build\kernel\components\finsh\msh_file.o
 .ARM.attributes
                0x00000b47       0x39 build\kernel\components\libc\compilers\common\time.o
 .ARM.attributes
                0x00000b80       0x39 build\kernel\components\libc\compilers\newlib\libc.o
 .ARM.attributes
                0x00000bb9       0x39 build\kernel\components\libc\compilers\newlib\stdio.o
 .ARM.attributes
                0x00000bf2       0x39 build\kernel\components\libc\compilers\newlib\syscalls.o
 .ARM.attributes
                0x00000c2b       0x39 libraries\MIMXRT1050\MIMXRT1052\system_MIMXRT1052.o
 .ARM.attributes
                0x00000c64       0x39 libraries\MIMXRT1050\MIMXRT1052\drivers\fsl_clock.o
 .ARM.attributes
                0x00000c9d       0x39 libraries\MIMXRT1050\MIMXRT1052\drivers\fsl_cache.o
 .ARM.attributes
                0x00000cd6       0x1f libraries\MIMXRT1050\MIMXRT1052\gcc\startup_MIMXRT1052.o
 .ARM.attributes
                0x00000cf5       0x39 libraries\MIMXRT1050\MIMXRT1052\drivers\fsl_gpio.o
 .ARM.attributes
                0x00000d2e       0x39 libraries\MIMXRT1050\MIMXRT1052\drivers\fsl_lpuart.o
 .ARM.attributes
                0x00000d67       0x39 libraries\MIMXRT1050\MIMXRT1052\drivers\fsl_usdhc.o
 .ARM.attributes
                0x00000da0       0x39 libraries\MIMXRT1050\MIMXRT1052\drivers\fsl_enc.o
 .ARM.attributes
                0x00000dd9       0x39 libraries\MIMXRT1050\MIMXRT1052\drivers\fsl_xbara.o
 .ARM.attributes
                0x00000e12       0x39 libraries\MIMXRT1050\MIMXRT1052\drivers\fsl_os_abstraction_rtthread.o
 .ARM.attributes
                0x00000e4b       0x39 libraries\drivers\drv_gpio.o
 .ARM.attributes
                0x00000e84       0x39 libraries\drivers\drv_uart.o
 .ARM.attributes
                0x00000ebd       0x39 libraries\drivers\drv_sdio.o
 .ARM.attributes
                0x00000ef6       0x39 libraries\drivers\drv_pulse_encoder.o
 .ARM.attributes
                0x00000f2f       0x39 libraries\drivers\usb\phy\usb_phy.o
 .ARM.attributes
                0x00000f68       0x39 libraries\drivers\drv_usbh.o
 .ARM.attributes
                0x00000fa1       0x39 libraries\drivers\usb\host\usb_host_devices.o
 .ARM.attributes
                0x00000fda       0x39 libraries\drivers\usb\host\usb_host_ehci.o
 .ARM.attributes
                0x00001013       0x39 libraries\drivers\usb\host\usb_host_framework.o
 .ARM.attributes
                0x0000104c       0x39 libraries\drivers\usb\host\usb_host_hci.o
 .ARM.attributes
                0x00001085       0x34 c:/rtthread/env/tools/gnu_gcc/arm_gcc/mingw/bin/../lib/gcc/arm-none-eabi/5.4.1/../../../../arm-none-eabi/lib/armv7e-m/fpu\libc.a(lib_a-assert.o)
 .ARM.attributes
                0x000010b9       0x34 c:/rtthread/env/tools/gnu_gcc/arm_gcc/mingw/bin/../lib/gcc/arm-none-eabi/5.4.1/../../../../arm-none-eabi/lib/armv7e-m/fpu\libc.a(lib_a-fclose.o)
 .ARM.attributes
                0x000010ed       0x34 c:/rtthread/env/tools/gnu_gcc/arm_gcc/mingw/bin/../lib/gcc/arm-none-eabi/5.4.1/../../../../arm-none-eabi/lib/armv7e-m/fpu\libc.a(lib_a-fflush.o)
 .ARM.attributes
                0x00001121       0x34 c:/rtthread/env/tools/gnu_gcc/arm_gcc/mingw/bin/../lib/gcc/arm-none-eabi/5.4.1/../../../../arm-none-eabi/lib/armv7e-m/fpu\libc.a(lib_a-fileno.o)
 .ARM.attributes
                0x00001155       0x34 c:/rtthread/env/tools/gnu_gcc/arm_gcc/mingw/bin/../lib/gcc/arm-none-eabi/5.4.1/../../../../arm-none-eabi/lib/armv7e-m/fpu\libc.a(lib_a-findfp.o)
 .ARM.attributes
                0x00001189       0x34 c:/rtthread/env/tools/gnu_gcc/arm_gcc/mingw/bin/../lib/gcc/arm-none-eabi/5.4.1/../../../../arm-none-eabi/lib/armv7e-m/fpu\libc.a(lib_a-fiprintf.o)
 .ARM.attributes
                0x000011bd       0x34 c:/rtthread/env/tools/gnu_gcc/arm_gcc/mingw/bin/../lib/gcc/arm-none-eabi/5.4.1/../../../../arm-none-eabi/lib/armv7e-m/fpu\libc.a(lib_a-fopen.o)
 .ARM.attributes
                0x000011f1       0x34 c:/rtthread/env/tools/gnu_gcc/arm_gcc/mingw/bin/../lib/gcc/arm-none-eabi/5.4.1/../../../../arm-none-eabi/lib/armv7e-m/fpu\libc.a(lib_a-fseek.o)
 .ARM.attributes
                0x00001225       0x34 c:/rtthread/env/tools/gnu_gcc/arm_gcc/mingw/bin/../lib/gcc/arm-none-eabi/5.4.1/../../../../arm-none-eabi/lib/armv7e-m/fpu\libc.a(lib_a-fseeko.o)
 .ARM.attributes
                0x00001259       0x34 c:/rtthread/env/tools/gnu_gcc/arm_gcc/mingw/bin/../lib/gcc/arm-none-eabi/5.4.1/../../../../arm-none-eabi/lib/armv7e-m/fpu\libc.a(lib_a-fwalk.o)
 .ARM.attributes
                0x0000128d       0x34 c:/rtthread/env/tools/gnu_gcc/arm_gcc/mingw/bin/../lib/gcc/arm-none-eabi/5.4.1/../../../../arm-none-eabi/lib/armv7e-m/fpu\libc.a(lib_a-impure.o)
 .ARM.attributes
                0x000012c1       0x34 c:/rtthread/env/tools/gnu_gcc/arm_gcc/mingw/bin/../lib/gcc/arm-none-eabi/5.4.1/../../../../arm-none-eabi/lib/armv7e-m/fpu\libc.a(lib_a-makebuf.o)
 .ARM.attributes
                0x000012f5       0x34 c:/rtthread/env/tools/gnu_gcc/arm_gcc/mingw/bin/../lib/gcc/arm-none-eabi/5.4.1/../../../../arm-none-eabi/lib/armv7e-m/fpu\libc.a(lib_a-malloc.o)
 .ARM.attributes
                0x00001329       0x34 c:/rtthread/env/tools/gnu_gcc/arm_gcc/mingw/bin/../lib/gcc/arm-none-eabi/5.4.1/../../../../arm-none-eabi/lib/armv7e-m/fpu\libc.a(lib_a-memcmp.o)
 .ARM.attributes
                0x0000135d       0x20 c:/rtthread/env/tools/gnu_gcc/arm_gcc/mingw/bin/../lib/gcc/arm-none-eabi/5.4.1/../../../../arm-none-eabi/lib/armv7e-m/fpu\libc.a(lib_a-memcpy.o)
 .ARM.attributes
                0x0000137d       0x34 c:/rtthread/env/tools/gnu_gcc/arm_gcc/mingw/bin/../lib/gcc/arm-none-eabi/5.4.1/../../../../arm-none-eabi/lib/armv7e-m/fpu\libc.a(lib_a-memset.o)
 .ARM.attributes
                0x000013b1       0x34 c:/rtthread/env/tools/gnu_gcc/arm_gcc/mingw/bin/../lib/gcc/arm-none-eabi/5.4.1/../../../../arm-none-eabi/lib/armv7e-m/fpu\libc.a(lib_a-putenv.o)
 .ARM.attributes
                0x000013e5       0x34 c:/rtthread/env/tools/gnu_gcc/arm_gcc/mingw/bin/../lib/gcc/arm-none-eabi/5.4.1/../../../../arm-none-eabi/lib/armv7e-m/fpu\libc.a(lib_a-putenv_r.o)
 .ARM.attributes
                0x00001419       0x34 c:/rtthread/env/tools/gnu_gcc/arm_gcc/mingw/bin/../lib/gcc/arm-none-eabi/5.4.1/../../../../arm-none-eabi/lib/armv7e-m/fpu\libc.a(lib_a-refill.o)
 .ARM.attributes
                0x0000144d       0x34 c:/rtthread/env/tools/gnu_gcc/arm_gcc/mingw/bin/../lib/gcc/arm-none-eabi/5.4.1/../../../../arm-none-eabi/lib/armv7e-m/fpu\libc.a(lib_a-rget.o)
 .ARM.attributes
                0x00001481       0x34 c:/rtthread/env/tools/gnu_gcc/arm_gcc/mingw/bin/../lib/gcc/arm-none-eabi/5.4.1/../../../../arm-none-eabi/lib/armv7e-m/fpu\libc.a(lib_a-setenv_r.o)
 .ARM.attributes
                0x000014b5       0x34 c:/rtthread/env/tools/gnu_gcc/arm_gcc/mingw/bin/../lib/gcc/arm-none-eabi/5.4.1/../../../../arm-none-eabi/lib/armv7e-m/fpu\libc.a(lib_a-setvbuf.o)
 .ARM.attributes
                0x000014e9       0x34 c:/rtthread/env/tools/gnu_gcc/arm_gcc/mingw/bin/../lib/gcc/arm-none-eabi/5.4.1/../../../../arm-none-eabi/lib/armv7e-m/fpu\libc.a(lib_a-snprintf.o)
 .ARM.attributes
                0x0000151d       0x34 c:/rtthread/env/tools/gnu_gcc/arm_gcc/mingw/bin/../lib/gcc/arm-none-eabi/5.4.1/../../../../arm-none-eabi/lib/armv7e-m/fpu\libc.a(lib_a-stdio.o)
 .ARM.attributes
                0x00001551       0x34 c:/rtthread/env/tools/gnu_gcc/arm_gcc/mingw/bin/../lib/gcc/arm-none-eabi/5.4.1/../../../../arm-none-eabi/lib/armv7e-m/fpu\libc.a(lib_a-strchr.o)
 .ARM.attributes
                0x00001585       0x20 c:/rtthread/env/tools/gnu_gcc/arm_gcc/mingw/bin/../lib/gcc/arm-none-eabi/5.4.1/../../../../arm-none-eabi/lib/armv7e-m/fpu\libc.a(lib_a-strcmp.o)
 .ARM.attributes
                0x000015a5       0x34 c:/rtthread/env/tools/gnu_gcc/arm_gcc/mingw/bin/../lib/gcc/arm-none-eabi/5.4.1/../../../../arm-none-eabi/lib/armv7e-m/fpu\libc.a(lib_a-strcpy.o)
 .ARM.attributes
                0x000015d9       0x34 c:/rtthread/env/tools/gnu_gcc/arm_gcc/mingw/bin/../lib/gcc/arm-none-eabi/5.4.1/../../../../arm-none-eabi/lib/armv7e-m/fpu\libc.a(lib_a-strdup_r.o)
 .ARM.attributes
                0x0000160d       0x20 c:/rtthread/env/tools/gnu_gcc/arm_gcc/mingw/bin/../lib/gcc/arm-none-eabi/5.4.1/../../../../arm-none-eabi/lib/armv7e-m/fpu\libc.a(lib_a-strlen.o)
 .ARM.attributes
                0x0000162d       0x34 c:/rtthread/env/tools/gnu_gcc/arm_gcc/mingw/bin/../lib/gcc/arm-none-eabi/5.4.1/../../../../arm-none-eabi/lib/armv7e-m/fpu\libc.a(lib_a-strncmp.o)
 .ARM.attributes
                0x00001661       0x34 c:/rtthread/env/tools/gnu_gcc/arm_gcc/mingw/bin/../lib/gcc/arm-none-eabi/5.4.1/../../../../arm-none-eabi/lib/armv7e-m/fpu\libc.a(lib_a-strncpy.o)
 .ARM.attributes
                0x00001695       0x34 c:/rtthread/env/tools/gnu_gcc/arm_gcc/mingw/bin/../lib/gcc/arm-none-eabi/5.4.1/../../../../arm-none-eabi/lib/armv7e-m/fpu\libc.a(lib_a-strrchr.o)
 .ARM.attributes
                0x000016c9       0x34 c:/rtthread/env/tools/gnu_gcc/arm_gcc/mingw/bin/../lib/gcc/arm-none-eabi/5.4.1/../../../../arm-none-eabi/lib/armv7e-m/fpu\libc.a(lib_a-strstr.o)
 .ARM.attributes
                0x000016fd       0x34 c:/rtthread/env/tools/gnu_gcc/arm_gcc/mingw/bin/../lib/gcc/arm-none-eabi/5.4.1/../../../../arm-none-eabi/lib/armv7e-m/fpu\libc.a(lib_a-svfprintf.o)
 .ARM.attributes
                0x00001731       0x34 c:/rtthread/env/tools/gnu_gcc/arm_gcc/mingw/bin/../lib/gcc/arm-none-eabi/5.4.1/../../../../arm-none-eabi/lib/armv7e-m/fpu\libc.a(lib_a-vfiprintf.o)
 .ARM.attributes
                0x00001765       0x34 c:/rtthread/env/tools/gnu_gcc/arm_gcc/mingw/bin/../lib/gcc/arm-none-eabi/5.4.1/../../../../arm-none-eabi/lib/armv7e-m/fpu\libc.a(lib_a-wsetup.o)
 .ARM.attributes
                0x00001799       0x34 c:/rtthread/env/tools/gnu_gcc/arm_gcc/mingw/bin/../lib/gcc/arm-none-eabi/5.4.1/../../../../arm-none-eabi/lib/armv7e-m/fpu\libc.a(lib_a-dtoa.o)
 .ARM.attributes
                0x000017cd       0x34 c:/rtthread/env/tools/gnu_gcc/arm_gcc/mingw/bin/../lib/gcc/arm-none-eabi/5.4.1/../../../../arm-none-eabi/lib/armv7e-m/fpu\libc.a(lib_a-environ.o)
 .ARM.attributes
                0x00001801       0x34 c:/rtthread/env/tools/gnu_gcc/arm_gcc/mingw/bin/../lib/gcc/arm-none-eabi/5.4.1/../../../../arm-none-eabi/lib/armv7e-m/fpu\libc.a(lib_a-envlock.o)
 .ARM.attributes
                0x00001835       0x34 c:/rtthread/env/tools/gnu_gcc/arm_gcc/mingw/bin/../lib/gcc/arm-none-eabi/5.4.1/../../../../arm-none-eabi/lib/armv7e-m/fpu\libc.a(lib_a-flags.o)
 .ARM.attributes
                0x00001869       0x34 c:/rtthread/env/tools/gnu_gcc/arm_gcc/mingw/bin/../lib/gcc/arm-none-eabi/5.4.1/../../../../arm-none-eabi/lib/armv7e-m/fpu\libc.a(lib_a-fputwc.o)
 .ARM.attributes
                0x0000189d       0x34 c:/rtthread/env/tools/gnu_gcc/arm_gcc/mingw/bin/../lib/gcc/arm-none-eabi/5.4.1/../../../../arm-none-eabi/lib/armv7e-m/fpu\libc.a(lib_a-fvwrite.o)
 .ARM.attributes
                0x000018d1       0x34 c:/rtthread/env/tools/gnu_gcc/arm_gcc/mingw/bin/../lib/gcc/arm-none-eabi/5.4.1/../../../../arm-none-eabi/lib/armv7e-m/fpu\libc.a(lib_a-getenv_r.o)
 .ARM.attributes
                0x00001905       0x34 c:/rtthread/env/tools/gnu_gcc/arm_gcc/mingw/bin/../lib/gcc/arm-none-eabi/5.4.1/../../../../arm-none-eabi/lib/armv7e-m/fpu\libc.a(lib_a-locale.o)
 .ARM.attributes
                0x00001939       0x34 c:/rtthread/env/tools/gnu_gcc/arm_gcc/mingw/bin/../lib/gcc/arm-none-eabi/5.4.1/../../../../arm-none-eabi/lib/armv7e-m/fpu\libc.a(lib_a-localeconv.o)
 .ARM.attributes
                0x0000196d       0x34 c:/rtthread/env/tools/gnu_gcc/arm_gcc/mingw/bin/../lib/gcc/arm-none-eabi/5.4.1/../../../../arm-none-eabi/lib/armv7e-m/fpu\libc.a(lib_a-mbtowc_r.o)
 .ARM.attributes
                0x000019a1       0x20 c:/rtthread/env/tools/gnu_gcc/arm_gcc/mingw/bin/../lib/gcc/arm-none-eabi/5.4.1/../../../../arm-none-eabi/lib/armv7e-m/fpu\libc.a(lib_a-memchr.o)
 .ARM.attributes
                0x000019c1       0x34 c:/rtthread/env/tools/gnu_gcc/arm_gcc/mingw/bin/../lib/gcc/arm-none-eabi/5.4.1/../../../../arm-none-eabi/lib/armv7e-m/fpu\libc.a(lib_a-memmove.o)
 .ARM.attributes
                0x000019f5       0x34 c:/rtthread/env/tools/gnu_gcc/arm_gcc/mingw/bin/../lib/gcc/arm-none-eabi/5.4.1/../../../../arm-none-eabi/lib/armv7e-m/fpu\libc.a(lib_a-mprec.o)
 .ARM.attributes
                0x00001a29       0x34 c:/rtthread/env/tools/gnu_gcc/arm_gcc/mingw/bin/../lib/gcc/arm-none-eabi/5.4.1/../../../../arm-none-eabi/lib/armv7e-m/fpu\libc.a(lib_a-svfiprintf.o)
 .ARM.attributes
                0x00001a5d       0x34 c:/rtthread/env/tools/gnu_gcc/arm_gcc/mingw/bin/../lib/gcc/arm-none-eabi/5.4.1/../../../../arm-none-eabi/lib/armv7e-m/fpu\libc.a(lib_a-wbuf.o)
 .ARM.attributes
                0x00001a91       0x34 c:/rtthread/env/tools/gnu_gcc/arm_gcc/mingw/bin/../lib/gcc/arm-none-eabi/5.4.1/../../../../arm-none-eabi/lib/armv7e-m/fpu\libc.a(lib_a-wcrtomb.o)
 .ARM.attributes
                0x00001ac5       0x34 c:/rtthread/env/tools/gnu_gcc/arm_gcc/mingw/bin/../lib/gcc/arm-none-eabi/5.4.1/../../../../arm-none-eabi/lib/armv7e-m/fpu\libc.a(lib_a-wctomb_r.o)
 .ARM.attributes
                0x00001af9       0x34 c:/rtthread/env/tools/gnu_gcc/arm_gcc/mingw/bin/../lib/gcc/arm-none-eabi/5.4.1/../../../../arm-none-eabi/lib/armv7e-m/fpu\libc.a(lib_a-ctype_.o)
 .ARM.attributes
                0x00001b2d       0x22 c:/rtthread/env/tools/gnu_gcc/arm_gcc/mingw/bin/../lib/gcc/arm-none-eabi/5.4.1/armv7e-m/fpu\libgcc.a(_arm_addsubdf3.o)
 .ARM.attributes
                0x00001b4f       0x22 c:/rtthread/env/tools/gnu_gcc/arm_gcc/mingw/bin/../lib/gcc/arm-none-eabi/5.4.1/armv7e-m/fpu\libgcc.a(_arm_muldivdf3.o)
 .ARM.attributes
                0x00001b71       0x22 c:/rtthread/env/tools/gnu_gcc/arm_gcc/mingw/bin/../lib/gcc/arm-none-eabi/5.4.1/armv7e-m/fpu\libgcc.a(_arm_cmpdf2.o)
 .ARM.attributes
                0x00001b93       0x22 c:/rtthread/env/tools/gnu_gcc/arm_gcc/mingw/bin/../lib/gcc/arm-none-eabi/5.4.1/armv7e-m/fpu\libgcc.a(_arm_unorddf2.o)
 .ARM.attributes
                0x00001bb5       0x22 c:/rtthread/env/tools/gnu_gcc/arm_gcc/mingw/bin/../lib/gcc/arm-none-eabi/5.4.1/armv7e-m/fpu\libgcc.a(_arm_fixdfsi.o)
 .ARM.attributes
                0x00001bd7       0x22 c:/rtthread/env/tools/gnu_gcc/arm_gcc/mingw/bin/../lib/gcc/arm-none-eabi/5.4.1/armv7e-m/fpu\libgcc.a(_aeabi_uldivmod.o)
 .ARM.attributes
                0x00001bf9       0x34 c:/rtthread/env/tools/gnu_gcc/arm_gcc/mingw/bin/../lib/gcc/arm-none-eabi/5.4.1/armv7e-m/fpu\libgcc.a(_udivmoddi4.o)
 .ARM.attributes
                0x00001c2d       0x22 c:/rtthread/env/tools/gnu_gcc/arm_gcc/mingw/bin/../lib/gcc/arm-none-eabi/5.4.1/armv7e-m/fpu\libgcc.a(_dvmd_tls.o)
                0x00000001                ASSERT ((__StackLimit >= __HeapLimit), region m_data overflowed with stack and heap)
OUTPUT(rtthread.elf elf32-littlearm)

.debug_info     0x00000000    0x5806a
 .debug_info    0x00000000      0x5cb build\applications\main.o
 .debug_info    0x000005cb      0xea3 build\board\board.o
 .debug_info    0x0000146e     0x18bd build\board\MCUX_Config\clock_config.o
 .debug_info    0x00002d2b     0x1a6f build\board\MCUX_Config\pin_mux.o
 .debug_info    0x0000479a      0xa9c build\xip\fsl_flexspi_nor_boot.o
 .debug_info    0x00005236      0xe56 build\xip\fsl_flexspi_nor_config.o
 .debug_info    0x0000608c      0x444 build\kernel\src\clock.o
 .debug_info    0x000064d0      0x557 build\kernel\src\components.o
 .debug_info    0x00006a27      0x9dc build\kernel\src\device.o
 .debug_info    0x00007403      0x638 build\kernel\src\idle.o
 .debug_info    0x00007a3b     0x1bee build\kernel\src\ipc.o
 .debug_info    0x00009629      0x1bb build\kernel\src\irq.o
 .debug_info    0x000097e4     0x130c build\kernel\src\kservice.o
 .debug_info    0x0000aaf0      0x8f4 build\kernel\src\memheap.o
 .debug_info    0x0000b3e4      0x897 build\kernel\src\object.o
 .debug_info    0x0000bc7b      0x7d7 build\kernel\src\scheduler.o
 .debug_info    0x0000c452      0xc35 build\kernel\src\thread.o
 .debug_info    0x0000d087      0x904 build\kernel\src\timer.o
 .debug_info    0x0000d98b      0x426 build\kernel\libcpu\arm\cortex-m7\cpuport.o
 .debug_info    0x0000ddb1       0xbb build\kernel\libcpu\arm\cortex-m7\context_gcc.o
 .debug_info    0x0000de6c     0x13bb build\kernel\components\dfs\src\dfs.o
 .debug_info    0x0000f227     0x1456 build\kernel\components\dfs\src\dfs_file.o
 .debug_info    0x0001067d     0x11e8 build\kernel\components\dfs\src\dfs_fs.o
 .debug_info    0x00011865     0x150f build\kernel\components\dfs\src\dfs_posix.o
 .debug_info    0x00012d74     0x10c0 build\kernel\components\dfs\filesystems\devfs\devfs.o
 .debug_info    0x00013e34     0x2228 build\kernel\components\dfs\filesystems\elmfat\dfs_elm.o
 .debug_info    0x0001605c     0x29a4 build\kernel\components\dfs\filesystems\elmfat\ff.o
 .debug_info    0x00018a00      0x280 build\kernel\components\dfs\filesystems\elmfat\ffunicode.o
 .debug_info    0x00018c80      0xc3d build\kernel\components\drivers\misc\pin.o
 .debug_info    0x000198bd      0x760 build\kernel\components\drivers\misc\pulse_encoder.o
 .debug_info    0x0001a01d     0x166f build\kernel\components\drivers\sdio\block_dev.o
 .debug_info    0x0001b68c     0x1628 build\kernel\components\drivers\sdio\mmcsd_core.o
 .debug_info    0x0001ccb4     0x12f6 build\kernel\components\drivers\sdio\sd.o
 .debug_info    0x0001dfaa     0x210c build\kernel\components\drivers\sdio\sdio.o
 .debug_info    0x000200b6     0x128a build\kernel\components\drivers\sdio\mmc.o
 .debug_info    0x00021340     0x1cc7 build\kernel\components\drivers\serial\serial.o
 .debug_info    0x00023007      0x59c build\kernel\components\drivers\src\completion.o
 .debug_info    0x000235a3      0x8e6 build\kernel\components\drivers\src\dataqueue.o
 .debug_info    0x00023e89      0x6f6 build\kernel\components\drivers\src\waitqueue.o
 .debug_info    0x0002457f     0x1587 build\kernel\components\drivers\usb\usbhost\core\usbhost_core.o
 .debug_info    0x00025b06      0x3d3 build\kernel\components\drivers\usb\usbhost\core\driver.o
 .debug_info    0x00025ed9      0xd6c build\kernel\components\drivers\usb\usbhost\core\usbhost.o
 .debug_info    0x00026c45     0x18dd build\kernel\components\drivers\usb\usbhost\core\hub.o
 .debug_info    0x00028522     0x15bc build\kernel\components\drivers\usb\usbhost\class\mass.o
 .debug_info    0x00029ade     0x130c build\kernel\components\drivers\usb\usbhost\class\udisk.o
 .debug_info    0x0002adea     0x14d7 build\kernel\components\drivers\usb\usbhost\class\hid.o
 .debug_info    0x0002c2c1     0x102e build\kernel\components\drivers\usb\usbhost\class\umouse.o
 .debug_info    0x0002d2ef     0x12d1 build\kernel\components\finsh\shell.o
 .debug_info    0x0002e5c0     0x1e05 build\kernel\components\finsh\cmd.o
 .debug_info    0x000303c5      0x803 build\kernel\components\finsh\msh.o
 .debug_info    0x00030bc8      0xce3 build\kernel\components\finsh\msh_file.o
 .debug_info    0x000318ab      0x91a build\kernel\components\libc\compilers\common\time.o
 .debug_info    0x000321c5      0x4a2 build\kernel\components\libc\compilers\newlib\libc.o
 .debug_info    0x00032667      0xa16 build\kernel\components\libc\compilers\newlib\stdio.o
 .debug_info    0x0003307d     0x2042 build\kernel\components\libc\compilers\newlib\syscalls.o
 .debug_info    0x000350bf      0xdb8 libraries\MIMXRT1050\MIMXRT1052\system_MIMXRT1052.o
 .debug_info    0x00035e77     0x1f6a libraries\MIMXRT1050\MIMXRT1052\drivers\fsl_clock.o
 .debug_info    0x00037de1      0x924 libraries\MIMXRT1050\MIMXRT1052\drivers\fsl_cache.o
 .debug_info    0x00038705       0xc7 libraries\MIMXRT1050\MIMXRT1052\gcc\startup_MIMXRT1052.o
 .debug_info    0x000387cc     0x112a libraries\MIMXRT1050\MIMXRT1052\drivers\fsl_gpio.o
 .debug_info    0x000398f6     0x2798 libraries\MIMXRT1050\MIMXRT1052\drivers\fsl_lpuart.o
 .debug_info    0x0003c08e     0x33dc libraries\MIMXRT1050\MIMXRT1052\drivers\fsl_usdhc.o
 .debug_info    0x0003f46a     0x1656 libraries\MIMXRT1050\MIMXRT1052\drivers\fsl_enc.o
 .debug_info    0x00040ac0     0x1ef6 libraries\MIMXRT1050\MIMXRT1052\drivers\fsl_xbara.o
 .debug_info    0x000429b6     0x1a5d libraries\MIMXRT1050\MIMXRT1052\drivers\fsl_os_abstraction_rtthread.o
 .debug_info    0x00044413     0x2674 libraries\drivers\drv_gpio.o
 .debug_info    0x00046a87     0x2730 libraries\drivers\drv_uart.o
 .debug_info    0x000491b7     0x27a9 libraries\drivers\drv_sdio.o
 .debug_info    0x0004b960     0x135c libraries\drivers\drv_pulse_encoder.o
 .debug_info    0x0004ccbc      0x727 libraries\drivers\usb\phy\usb_phy.o
 .debug_info    0x0004d3e3     0x3137 libraries\drivers\drv_usbh.o
 .debug_info    0x0005051a     0x1fb4 libraries\drivers\usb\host\usb_host_devices.o
 .debug_info    0x000524ce     0x2f8b libraries\drivers\usb\host\usb_host_ehci.o
 .debug_info    0x00055459      0xe3c libraries\drivers\usb\host\usb_host_framework.o
 .debug_info    0x00056295     0x1dd5 libraries\drivers\usb\host\usb_host_hci.o

.debug_abbrev   0x00000000     0x99bd
 .debug_abbrev  0x00000000      0x181 build\applications\main.o
 .debug_abbrev  0x00000181      0x1be build\board\board.o
 .debug_abbrev  0x0000033f      0x1c9 build\board\MCUX_Config\clock_config.o
 .debug_abbrev  0x00000508      0x1c2 build\board\MCUX_Config\pin_mux.o
 .debug_abbrev  0x000006ca      0x124 build\xip\fsl_flexspi_nor_boot.o
 .debug_abbrev  0x000007ee      0x130 build\xip\fsl_flexspi_nor_config.o
 .debug_abbrev  0x0000091e      0x13c build\kernel\src\clock.o
 .debug_abbrev  0x00000a5a      0x166 build\kernel\src\components.o
 .debug_abbrev  0x00000bc0      0x1ca build\kernel\src\device.o
 .debug_abbrev  0x00000d8a      0x1d3 build\kernel\src\idle.o
 .debug_abbrev  0x00000f5d      0x1ee build\kernel\src\ipc.o
 .debug_abbrev  0x0000114b       0xde build\kernel\src\irq.o
 .debug_abbrev  0x00001229      0x2ca build\kernel\src\kservice.o
 .debug_abbrev  0x000014f3      0x18e build\kernel\src\memheap.o
 .debug_abbrev  0x00001681      0x1e2 build\kernel\src\object.o
 .debug_abbrev  0x00001863      0x227 build\kernel\src\scheduler.o
 .debug_abbrev  0x00001a8a      0x21f build\kernel\src\thread.o
 .debug_abbrev  0x00001ca9      0x27f build\kernel\src\timer.o
 .debug_abbrev  0x00001f28      0x1d6 build\kernel\libcpu\arm\cortex-m7\cpuport.o
 .debug_abbrev  0x000020fe       0x14 build\kernel\libcpu\arm\cortex-m7\context_gcc.o
 .debug_abbrev  0x00002112      0x290 build\kernel\components\dfs\src\dfs.o
 .debug_abbrev  0x000023a2      0x26a build\kernel\components\dfs\src\dfs_file.o
 .debug_abbrev  0x0000260c      0x22d build\kernel\components\dfs\src\dfs_fs.o
 .debug_abbrev  0x00002839      0x23b build\kernel\components\dfs\src\dfs_posix.o
 .debug_abbrev  0x00002a74      0x20a build\kernel\components\dfs\filesystems\devfs\devfs.o
 .debug_abbrev  0x00002c7e      0x30d build\kernel\components\dfs\filesystems\elmfat\dfs_elm.o
 .debug_abbrev  0x00002f8b      0x218 build\kernel\components\dfs\filesystems\elmfat\ff.o
 .debug_abbrev  0x000031a3       0xa4 build\kernel\components\dfs\filesystems\elmfat\ffunicode.o
 .debug_abbrev  0x00003247      0x1b0 build\kernel\components\drivers\misc\pin.o
 .debug_abbrev  0x000033f7      0x175 build\kernel\components\drivers\misc\pulse_encoder.o
 .debug_abbrev  0x0000356c      0x274 build\kernel\components\drivers\sdio\block_dev.o
 .debug_abbrev  0x000037e0      0x2a7 build\kernel\components\drivers\sdio\mmcsd_core.o
 .debug_abbrev  0x00003a87      0x227 build\kernel\components\drivers\sdio\sd.o
 .debug_abbrev  0x00003cae      0x2d5 build\kernel\components\drivers\sdio\sdio.o
 .debug_abbrev  0x00003f83      0x20d build\kernel\components\drivers\sdio\mmc.o
 .debug_abbrev  0x00004190      0x264 build\kernel\components\drivers\serial\serial.o
 .debug_abbrev  0x000043f4      0x182 build\kernel\components\drivers\src\completion.o
 .debug_abbrev  0x00004576      0x201 build\kernel\components\drivers\src\dataqueue.o
 .debug_abbrev  0x00004777      0x1c7 build\kernel\components\drivers\src\waitqueue.o
 .debug_abbrev  0x0000493e      0x215 build\kernel\components\drivers\usb\usbhost\core\usbhost_core.o
 .debug_abbrev  0x00004b53      0x15d build\kernel\components\drivers\usb\usbhost\core\driver.o
 .debug_abbrev  0x00004cb0      0x17c build\kernel\components\drivers\usb\usbhost\core\usbhost.o
 .debug_abbrev  0x00004e2c      0x2ec build\kernel\components\drivers\usb\usbhost\core\hub.o
 .debug_abbrev  0x00005118      0x258 build\kernel\components\drivers\usb\usbhost\class\mass.o
 .debug_abbrev  0x00005370      0x230 build\kernel\components\drivers\usb\usbhost\class\udisk.o
 .debug_abbrev  0x000055a0      0x271 build\kernel\components\drivers\usb\usbhost\class\hid.o
 .debug_abbrev  0x00005811      0x1c3 build\kernel\components\drivers\usb\usbhost\class\umouse.o
 .debug_abbrev  0x000059d4      0x31b build\kernel\components\finsh\shell.o
 .debug_abbrev  0x00005cef      0x295 build\kernel\components\finsh\cmd.o
 .debug_abbrev  0x00005f84      0x26e build\kernel\components\finsh\msh.o
 .debug_abbrev  0x000061f2      0x20f build\kernel\components\finsh\msh_file.o
 .debug_abbrev  0x00006401      0x1ce build\kernel\components\libc\compilers\common\time.o
 .debug_abbrev  0x000065cf      0x10c build\kernel\components\libc\compilers\newlib\libc.o
 .debug_abbrev  0x000066db      0x1c5 build\kernel\components\libc\compilers\newlib\stdio.o
 .debug_abbrev  0x000068a0      0x321 build\kernel\components\libc\compilers\newlib\syscalls.o
 .debug_abbrev  0x00006bc1      0x15e libraries\MIMXRT1050\MIMXRT1052\system_MIMXRT1052.o
 .debug_abbrev  0x00006d1f      0x32c libraries\MIMXRT1050\MIMXRT1052\drivers\fsl_clock.o
 .debug_abbrev  0x0000704b      0x192 libraries\MIMXRT1050\MIMXRT1052\drivers\fsl_cache.o
 .debug_abbrev  0x000071dd       0x14 libraries\MIMXRT1050\MIMXRT1052\gcc\startup_MIMXRT1052.o
 .debug_abbrev  0x000071f1      0x218 libraries\MIMXRT1050\MIMXRT1052\drivers\fsl_gpio.o
 .debug_abbrev  0x00007409      0x2d0 libraries\MIMXRT1050\MIMXRT1052\drivers\fsl_lpuart.o
 .debug_abbrev  0x000076d9      0x2f9 libraries\MIMXRT1050\MIMXRT1052\drivers\fsl_usdhc.o
 .debug_abbrev  0x000079d2      0x218 libraries\MIMXRT1050\MIMXRT1052\drivers\fsl_enc.o
 .debug_abbrev  0x00007bea      0x1fe libraries\MIMXRT1050\MIMXRT1052\drivers\fsl_xbara.o
 .debug_abbrev  0x00007de8      0x2e7 libraries\MIMXRT1050\MIMXRT1052\drivers\fsl_os_abstraction_rtthread.o
 .debug_abbrev  0x000080cf      0x325 libraries\drivers\drv_gpio.o
 .debug_abbrev  0x000083f4      0x2f5 libraries\drivers\drv_uart.o
 .debug_abbrev  0x000086e9      0x2e0 libraries\drivers\drv_sdio.o
 .debug_abbrev  0x000089c9      0x1c9 libraries\drivers\drv_pulse_encoder.o
 .debug_abbrev  0x00008b92      0x181 libraries\drivers\usb\phy\usb_phy.o
 .debug_abbrev  0x00008d13      0x37c libraries\drivers\drv_usbh.o
 .debug_abbrev  0x0000908f      0x25c libraries\drivers\usb\host\usb_host_devices.o
 .debug_abbrev  0x000092eb      0x2b4 libraries\drivers\usb\host\usb_host_ehci.o
 .debug_abbrev  0x0000959f      0x174 libraries\drivers\usb\host\usb_host_framework.o
 .debug_abbrev  0x00009713      0x2aa libraries\drivers\usb\host\usb_host_hci.o

.debug_loc      0x00000000    0x181a3
 .debug_loc     0x00000000       0x88 build\applications\main.o
 .debug_loc     0x00000088      0x354 build\board\board.o
 .debug_loc     0x000003dc      0x3c0 build\board\MCUX_Config\clock_config.o
 .debug_loc     0x0000079c      0x1ed build\board\MCUX_Config\pin_mux.o
 .debug_loc     0x00000989      0x16c build\kernel\src\clock.o
 .debug_loc     0x00000af5      0x2a8 build\kernel\src\components.o
 .debug_loc     0x00000d9d      0x500 build\kernel\src\device.o
 .debug_loc     0x0000129d      0x274 build\kernel\src\idle.o
 .debug_loc     0x00001511      0xed4 build\kernel\src\ipc.o
 .debug_loc     0x000023e5      0x1a8 build\kernel\src\irq.o
 .debug_loc     0x0000258d      0xb5c build\kernel\src\kservice.o
 .debug_loc     0x000030e9      0x37c build\kernel\src\memheap.o
 .debug_loc     0x00003465      0x5b0 build\kernel\src\object.o
 .debug_loc     0x00003a15      0x474 build\kernel\src\scheduler.o
 .debug_loc     0x00003e89      0x80c build\kernel\src\thread.o
 .debug_loc     0x00004695      0x658 build\kernel\src\timer.o
 .debug_loc     0x00004ced      0x228 build\kernel\libcpu\arm\cortex-m7\cpuport.o
 .debug_loc     0x00004f15      0x39c build\kernel\components\dfs\src\dfs.o
 .debug_loc     0x000052b1      0x5fa build\kernel\components\dfs\src\dfs_file.o
 .debug_loc     0x000058ab      0x324 build\kernel\components\dfs\src\dfs_fs.o
 .debug_loc     0x00005bcf      0x83e build\kernel\components\dfs\src\dfs_posix.o
 .debug_loc     0x0000640d      0x314 build\kernel\components\dfs\filesystems\devfs\devfs.o
 .debug_loc     0x00006721      0x972 build\kernel\components\dfs\filesystems\elmfat\dfs_elm.o
 .debug_loc     0x00007093     0x156a build\kernel\components\dfs\filesystems\elmfat\ff.o
 .debug_loc     0x000085fd      0x114 build\kernel\components\dfs\filesystems\elmfat\ffunicode.o
 .debug_loc     0x00008711      0x370 build\kernel\components\drivers\misc\pin.o
 .debug_loc     0x00008a81      0x1e0 build\kernel\components\drivers\misc\pulse_encoder.o
 .debug_loc     0x00008c61      0x498 build\kernel\components\drivers\sdio\block_dev.o
 .debug_loc     0x000090f9      0x9be build\kernel\components\drivers\sdio\mmcsd_core.o
 .debug_loc     0x00009ab7      0x47a build\kernel\components\drivers\sdio\sd.o
 .debug_loc     0x00009f31      0xefe build\kernel\components\drivers\sdio\sdio.o
 .debug_loc     0x0000ae2f      0x3d4 build\kernel\components\drivers\sdio\mmc.o
 .debug_loc     0x0000b203      0x84e build\kernel\components\drivers\serial\serial.o
 .debug_loc     0x0000ba51      0x204 build\kernel\components\drivers\src\completion.o
 .debug_loc     0x0000bc55      0x344 build\kernel\components\drivers\src\dataqueue.o
 .debug_loc     0x0000bf99      0x30e build\kernel\components\drivers\src\waitqueue.o
 .debug_loc     0x0000c2a7      0x5c6 build\kernel\components\drivers\usb\usbhost\core\usbhost_core.o
 .debug_loc     0x0000c86d      0x2d0 build\kernel\components\drivers\usb\usbhost\core\driver.o
 .debug_loc     0x0000cb3d       0x50 build\kernel\components\drivers\usb\usbhost\core\usbhost.o
 .debug_loc     0x0000cb8d      0x684 build\kernel\components\drivers\usb\usbhost\core\hub.o
 .debug_loc     0x0000d211      0x4b1 build\kernel\components\drivers\usb\usbhost\class\mass.o
 .debug_loc     0x0000d6c2      0x28e build\kernel\components\drivers\usb\usbhost\class\udisk.o
 .debug_loc     0x0000d950      0x500 build\kernel\components\drivers\usb\usbhost\class\hid.o
 .debug_loc     0x0000de50      0x134 build\kernel\components\drivers\usb\usbhost\class\umouse.o
 .debug_loc     0x0000df84      0x3d0 build\kernel\components\finsh\shell.o
 .debug_loc     0x0000e354      0x600 build\kernel\components\finsh\cmd.o
 .debug_loc     0x0000e954      0x372 build\kernel\components\finsh\msh.o
 .debug_loc     0x0000ecc6      0x463 build\kernel\components\finsh\msh_file.o
 .debug_loc     0x0000f129      0x410 build\kernel\components\libc\compilers\common\time.o
 .debug_loc     0x0000f539       0x50 build\kernel\components\libc\compilers\newlib\libc.o
 .debug_loc     0x0000f589       0x7c build\kernel\components\libc\compilers\newlib\stdio.o
 .debug_loc     0x0000f605      0xb2c build\kernel\components\libc\compilers\newlib\syscalls.o
 .debug_loc     0x00010131      0x160 libraries\MIMXRT1050\MIMXRT1052\system_MIMXRT1052.o
 .debug_loc     0x00010291      0xd42 libraries\MIMXRT1050\MIMXRT1052\drivers\fsl_clock.o
 .debug_loc     0x00010fd3      0x3a0 libraries\MIMXRT1050\MIMXRT1052\drivers\fsl_cache.o
 .debug_loc     0x00011373      0x23c libraries\MIMXRT1050\MIMXRT1052\drivers\fsl_gpio.o
 .debug_loc     0x000115af      0xc04 libraries\MIMXRT1050\MIMXRT1052\drivers\fsl_lpuart.o
 .debug_loc     0x000121b3     0x11d8 libraries\MIMXRT1050\MIMXRT1052\drivers\fsl_usdhc.o
 .debug_loc     0x0001338b      0x624 libraries\MIMXRT1050\MIMXRT1052\drivers\fsl_enc.o
 .debug_loc     0x000139af      0x350 libraries\MIMXRT1050\MIMXRT1052\drivers\fsl_xbara.o
 .debug_loc     0x00013cff      0x944 libraries\MIMXRT1050\MIMXRT1052\drivers\fsl_os_abstraction_rtthread.o
 .debug_loc     0x00014643      0x8cc libraries\drivers\drv_gpio.o
 .debug_loc     0x00014f0f      0x6a8 libraries\drivers\drv_uart.o
 .debug_loc     0x000155b7      0x4be libraries\drivers\drv_sdio.o
 .debug_loc     0x00015a75      0x190 libraries\drivers\drv_pulse_encoder.o
 .debug_loc     0x00015c05      0x19c libraries\drivers\usb\phy\usb_phy.o
 .debug_loc     0x00015da1      0x858 libraries\drivers\drv_usbh.o
 .debug_loc     0x000165f9      0x5dc libraries\drivers\usb\host\usb_host_devices.o
 .debug_loc     0x00016bd5      0xdce libraries\drivers\usb\host\usb_host_ehci.o
 .debug_loc     0x000179a3      0x2d0 libraries\drivers\usb\host\usb_host_framework.o
 .debug_loc     0x00017c73      0x530 libraries\drivers\usb\host\usb_host_hci.o

.debug_aranges  0x00000000     0x2d70
 .debug_aranges
                0x00000000       0x28 build\applications\main.o
 .debug_aranges
                0x00000028       0x78 build\board\board.o
 .debug_aranges
                0x000000a0       0x78 build\board\MCUX_Config\clock_config.o
 .debug_aranges
                0x00000118       0x48 build\board\MCUX_Config\pin_mux.o
 .debug_aranges
                0x00000160       0x18 build\xip\fsl_flexspi_nor_boot.o
 .debug_aranges
                0x00000178       0x18 build\xip\fsl_flexspi_nor_config.o
 .debug_aranges
                0x00000190       0x40 build\kernel\src\clock.o
 .debug_aranges
                0x000001d0       0x68 build\kernel\src\components.o
 .debug_aranges
                0x00000238       0x98 build\kernel\src\device.o
 .debug_aranges
                0x000002d0       0x58 build\kernel\src\idle.o
 .debug_aranges
                0x00000328      0x190 build\kernel\src\ipc.o
 .debug_aranges
                0x000004b8       0x40 build\kernel\src\irq.o
 .debug_aranges
                0x000004f8      0x120 build\kernel\src\kservice.o
 .debug_aranges
                0x00000618       0x70 build\kernel\src\memheap.o
 .debug_aranges
                0x00000688       0xa0 build\kernel\src\object.o
 .debug_aranges
                0x00000728       0x90 build\kernel\src\scheduler.o
 .debug_aranges
                0x000007b8       0xe0 build\kernel\src\thread.o
 .debug_aranges
                0x00000898       0xb8 build\kernel\src\timer.o
 .debug_aranges
                0x00000950       0x60 build\kernel\libcpu\arm\cortex-m7\cpuport.o
 .debug_aranges
                0x000009b0       0x20 build\kernel\libcpu\arm\cortex-m7\context_gcc.o
 .debug_aranges
                0x000009d0       0x78 build\kernel\components\dfs\src\dfs.o
 .debug_aranges
                0x00000a48       0xb0 build\kernel\components\dfs\src\dfs_file.o
 .debug_aranges
                0x00000af8       0x68 build\kernel\components\dfs\src\dfs_fs.o
 .debug_aranges
                0x00000b60       0xe0 build\kernel\components\dfs\src\dfs_posix.o
 .debug_aranges
                0x00000c40       0x68 build\kernel\components\dfs\filesystems\devfs\devfs.o
 .debug_aranges
                0x00000ca8      0x108 build\kernel\components\dfs\filesystems\elmfat\dfs_elm.o
 .debug_aranges
                0x00000db0      0x228 build\kernel\components\dfs\filesystems\elmfat\ff.o
 .debug_aranges
                0x00000fd8       0x30 build\kernel\components\dfs\filesystems\elmfat\ffunicode.o
 .debug_aranges
                0x00001008       0x70 build\kernel\components\drivers\misc\pin.o
 .debug_aranges
                0x00001078       0x48 build\kernel\components\drivers\misc\pulse_encoder.o
 .debug_aranges
                0x000010c0       0x88 build\kernel\components\drivers\sdio\block_dev.o
 .debug_aranges
                0x00001148      0x110 build\kernel\components\drivers\sdio\mmcsd_core.o
 .debug_aranges
                0x00001258       0x88 build\kernel\components\drivers\sdio\sd.o
 .debug_aranges
                0x000012e0      0x190 build\kernel\components\drivers\sdio\sdio.o
 .debug_aranges
                0x00001470       0x78 build\kernel\components\drivers\sdio\mmc.o
 .debug_aranges
                0x000014e8       0xf0 build\kernel\components\drivers\serial\serial.o
 .debug_aranges
                0x000015d8       0x48 build\kernel\components\drivers\src\completion.o
 .debug_aranges
                0x00001620       0x68 build\kernel\components\drivers\src\dataqueue.o
 .debug_aranges
                0x00001688       0x60 build\kernel\components\drivers\src\waitqueue.o
 .debug_aranges
                0x000016e8       0xa8 build\kernel\components\drivers\usb\usbhost\core\usbhost_core.o
 .debug_aranges
                0x00001790       0x60 build\kernel\components\drivers\usb\usbhost\core\driver.o
 .debug_aranges
                0x000017f0       0x20 build\kernel\components\drivers\usb\usbhost\core\usbhost.o
 .debug_aranges
                0x00001810       0xc0 build\kernel\components\drivers\usb\usbhost\core\hub.o
 .debug_aranges
                0x000018d0       0x90 build\kernel\components\drivers\usb\usbhost\class\mass.o
 .debug_aranges
                0x00001960       0x58 build\kernel\components\drivers\usb\usbhost\class\udisk.o
 .debug_aranges
                0x000019b8       0x98 build\kernel\components\drivers\usb\usbhost\class\hid.o
 .debug_aranges
                0x00001a50       0x38 build\kernel\components\drivers\usb\usbhost\class\umouse.o
 .debug_aranges
                0x00001a88       0x88 build\kernel\components\finsh\shell.o
 .debug_aranges
                0x00001b10       0xb8 build\kernel\components\finsh\cmd.o
 .debug_aranges
                0x00001bc8       0x70 build\kernel\components\finsh\msh.o
 .debug_aranges
                0x00001c38       0x88 build\kernel\components\finsh\msh_file.o
 .debug_aranges
                0x00001cc0       0x80 build\kernel\components\libc\compilers\common\time.o
 .debug_aranges
                0x00001d40       0x20 build\kernel\components\libc\compilers\newlib\libc.o
 .debug_aranges
                0x00001d60       0x28 build\kernel\components\libc\compilers\newlib\stdio.o
 .debug_aranges
                0x00001d88      0x130 build\kernel\components\libc\compilers\newlib\syscalls.o
 .debug_aranges
                0x00001eb8       0x40 libraries\MIMXRT1050\MIMXRT1052\system_MIMXRT1052.o
 .debug_aranges
                0x00001ef8      0x170 libraries\MIMXRT1050\MIMXRT1052\drivers\fsl_clock.o
 .debug_aranges
                0x00002068       0x70 libraries\MIMXRT1050\MIMXRT1052\drivers\fsl_cache.o
 .debug_aranges
                0x000020d8       0x20 libraries\MIMXRT1050\MIMXRT1052\gcc\startup_MIMXRT1052.o
 .debug_aranges
                0x000020f8       0x50 libraries\MIMXRT1050\MIMXRT1052\drivers\fsl_gpio.o
 .debug_aranges
                0x00002148      0x160 libraries\MIMXRT1050\MIMXRT1052\drivers\fsl_lpuart.o
 .debug_aranges
                0x000022a8      0x1d0 libraries\MIMXRT1050\MIMXRT1052\drivers\fsl_usdhc.o
 .debug_aranges
                0x00002478       0xa8 libraries\MIMXRT1050\MIMXRT1052\drivers\fsl_enc.o
 .debug_aranges
                0x00002520       0x68 libraries\MIMXRT1050\MIMXRT1052\drivers\fsl_xbara.o
 .debug_aranges
                0x00002588      0x110 libraries\MIMXRT1050\MIMXRT1052\drivers\fsl_os_abstraction_rtthread.o
 .debug_aranges
                0x00002698      0x110 libraries\drivers\drv_gpio.o
 .debug_aranges
                0x000027a8       0xc0 libraries\drivers\drv_uart.o
 .debug_aranges
                0x00002868       0x90 libraries\drivers\drv_sdio.o
 .debug_aranges
                0x000028f8       0x40 libraries\drivers\drv_pulse_encoder.o
 .debug_aranges
                0x00002938       0x40 libraries\drivers\usb\phy\usb_phy.o
 .debug_aranges
                0x00002978       0xf0 libraries\drivers\drv_usbh.o
 .debug_aranges
                0x00002a68       0xa8 libraries\drivers\usb\host\usb_host_devices.o
 .debug_aranges
                0x00002b10      0x168 libraries\drivers\usb\host\usb_host_ehci.o
 .debug_aranges
                0x00002c78       0x60 libraries\drivers\usb\host\usb_host_framework.o
 .debug_aranges
                0x00002cd8       0x98 libraries\drivers\usb\host\usb_host_hci.o

.debug_ranges   0x00000000     0x29c8
 .debug_ranges  0x00000000       0x18 build\applications\main.o
 .debug_ranges  0x00000018       0x68 build\board\board.o
 .debug_ranges  0x00000080       0x68 build\board\MCUX_Config\clock_config.o
 .debug_ranges  0x000000e8       0x38 build\board\MCUX_Config\pin_mux.o
 .debug_ranges  0x00000120       0x30 build\kernel\src\clock.o
 .debug_ranges  0x00000150       0x58 build\kernel\src\components.o
 .debug_ranges  0x000001a8       0x88 build\kernel\src\device.o
 .debug_ranges  0x00000230       0x48 build\kernel\src\idle.o
 .debug_ranges  0x00000278      0x180 build\kernel\src\ipc.o
 .debug_ranges  0x000003f8       0x30 build\kernel\src\irq.o
 .debug_ranges  0x00000428      0x110 build\kernel\src\kservice.o
 .debug_ranges  0x00000538       0x60 build\kernel\src\memheap.o
 .debug_ranges  0x00000598       0x90 build\kernel\src\object.o
 .debug_ranges  0x00000628       0xb0 build\kernel\src\scheduler.o
 .debug_ranges  0x000006d8       0xd0 build\kernel\src\thread.o
 .debug_ranges  0x000007a8       0xc0 build\kernel\src\timer.o
 .debug_ranges  0x00000868       0x68 build\kernel\libcpu\arm\cortex-m7\cpuport.o
 .debug_ranges  0x000008d0       0x80 build\kernel\components\dfs\src\dfs.o
 .debug_ranges  0x00000950       0xa0 build\kernel\components\dfs\src\dfs_file.o
 .debug_ranges  0x000009f0       0x58 build\kernel\components\dfs\src\dfs_fs.o
 .debug_ranges  0x00000a48       0xd0 build\kernel\components\dfs\src\dfs_posix.o
 .debug_ranges  0x00000b18       0x58 build\kernel\components\dfs\filesystems\devfs\devfs.o
 .debug_ranges  0x00000b70      0x110 build\kernel\components\dfs\filesystems\elmfat\dfs_elm.o
 .debug_ranges  0x00000c80      0x218 build\kernel\components\dfs\filesystems\elmfat\ff.o
 .debug_ranges  0x00000e98       0x20 build\kernel\components\dfs\filesystems\elmfat\ffunicode.o
 .debug_ranges  0x00000eb8       0x60 build\kernel\components\drivers\misc\pin.o
 .debug_ranges  0x00000f18       0x38 build\kernel\components\drivers\misc\pulse_encoder.o
 .debug_ranges  0x00000f50       0x78 build\kernel\components\drivers\sdio\block_dev.o
 .debug_ranges  0x00000fc8      0x100 build\kernel\components\drivers\sdio\mmcsd_core.o
 .debug_ranges  0x000010c8       0x78 build\kernel\components\drivers\sdio\sd.o
 .debug_ranges  0x00001140      0x198 build\kernel\components\drivers\sdio\sdio.o
 .debug_ranges  0x000012d8       0x68 build\kernel\components\drivers\sdio\mmc.o
 .debug_ranges  0x00001340      0x128 build\kernel\components\drivers\serial\serial.o
 .debug_ranges  0x00001468       0x38 build\kernel\components\drivers\src\completion.o
 .debug_ranges  0x000014a0       0x58 build\kernel\components\drivers\src\dataqueue.o
 .debug_ranges  0x000014f8       0x50 build\kernel\components\drivers\src\waitqueue.o
 .debug_ranges  0x00001548       0x98 build\kernel\components\drivers\usb\usbhost\core\usbhost_core.o
 .debug_ranges  0x000015e0       0x50 build\kernel\components\drivers\usb\usbhost\core\driver.o
 .debug_ranges  0x00001630       0x10 build\kernel\components\drivers\usb\usbhost\core\usbhost.o
 .debug_ranges  0x00001640       0xc8 build\kernel\components\drivers\usb\usbhost\core\hub.o
 .debug_ranges  0x00001708       0x80 build\kernel\components\drivers\usb\usbhost\class\mass.o
 .debug_ranges  0x00001788       0x60 build\kernel\components\drivers\usb\usbhost\class\udisk.o
 .debug_ranges  0x000017e8       0x88 build\kernel\components\drivers\usb\usbhost\class\hid.o
 .debug_ranges  0x00001870       0x28 build\kernel\components\drivers\usb\usbhost\class\umouse.o
 .debug_ranges  0x00001898       0x78 build\kernel\components\finsh\shell.o
 .debug_ranges  0x00001910       0xa8 build\kernel\components\finsh\cmd.o
 .debug_ranges  0x000019b8       0x60 build\kernel\components\finsh\msh.o
 .debug_ranges  0x00001a18       0x78 build\kernel\components\finsh\msh_file.o
 .debug_ranges  0x00001a90       0x88 build\kernel\components\libc\compilers\common\time.o
 .debug_ranges  0x00001b18       0x10 build\kernel\components\libc\compilers\newlib\libc.o
 .debug_ranges  0x00001b28       0x18 build\kernel\components\libc\compilers\newlib\stdio.o
 .debug_ranges  0x00001b40      0x120 build\kernel\components\libc\compilers\newlib\syscalls.o
 .debug_ranges  0x00001c60       0x30 libraries\MIMXRT1050\MIMXRT1052\system_MIMXRT1052.o
 .debug_ranges  0x00001c90      0x160 libraries\MIMXRT1050\MIMXRT1052\drivers\fsl_clock.o
 .debug_ranges  0x00001df0       0x60 libraries\MIMXRT1050\MIMXRT1052\drivers\fsl_cache.o
 .debug_ranges  0x00001e50       0x40 libraries\MIMXRT1050\MIMXRT1052\drivers\fsl_gpio.o
 .debug_ranges  0x00001e90      0x150 libraries\MIMXRT1050\MIMXRT1052\drivers\fsl_lpuart.o
 .debug_ranges  0x00001fe0      0x1c0 libraries\MIMXRT1050\MIMXRT1052\drivers\fsl_usdhc.o
 .debug_ranges  0x000021a0       0x98 libraries\MIMXRT1050\MIMXRT1052\drivers\fsl_enc.o
 .debug_ranges  0x00002238       0x58 libraries\MIMXRT1050\MIMXRT1052\drivers\fsl_xbara.o
 .debug_ranges  0x00002290      0x100 libraries\MIMXRT1050\MIMXRT1052\drivers\fsl_os_abstraction_rtthread.o
 .debug_ranges  0x00002390      0x100 libraries\drivers\drv_gpio.o
 .debug_ranges  0x00002490       0xb0 libraries\drivers\drv_uart.o
 .debug_ranges  0x00002540       0x80 libraries\drivers\drv_sdio.o
 .debug_ranges  0x000025c0       0x30 libraries\drivers\drv_pulse_encoder.o
 .debug_ranges  0x000025f0       0x30 libraries\drivers\usb\phy\usb_phy.o
 .debug_ranges  0x00002620       0xe0 libraries\drivers\drv_usbh.o
 .debug_ranges  0x00002700       0x98 libraries\drivers\usb\host\usb_host_devices.o
 .debug_ranges  0x00002798      0x158 libraries\drivers\usb\host\usb_host_ehci.o
 .debug_ranges  0x000028f0       0x50 libraries\drivers\usb\host\usb_host_framework.o
 .debug_ranges  0x00002940       0x88 libraries\drivers\usb\host\usb_host_hci.o

.debug_line     0x00000000    0x13a40
 .debug_line    0x00000000       0xeb build\applications\main.o
 .debug_line    0x000000eb      0x3a5 build\board\board.o
 .debug_line    0x00000490      0x35e build\board\MCUX_Config\clock_config.o
 .debug_line    0x000007ee      0x27d build\board\MCUX_Config\pin_mux.o
 .debug_line    0x00000a6b      0x1ae build\xip\fsl_flexspi_nor_boot.o
 .debug_line    0x00000c19      0x1b2 build\xip\fsl_flexspi_nor_config.o
 .debug_line    0x00000dcb       0xb8 build\kernel\src\clock.o
 .debug_line    0x00000e83      0x148 build\kernel\src\components.o
 .debug_line    0x00000fcb      0x2ed build\kernel\src\device.o
 .debug_line    0x000012b8      0x187 build\kernel\src\idle.o
 .debug_line    0x0000143f      0xba8 build\kernel\src\ipc.o
 .debug_line    0x00001fe7       0xc0 build\kernel\src\irq.o
 .debug_line    0x000020a7      0x610 build\kernel\src\kservice.o
 .debug_line    0x000026b7      0x2c6 build\kernel\src\memheap.o
 .debug_line    0x0000297d      0x2fa build\kernel\src\object.o
 .debug_line    0x00002c77      0x233 build\kernel\src\scheduler.o
 .debug_line    0x00002eaa      0x3e3 build\kernel\src\thread.o
 .debug_line    0x0000328d      0x348 build\kernel\src\timer.o
 .debug_line    0x000035d5      0x181 build\kernel\libcpu\arm\cortex-m7\cpuport.o
 .debug_line    0x00003756       0xd2 build\kernel\libcpu\arm\cortex-m7\context_gcc.o
 .debug_line    0x00003828      0x4d7 build\kernel\components\dfs\src\dfs.o
 .debug_line    0x00003cff      0x4fd build\kernel\components\dfs\src\dfs_file.o
 .debug_line    0x000041fc      0x48f build\kernel\components\dfs\src\dfs_fs.o
 .debug_line    0x0000468b      0x59a build\kernel\components\dfs\src\dfs_posix.o
 .debug_line    0x00004c25      0x3e6 build\kernel\components\dfs\filesystems\devfs\devfs.o
 .debug_line    0x0000500b      0x6bf build\kernel\components\dfs\filesystems\elmfat\dfs_elm.o
 .debug_line    0x000056ca     0x1940 build\kernel\components\dfs\filesystems\elmfat\ff.o
 .debug_line    0x0000700a      0x1b3 build\kernel\components\dfs\filesystems\elmfat\ffunicode.o
 .debug_line    0x000071bd      0x21f build\kernel\components\drivers\misc\pin.o
 .debug_line    0x000073dc      0x149 build\kernel\components\drivers\misc\pulse_encoder.o
 .debug_line    0x00007525      0x484 build\kernel\components\drivers\sdio\block_dev.o
 .debug_line    0x000079a9      0x4dc build\kernel\components\drivers\sdio\mmcsd_core.o
 .debug_line    0x00007e85      0x3d5 build\kernel\components\drivers\sdio\sd.o
 .debug_line    0x0000825a      0x99c build\kernel\components\drivers\sdio\sdio.o
 .debug_line    0x00008bf6      0x3bc build\kernel\components\drivers\sdio\mmc.o
 .debug_line    0x00008fb2      0x811 build\kernel\components\drivers\serial\serial.o
 .debug_line    0x000097c3      0x179 build\kernel\components\drivers\src\completion.o
 .debug_line    0x0000993c      0x2d7 build\kernel\components\drivers\src\dataqueue.o
 .debug_line    0x00009c13      0x1ba build\kernel\components\drivers\src\waitqueue.o
 .debug_line    0x00009dcd      0x417 build\kernel\components\drivers\usb\usbhost\core\usbhost_core.o
 .debug_line    0x0000a1e4      0x1b0 build\kernel\components\drivers\usb\usbhost\core\driver.o
 .debug_line    0x0000a394       0xe0 build\kernel\components\drivers\usb\usbhost\core\usbhost.o
 .debug_line    0x0000a474      0x4a3 build\kernel\components\drivers\usb\usbhost\core\hub.o
 .debug_line    0x0000a917      0x54c build\kernel\components\drivers\usb\usbhost\class\mass.o
 .debug_line    0x0000ae63      0x452 build\kernel\components\drivers\usb\usbhost\class\udisk.o
 .debug_line    0x0000b2b5      0x34e build\kernel\components\drivers\usb\usbhost\class\hid.o
 .debug_line    0x0000b603      0x12c build\kernel\components\drivers\usb\usbhost\class\umouse.o
 .debug_line    0x0000b72f      0x419 build\kernel\components\finsh\shell.o
 .debug_line    0x0000bb48      0x465 build\kernel\components\finsh\cmd.o
 .debug_line    0x0000bfad      0x3b0 build\kernel\components\finsh\msh.o
 .debug_line    0x0000c35d      0x3c2 build\kernel\components\finsh\msh_file.o
 .debug_line    0x0000c71f      0x2c5 build\kernel\components\libc\compilers\common\time.o
 .debug_line    0x0000c9e4       0x85 build\kernel\components\libc\compilers\newlib\libc.o
 .debug_line    0x0000ca69      0x1b7 build\kernel\components\libc\compilers\newlib\stdio.o
 .debug_line    0x0000cc20      0x593 build\kernel\components\libc\compilers\newlib\syscalls.o
 .debug_line    0x0000d1b3      0x2ac libraries\MIMXRT1050\MIMXRT1052\system_MIMXRT1052.o
 .debug_line    0x0000d45f      0x6ea libraries\MIMXRT1050\MIMXRT1052\drivers\fsl_clock.o
 .debug_line    0x0000db49      0x2bf libraries\MIMXRT1050\MIMXRT1052\drivers\fsl_cache.o
 .debug_line    0x0000de08      0x1a0 libraries\MIMXRT1050\MIMXRT1052\gcc\startup_MIMXRT1052.o
 .debug_line    0x0000dfa8      0x260 libraries\MIMXRT1050\MIMXRT1052\drivers\fsl_gpio.o
 .debug_line    0x0000e208      0x901 libraries\MIMXRT1050\MIMXRT1052\drivers\fsl_lpuart.o
 .debug_line    0x0000eb09      0xb9a libraries\MIMXRT1050\MIMXRT1052\drivers\fsl_usdhc.o
 .debug_line    0x0000f6a3      0x3c6 libraries\MIMXRT1050\MIMXRT1052\drivers\fsl_enc.o
 .debug_line    0x0000fa69      0x2a1 libraries\MIMXRT1050\MIMXRT1052\drivers\fsl_xbara.o
 .debug_line    0x0000fd0a      0x546 libraries\MIMXRT1050\MIMXRT1052\drivers\fsl_os_abstraction_rtthread.o
 .debug_line    0x00010250      0x57d libraries\drivers\drv_gpio.o
 .debug_line    0x000107cd      0x4aa libraries\drivers\drv_uart.o
 .debug_line    0x00010c77      0x4a5 libraries\drivers\drv_sdio.o
 .debug_line    0x0001111c      0x28a libraries\drivers\drv_pulse_encoder.o
 .debug_line    0x000113a6      0x266 libraries\drivers\usb\phy\usb_phy.o
 .debug_line    0x0001160c      0x7b1 libraries\drivers\drv_usbh.o
 .debug_line    0x00011dbd      0x6ae libraries\drivers\usb\host\usb_host_devices.o
 .debug_line    0x0001246b      0xe02 libraries\drivers\usb\host\usb_host_ehci.o
 .debug_line    0x0001326d      0x2b0 libraries\drivers\usb\host\usb_host_framework.o
 .debug_line    0x0001351d      0x523 libraries\drivers\usb\host\usb_host_hci.o

.debug_str      0x00000000    0x14a40
 .debug_str     0x00000000      0x519 build\applications\main.o
                                0x5ea (size before relaxing)
 .debug_str     0x00000519      0xc70 build\board\board.o
                                0xe57 (size before relaxing)
 .debug_str     0x00001189     0x1c90 build\board\MCUX_Config\clock_config.o
                               0x1ea0 (size before relaxing)
 .debug_str     0x00002e19     0x2d4b build\board\MCUX_Config\pin_mux.o
                               0x3781 (size before relaxing)
 .debug_str     0x00005b64       0x99 build\xip\fsl_flexspi_nor_boot.o
                                0xd9f (size before relaxing)
 .debug_str     0x00005bfd      0x5f3 build\xip\fsl_flexspi_nor_config.o
                               0x1313 (size before relaxing)
 .debug_str     0x000061f0      0x119 build\kernel\src\clock.o
                                0x384 (size before relaxing)
 .debug_str     0x00006309      0x10d build\kernel\src\components.o
                                0x431 (size before relaxing)
 .debug_str     0x00006416      0x2b8 build\kernel\src\device.o
                                0x7e2 (size before relaxing)
 .debug_str     0x000066ce      0x107 build\kernel\src\idle.o
                                0x435 (size before relaxing)
 .debug_str     0x000067d5      0x46b build\kernel\src\ipc.o
                                0x946 (size before relaxing)
 .debug_str     0x00006c40       0xc8 build\kernel\src\irq.o
                                0x270 (size before relaxing)
 .debug_str     0x00006d08      0x31c build\kernel\src\kservice.o
                                0x95b (size before relaxing)
 .debug_str     0x00007024      0x1fc build\kernel\src\memheap.o
                                0x615 (size before relaxing)
 .debug_str     0x00007220      0x2bb build\kernel\src\object.o
                                0x6ed (size before relaxing)
 .debug_str     0x000074db      0x1ed build\kernel\src\scheduler.o
                                0x5bc (size before relaxing)
 .debug_str     0x000076c8      0x1f3 build\kernel\src\thread.o
                                0x6ff (size before relaxing)
 .debug_str     0x000078bb      0x1a6 build\kernel\src\timer.o
                                0x5f6 (size before relaxing)
 .debug_str     0x00007a61      0x19c build\kernel\libcpu\arm\cortex-m7\cpuport.o
                                0x39a (size before relaxing)
 .debug_str     0x00007bfd      0x306 build\kernel\components\dfs\src\dfs.o
                                0xaab (size before relaxing)
 .debug_str     0x00007f03      0x233 build\kernel\components\dfs\src\dfs_file.o
                                0xa32 (size before relaxing)
 .debug_str     0x00008136      0x172 build\kernel\components\dfs\src\dfs_fs.o
                                0x9db (size before relaxing)
 .debug_str     0x000082a8       0xf1 build\kernel\components\dfs\src\dfs_posix.o
                                0x920 (size before relaxing)
 .debug_str     0x00008399      0x130 build\kernel\components\dfs\filesystems\devfs\devfs.o
                                0xaa6 (size before relaxing)
 .debug_str     0x000084c9      0x54a build\kernel\components\dfs\filesystems\elmfat\dfs_elm.o
                                0xf22 (size before relaxing)
 .debug_str     0x00008a13      0x3e6 build\kernel\components\dfs\filesystems\elmfat\ff.o
                                0xa6d (size before relaxing)
 .debug_str     0x00008df9       0x6a build\kernel\components\dfs\filesystems\elmfat\ffunicode.o
                                0x22b (size before relaxing)
 .debug_str     0x00008e63      0x179 build\kernel\components\drivers\misc\pin.o
                                0x795 (size before relaxing)
 .debug_str     0x00008fdc      0x14b build\kernel\components\drivers\misc\pulse_encoder.o
                                0x6a6 (size before relaxing)
 .debug_str     0x00009127      0x566 build\kernel\components\drivers\sdio\block_dev.o
                                0xd48 (size before relaxing)
 .debug_str     0x0000968d      0x2c2 build\kernel\components\drivers\sdio\mmcsd_core.o
                                0xb82 (size before relaxing)
 .debug_str     0x0000994f      0x16d build\kernel\components\drivers\sdio\sd.o
                                0x99e (size before relaxing)
 .debug_str     0x00009abc      0x417 build\kernel\components\drivers\sdio\sdio.o
                                0xcfd (size before relaxing)
 .debug_str     0x00009ed3       0xef build\kernel\components\drivers\sdio\mmc.o
                                0x9ae (size before relaxing)
 .debug_str     0x00009fc2      0x3de build\kernel\components\drivers\serial\serial.o
                                0xc3b (size before relaxing)
 .debug_str     0x0000a3a0       0x67 build\kernel\components\drivers\src\completion.o
                                0x3fe (size before relaxing)
 .debug_str     0x0000a407       0xb3 build\kernel\components\drivers\src\dataqueue.o
                                0x4d9 (size before relaxing)
 .debug_str     0x0000a4ba       0xd6 build\kernel\components\drivers\src\waitqueue.o
                                0x48e (size before relaxing)
 .debug_str     0x0000a590      0x560 build\kernel\components\drivers\usb\usbhost\core\usbhost_core.o
                                0xc52 (size before relaxing)
 .debug_str     0x0000aaf0      0x104 build\kernel\components\drivers\usb\usbhost\core\driver.o
                                0x35d (size before relaxing)
 .debug_str     0x0000abf4       0x9a build\kernel\components\drivers\usb\usbhost\core\usbhost.o
                                0xa24 (size before relaxing)
 .debug_str     0x0000ac8e      0x2a3 build\kernel\components\drivers\usb\usbhost\core\hub.o
                                0xdc8 (size before relaxing)
 .debug_str     0x0000af31      0x205 build\kernel\components\drivers\usb\usbhost\class\mass.o
                                0xc63 (size before relaxing)
 .debug_str     0x0000b136       0xca build\kernel\components\drivers\usb\usbhost\class\udisk.o
                                0xb87 (size before relaxing)
 .debug_str     0x0000b200      0x17a build\kernel\components\drivers\usb\usbhost\class\hid.o
                                0xc21 (size before relaxing)
 .debug_str     0x0000b37a       0x91 build\kernel\components\drivers\usb\usbhost\class\umouse.o
                                0xb54 (size before relaxing)
 .debug_str     0x0000b40b      0x5d1 build\kernel\components\finsh\shell.o
                                0xa3e (size before relaxing)
 .debug_str     0x0000b9dc      0x850 build\kernel\components\finsh\cmd.o
                               0x126c (size before relaxing)
 .debug_str     0x0000c22c      0x1cb build\kernel\components\finsh\msh.o
                                0x483 (size before relaxing)
 .debug_str     0x0000c3f7      0x31a build\kernel\components\finsh\msh_file.o
                                0x711 (size before relaxing)
 .debug_str     0x0000c711       0xf2 build\kernel\components\libc\compilers\common\time.o
                                0x664 (size before relaxing)
 .debug_str     0x0000c803       0x59 build\kernel\components\libc\compilers\newlib\libc.o
                                0x55e (size before relaxing)
 .debug_str     0x0000c85c       0x8a build\kernel\components\libc\compilers\newlib\stdio.o
                                0x5ed (size before relaxing)
 .debug_str     0x0000c8e6      0x1df build\kernel\components\libc\compilers\newlib\syscalls.o
                                0xe83 (size before relaxing)
 .debug_str     0x0000cac5       0xac libraries\MIMXRT1050\MIMXRT1052\system_MIMXRT1052.o
                                0x807 (size before relaxing)
 .debug_str     0x0000cb71      0xac9 libraries\MIMXRT1050\MIMXRT1052\drivers\fsl_clock.o
                               0x1aab (size before relaxing)
 .debug_str     0x0000d63a      0x19c libraries\MIMXRT1050\MIMXRT1052\drivers\fsl_cache.o
                                0x52d (size before relaxing)
 .debug_str     0x0000d7d6       0xc7 libraries\MIMXRT1050\MIMXRT1052\drivers\fsl_gpio.o
                               0x1602 (size before relaxing)
 .debug_str     0x0000d89d     0x10af libraries\MIMXRT1050\MIMXRT1052\drivers\fsl_lpuart.o
                               0x2e7a (size before relaxing)
 .debug_str     0x0000e94c     0x1c7d libraries\MIMXRT1050\MIMXRT1052\drivers\fsl_usdhc.o
                               0x3b61 (size before relaxing)
 .debug_str     0x000105c9      0x8ab libraries\MIMXRT1050\MIMXRT1052\drivers\fsl_enc.o
                               0x1c9e (size before relaxing)
 .debug_str     0x00010e74      0x24e libraries\MIMXRT1050\MIMXRT1052\drivers\fsl_xbara.o
                               0x409f (size before relaxing)
 .debug_str     0x000110c2      0x4f2 libraries\MIMXRT1050\MIMXRT1052\drivers\fsl_os_abstraction_rtthread.o
                               0x1521 (size before relaxing)
 .debug_str     0x000115b4      0x370 libraries\drivers\drv_gpio.o
                               0x2892 (size before relaxing)
 .debug_str     0x00011924      0x122 libraries\drivers\drv_uart.o
                               0x2bce (size before relaxing)
 .debug_str     0x00011a46      0x1ad libraries\drivers\drv_sdio.o
                               0x292c (size before relaxing)
 .debug_str     0x00011bf3       0xcc libraries\drivers\drv_pulse_encoder.o
                               0x1693 (size before relaxing)
 .debug_str     0x00011cbf      0x526 libraries\drivers\usb\phy\usb_phy.o
                                0x815 (size before relaxing)
 .debug_str     0x000121e5      0x80d libraries\drivers\drv_usbh.o
                               0x2e2f (size before relaxing)
 .debug_str     0x000129f2      0xbb4 libraries\drivers\usb\host\usb_host_devices.o
                               0x21bc (size before relaxing)
 .debug_str     0x000135a6      0xf36 libraries\drivers\usb\host\usb_host_ehci.o
                               0x28b7 (size before relaxing)
 .debug_str     0x000144dc      0x37b libraries\drivers\usb\host\usb_host_framework.o
                                0xf51 (size before relaxing)
 .debug_str     0x00014857      0x1e9 libraries\drivers\usb\host\usb_host_hci.o
                               0x1ff7 (size before relaxing)

.comment        0x00000000       0x6e
 .comment       0x00000000       0x6e build\applications\main.o
                                 0x6f (size before relaxing)
 .comment       0x0000006e       0x6f build\board\board.o
 .comment       0x0000006e       0x6f build\board\MCUX_Config\clock_config.o
 .comment       0x0000006e       0x6f build\board\MCUX_Config\pin_mux.o
 .comment       0x0000006e       0x6f build\xip\fsl_flexspi_nor_boot.o
 .comment       0x0000006e       0x6f build\xip\fsl_flexspi_nor_config.o
 .comment       0x0000006e       0x6f build\kernel\src\clock.o
 .comment       0x0000006e       0x6f build\kernel\src\components.o
 .comment       0x0000006e       0x6f build\kernel\src\device.o
 .comment       0x0000006e       0x6f build\kernel\src\idle.o
 .comment       0x0000006e       0x6f build\kernel\src\ipc.o
 .comment       0x0000006e       0x6f build\kernel\src\irq.o
 .comment       0x0000006e       0x6f build\kernel\src\kservice.o
 .comment       0x0000006e       0x6f build\kernel\src\memheap.o
 .comment       0x0000006e       0x6f build\kernel\src\object.o
 .comment       0x0000006e       0x6f build\kernel\src\scheduler.o
 .comment       0x0000006e       0x6f build\kernel\src\thread.o
 .comment       0x0000006e       0x6f build\kernel\src\timer.o
 .comment       0x0000006e       0x6f build\kernel\libcpu\arm\cortex-m7\cpuport.o
 .comment       0x0000006e       0x6f build\kernel\components\dfs\src\dfs.o
 .comment       0x0000006e       0x6f build\kernel\components\dfs\src\dfs_file.o
 .comment       0x0000006e       0x6f build\kernel\components\dfs\src\dfs_fs.o
 .comment       0x0000006e       0x6f build\kernel\components\dfs\src\dfs_posix.o
 .comment       0x0000006e       0x6f build\kernel\components\dfs\filesystems\devfs\devfs.o
 .comment       0x0000006e       0x6f build\kernel\components\dfs\filesystems\elmfat\dfs_elm.o
 .comment       0x0000006e       0x6f build\kernel\components\dfs\filesystems\elmfat\ff.o
 .comment       0x0000006e       0x6f build\kernel\components\dfs\filesystems\elmfat\ffunicode.o
 .comment       0x0000006e       0x6f build\kernel\components\drivers\misc\pin.o
 .comment       0x0000006e       0x6f build\kernel\components\drivers\misc\pulse_encoder.o
 .comment       0x0000006e       0x6f build\kernel\components\drivers\sdio\block_dev.o
 .comment       0x0000006e       0x6f build\kernel\components\drivers\sdio\mmcsd_core.o
 .comment       0x0000006e       0x6f build\kernel\components\drivers\sdio\sd.o
 .comment       0x0000006e       0x6f build\kernel\components\drivers\sdio\sdio.o
 .comment       0x0000006e       0x6f build\kernel\components\drivers\sdio\mmc.o
 .comment       0x0000006e       0x6f build\kernel\components\drivers\serial\serial.o
 .comment       0x0000006e       0x6f build\kernel\components\drivers\src\completion.o
 .comment       0x0000006e       0x6f build\kernel\components\drivers\src\dataqueue.o
 .comment       0x0000006e       0x6f build\kernel\components\drivers\src\waitqueue.o
 .comment       0x0000006e       0x6f build\kernel\components\drivers\usb\usbhost\core\usbhost_core.o
 .comment       0x0000006e       0x6f build\kernel\components\drivers\usb\usbhost\core\driver.o
 .comment       0x0000006e       0x6f build\kernel\components\drivers\usb\usbhost\core\usbhost.o
 .comment       0x0000006e       0x6f build\kernel\components\drivers\usb\usbhost\core\hub.o
 .comment       0x0000006e       0x6f build\kernel\components\drivers\usb\usbhost\class\mass.o
 .comment       0x0000006e       0x6f build\kernel\components\drivers\usb\usbhost\class\udisk.o
 .comment       0x0000006e       0x6f build\kernel\components\drivers\usb\usbhost\class\hid.o
 .comment       0x0000006e       0x6f build\kernel\components\drivers\usb\usbhost\class\umouse.o
 .comment       0x0000006e       0x6f build\kernel\components\finsh\shell.o
 .comment       0x0000006e       0x6f build\kernel\components\finsh\cmd.o
 .comment       0x0000006e       0x6f build\kernel\components\finsh\msh.o
 .comment       0x0000006e       0x6f build\kernel\components\finsh\msh_file.o
 .comment       0x0000006e       0x6f build\kernel\components\libc\compilers\common\time.o
 .comment       0x0000006e       0x6f build\kernel\components\libc\compilers\newlib\libc.o
 .comment       0x0000006e       0x6f build\kernel\components\libc\compilers\newlib\stdio.o
 .comment       0x0000006e       0x6f build\kernel\components\libc\compilers\newlib\syscalls.o
 .comment       0x0000006e       0x6f libraries\MIMXRT1050\MIMXRT1052\system_MIMXRT1052.o
 .comment       0x0000006e       0x6f libraries\MIMXRT1050\MIMXRT1052\drivers\fsl_clock.o
 .comment       0x0000006e       0x6f libraries\MIMXRT1050\MIMXRT1052\drivers\fsl_cache.o
 .comment       0x0000006e       0x6f libraries\MIMXRT1050\MIMXRT1052\drivers\fsl_gpio.o
 .comment       0x0000006e       0x6f libraries\MIMXRT1050\MIMXRT1052\drivers\fsl_lpuart.o
 .comment       0x0000006e       0x6f libraries\MIMXRT1050\MIMXRT1052\drivers\fsl_usdhc.o
 .comment       0x0000006e       0x6f libraries\MIMXRT1050\MIMXRT1052\drivers\fsl_enc.o
 .comment       0x0000006e       0x6f libraries\MIMXRT1050\MIMXRT1052\drivers\fsl_xbara.o
 .comment       0x0000006e       0x6f libraries\MIMXRT1050\MIMXRT1052\drivers\fsl_os_abstraction_rtthread.o
 .comment       0x0000006e       0x6f libraries\drivers\drv_gpio.o
 .comment       0x0000006e       0x6f libraries\drivers\drv_uart.o
 .comment       0x0000006e       0x6f libraries\drivers\drv_sdio.o
 .comment       0x0000006e       0x6f libraries\drivers\drv_pulse_encoder.o
 .comment       0x0000006e       0x6f libraries\drivers\usb\phy\usb_phy.o
 .comment       0x0000006e       0x6f libraries\drivers\drv_usbh.o
 .comment       0x0000006e       0x6f libraries\drivers\usb\host\usb_host_devices.o
 .comment       0x0000006e       0x6f libraries\drivers\usb\host\usb_host_ehci.o
 .comment       0x0000006e       0x6f libraries\drivers\usb\host\usb_host_framework.o
 .comment       0x0000006e       0x6f libraries\drivers\usb\host\usb_host_hci.o

.debug_frame    0x00000000     0xc8e4
 .debug_frame   0x00000000       0x54 build\applications\main.o
 .debug_frame   0x00000054      0x1b0 build\board\board.o
 .debug_frame   0x00000204      0x1d0 build\board\MCUX_Config\clock_config.o
 .debug_frame   0x000003d4       0xf0 build\board\MCUX_Config\pin_mux.o
 .debug_frame   0x000004c4       0xbc build\kernel\src\clock.o
 .debug_frame   0x00000580      0x158 build\kernel\src\components.o
 .debug_frame   0x000006d8      0x258 build\kernel\src\device.o
 .debug_frame   0x00000930      0x134 build\kernel\src\idle.o
 .debug_frame   0x00000a64      0x6f4 build\kernel\src\ipc.o
 .debug_frame   0x00001158       0xcc build\kernel\src\irq.o
 .debug_frame   0x00001224      0x538 build\kernel\src\kservice.o
 .debug_frame   0x0000175c      0x1a4 build\kernel\src\memheap.o
 .debug_frame   0x00001900      0x2a4 build\kernel\src\object.o
 .debug_frame   0x00001ba4      0x240 build\kernel\src\scheduler.o
 .debug_frame   0x00001de4      0x3c8 build\kernel\src\thread.o
 .debug_frame   0x000021ac      0x308 build\kernel\src\timer.o
 .debug_frame   0x000024b4      0x130 build\kernel\libcpu\arm\cortex-m7\cpuport.o
 .debug_frame   0x000025e4      0x1c8 build\kernel\components\dfs\src\dfs.o
 .debug_frame   0x000027ac      0x2cc build\kernel\components\dfs\src\dfs_file.o
 .debug_frame   0x00002a78      0x18c build\kernel\components\dfs\src\dfs_fs.o
 .debug_frame   0x00002c04      0x3d0 build\kernel\components\dfs\src\dfs_posix.o
 .debug_frame   0x00002fd4      0x178 build\kernel\components\dfs\filesystems\devfs\devfs.o
 .debug_frame   0x0000314c      0x45c build\kernel\components\dfs\filesystems\elmfat\dfs_elm.o
 .debug_frame   0x000035a8      0x9c8 build\kernel\components\dfs\filesystems\elmfat\ff.o
 .debug_frame   0x00003f70       0x88 build\kernel\components\dfs\filesystems\elmfat\ffunicode.o
 .debug_frame   0x00003ff8      0x1a0 build\kernel\components\drivers\misc\pin.o
 .debug_frame   0x00004198       0xe8 build\kernel\components\drivers\misc\pulse_encoder.o
 .debug_frame   0x00004280      0x230 build\kernel\components\drivers\sdio\block_dev.o
 .debug_frame   0x000044b0      0x478 build\kernel\components\drivers\sdio\mmcsd_core.o
 .debug_frame   0x00004928      0x218 build\kernel\components\drivers\sdio\sd.o
 .debug_frame   0x00004b40      0x6d4 build\kernel\components\drivers\sdio\sdio.o
 .debug_frame   0x00005214      0x1d0 build\kernel\components\drivers\sdio\mmc.o
 .debug_frame   0x000053e4      0x3e4 build\kernel\components\drivers\serial\serial.o
 .debug_frame   0x000057c8       0xf4 build\kernel\components\drivers\src\completion.o
 .debug_frame   0x000058bc      0x188 build\kernel\components\drivers\src\dataqueue.o
 .debug_frame   0x00005a44      0x16c build\kernel\components\drivers\src\waitqueue.o
 .debug_frame   0x00005bb0      0x2b8 build\kernel\components\drivers\usb\usbhost\core\usbhost_core.o
 .debug_frame   0x00005e68      0x158 build\kernel\components\drivers\usb\usbhost\core\driver.o
 .debug_frame   0x00005fc0       0x34 build\kernel\components\drivers\usb\usbhost\core\usbhost.o
 .debug_frame   0x00005ff4      0x314 build\kernel\components\drivers\usb\usbhost\core\hub.o
 .debug_frame   0x00006308      0x240 build\kernel\components\drivers\usb\usbhost\class\mass.o
 .debug_frame   0x00006548      0x138 build\kernel\components\drivers\usb\usbhost\class\udisk.o
 .debug_frame   0x00006680      0x260 build\kernel\components\drivers\usb\usbhost\class\hid.o
 .debug_frame   0x000068e0       0xa0 build\kernel\components\drivers\usb\usbhost\class\umouse.o
 .debug_frame   0x00006980      0x1f4 build\kernel\components\finsh\shell.o
 .debug_frame   0x00006b74      0x310 build\kernel\components\finsh\cmd.o
 .debug_frame   0x00006e84      0x1a0 build\kernel\components\finsh\msh.o
 .debug_frame   0x00007024      0x214 build\kernel\components\finsh\msh_file.o
 .debug_frame   0x00007238      0x1f4 build\kernel\components\libc\compilers\common\time.o
 .debug_frame   0x0000742c       0x34 build\kernel\components\libc\compilers\newlib\libc.o
 .debug_frame   0x00007460       0x50 build\kernel\components\libc\compilers\newlib\stdio.o
 .debug_frame   0x000074b0      0x51c build\kernel\components\libc\compilers\newlib\syscalls.o
 .debug_frame   0x000079cc       0xbc libraries\MIMXRT1050\MIMXRT1052\system_MIMXRT1052.o
 .debug_frame   0x00007a88      0x61c libraries\MIMXRT1050\MIMXRT1052\drivers\fsl_clock.o
 .debug_frame   0x000080a4      0x1ac libraries\MIMXRT1050\MIMXRT1052\drivers\fsl_cache.o
 .debug_frame   0x00008250      0x110 libraries\MIMXRT1050\MIMXRT1052\drivers\fsl_gpio.o
 .debug_frame   0x00008360      0x5bc libraries\MIMXRT1050\MIMXRT1052\drivers\fsl_lpuart.o
 .debug_frame   0x0000891c      0x81c libraries\MIMXRT1050\MIMXRT1052\drivers\fsl_usdhc.o
 .debug_frame   0x00009138      0x2c4 libraries\MIMXRT1050\MIMXRT1052\drivers\fsl_enc.o
 .debug_frame   0x000093fc      0x188 libraries\MIMXRT1050\MIMXRT1052\drivers\fsl_xbara.o
 .debug_frame   0x00009584      0x458 libraries\MIMXRT1050\MIMXRT1052\drivers\fsl_os_abstraction_rtthread.o
 .debug_frame   0x000099dc      0x44c libraries\drivers\drv_gpio.o
 .debug_frame   0x00009e28      0x320 libraries\drivers\drv_uart.o
 .debug_frame   0x0000a148      0x240 libraries\drivers\drv_sdio.o
 .debug_frame   0x0000a388       0xc4 libraries\drivers\drv_pulse_encoder.o
 .debug_frame   0x0000a44c       0xc8 libraries\drivers\usb\phy\usb_phy.o
 .debug_frame   0x0000a514      0x3ec libraries\drivers\drv_usbh.o
 .debug_frame   0x0000a900      0x2ac libraries\drivers\usb\host\usb_host_devices.o
 .debug_frame   0x0000abac      0x64c libraries\drivers\usb\host\usb_host_ehci.o
 .debug_frame   0x0000b1f8      0x154 libraries\drivers\usb\host\usb_host_framework.o
 .debug_frame   0x0000b34c      0x260 libraries\drivers\usb\host\usb_host_hci.o
 .debug_frame   0x0000b5ac       0x40 c:/rtthread/env/tools/gnu_gcc/arm_gcc/mingw/bin/../lib/gcc/arm-none-eabi/5.4.1/../../../../arm-none-eabi/lib/armv7e-m/fpu\libc.a(lib_a-assert.o)
 .debug_frame   0x0000b5ec       0x44 c:/rtthread/env/tools/gnu_gcc/arm_gcc/mingw/bin/../lib/gcc/arm-none-eabi/5.4.1/../../../../arm-none-eabi/lib/armv7e-m/fpu\libc.a(lib_a-fclose.o)
 .debug_frame   0x0000b630       0x6c c:/rtthread/env/tools/gnu_gcc/arm_gcc/mingw/bin/../lib/gcc/arm-none-eabi/5.4.1/../../../../arm-none-eabi/lib/armv7e-m/fpu\libc.a(lib_a-fflush.o)
 .debug_frame   0x0000b69c       0x2c c:/rtthread/env/tools/gnu_gcc/arm_gcc/mingw/bin/../lib/gcc/arm-none-eabi/5.4.1/../../../../arm-none-eabi/lib/armv7e-m/fpu\libc.a(lib_a-fileno.o)
 .debug_frame   0x0000b6c8      0x124 c:/rtthread/env/tools/gnu_gcc/arm_gcc/mingw/bin/../lib/gcc/arm-none-eabi/5.4.1/../../../../arm-none-eabi/lib/armv7e-m/fpu\libc.a(lib_a-findfp.o)
 .debug_frame   0x0000b7ec       0x70 c:/rtthread/env/tools/gnu_gcc/arm_gcc/mingw/bin/../lib/gcc/arm-none-eabi/5.4.1/../../../../arm-none-eabi/lib/armv7e-m/fpu\libc.a(lib_a-fiprintf.o)
 .debug_frame   0x0000b85c       0x54 c:/rtthread/env/tools/gnu_gcc/arm_gcc/mingw/bin/../lib/gcc/arm-none-eabi/5.4.1/../../../../arm-none-eabi/lib/armv7e-m/fpu\libc.a(lib_a-fopen.o)
 .debug_frame   0x0000b8b0       0x3c c:/rtthread/env/tools/gnu_gcc/arm_gcc/mingw/bin/../lib/gcc/arm-none-eabi/5.4.1/../../../../arm-none-eabi/lib/armv7e-m/fpu\libc.a(lib_a-fseek.o)
 .debug_frame   0x0000b8ec       0x68 c:/rtthread/env/tools/gnu_gcc/arm_gcc/mingw/bin/../lib/gcc/arm-none-eabi/5.4.1/../../../../arm-none-eabi/lib/armv7e-m/fpu\libc.a(lib_a-fseeko.o)
 .debug_frame   0x0000b954       0x54 c:/rtthread/env/tools/gnu_gcc/arm_gcc/mingw/bin/../lib/gcc/arm-none-eabi/5.4.1/../../../../arm-none-eabi/lib/armv7e-m/fpu\libc.a(lib_a-fwalk.o)
 .debug_frame   0x0000b9a8       0x68 c:/rtthread/env/tools/gnu_gcc/arm_gcc/mingw/bin/../lib/gcc/arm-none-eabi/5.4.1/../../../../arm-none-eabi/lib/armv7e-m/fpu\libc.a(lib_a-makebuf.o)
 .debug_frame   0x0000ba10       0x30 c:/rtthread/env/tools/gnu_gcc/arm_gcc/mingw/bin/../lib/gcc/arm-none-eabi/5.4.1/../../../../arm-none-eabi/lib/armv7e-m/fpu\libc.a(lib_a-malloc.o)
 .debug_frame   0x0000ba40       0x38 c:/rtthread/env/tools/gnu_gcc/arm_gcc/mingw/bin/../lib/gcc/arm-none-eabi/5.4.1/../../../../arm-none-eabi/lib/armv7e-m/fpu\libc.a(lib_a-memcmp.o)
 .debug_frame   0x0000ba78       0x34 c:/rtthread/env/tools/gnu_gcc/arm_gcc/mingw/bin/../lib/gcc/arm-none-eabi/5.4.1/../../../../arm-none-eabi/lib/armv7e-m/fpu\libc.a(lib_a-memset.o)
 .debug_frame   0x0000baac       0x20 c:/rtthread/env/tools/gnu_gcc/arm_gcc/mingw/bin/../lib/gcc/arm-none-eabi/5.4.1/../../../../arm-none-eabi/lib/armv7e-m/fpu\libc.a(lib_a-putenv.o)
 .debug_frame   0x0000bacc       0x2c c:/rtthread/env/tools/gnu_gcc/arm_gcc/mingw/bin/../lib/gcc/arm-none-eabi/5.4.1/../../../../arm-none-eabi/lib/armv7e-m/fpu\libc.a(lib_a-putenv_r.o)
 .debug_frame   0x0000baf8       0x40 c:/rtthread/env/tools/gnu_gcc/arm_gcc/mingw/bin/../lib/gcc/arm-none-eabi/5.4.1/../../../../arm-none-eabi/lib/armv7e-m/fpu\libc.a(lib_a-refill.o)
 .debug_frame   0x0000bb38       0x3c c:/rtthread/env/tools/gnu_gcc/arm_gcc/mingw/bin/../lib/gcc/arm-none-eabi/5.4.1/../../../../arm-none-eabi/lib/armv7e-m/fpu\libc.a(lib_a-rget.o)
 .debug_frame   0x0000bb74       0x74 c:/rtthread/env/tools/gnu_gcc/arm_gcc/mingw/bin/../lib/gcc/arm-none-eabi/5.4.1/../../../../arm-none-eabi/lib/armv7e-m/fpu\libc.a(lib_a-setenv_r.o)
 .debug_frame   0x0000bbe8       0x50 c:/rtthread/env/tools/gnu_gcc/arm_gcc/mingw/bin/../lib/gcc/arm-none-eabi/5.4.1/../../../../arm-none-eabi/lib/armv7e-m/fpu\libc.a(lib_a-setvbuf.o)
 .debug_frame   0x0000bc38       0xd0 c:/rtthread/env/tools/gnu_gcc/arm_gcc/mingw/bin/../lib/gcc/arm-none-eabi/5.4.1/../../../../arm-none-eabi/lib/armv7e-m/fpu\libc.a(lib_a-snprintf.o)
 .debug_frame   0x0000bd08       0x88 c:/rtthread/env/tools/gnu_gcc/arm_gcc/mingw/bin/../lib/gcc/arm-none-eabi/5.4.1/../../../../arm-none-eabi/lib/armv7e-m/fpu\libc.a(lib_a-stdio.o)
 .debug_frame   0x0000bd90       0x4c c:/rtthread/env/tools/gnu_gcc/arm_gcc/mingw/bin/../lib/gcc/arm-none-eabi/5.4.1/../../../../arm-none-eabi/lib/armv7e-m/fpu\libc.a(lib_a-strchr.o)
 .debug_frame   0x0000bddc       0x68 c:/rtthread/env/tools/gnu_gcc/arm_gcc/mingw/bin/../lib/gcc/arm-none-eabi/5.4.1/../../../../arm-none-eabi/lib/armv7e-m/fpu\libc.a(lib_a-strcmp.o)
 .debug_frame   0x0000be44       0x20 c:/rtthread/env/tools/gnu_gcc/arm_gcc/mingw/bin/../lib/gcc/arm-none-eabi/5.4.1/../../../../arm-none-eabi/lib/armv7e-m/fpu\libc.a(lib_a-strcpy.o)
 .debug_frame   0x0000be64       0x2c c:/rtthread/env/tools/gnu_gcc/arm_gcc/mingw/bin/../lib/gcc/arm-none-eabi/5.4.1/../../../../arm-none-eabi/lib/armv7e-m/fpu\libc.a(lib_a-strdup_r.o)
 .debug_frame   0x0000be90       0x54 c:/rtthread/env/tools/gnu_gcc/arm_gcc/mingw/bin/../lib/gcc/arm-none-eabi/5.4.1/../../../../arm-none-eabi/lib/armv7e-m/fpu\libc.a(lib_a-strncmp.o)
 .debug_frame   0x0000bee4       0x34 c:/rtthread/env/tools/gnu_gcc/arm_gcc/mingw/bin/../lib/gcc/arm-none-eabi/5.4.1/../../../../arm-none-eabi/lib/armv7e-m/fpu\libc.a(lib_a-strncpy.o)
 .debug_frame   0x0000bf18       0x34 c:/rtthread/env/tools/gnu_gcc/arm_gcc/mingw/bin/../lib/gcc/arm-none-eabi/5.4.1/../../../../arm-none-eabi/lib/armv7e-m/fpu\libc.a(lib_a-strrchr.o)
 .debug_frame   0x0000bf4c       0xd8 c:/rtthread/env/tools/gnu_gcc/arm_gcc/mingw/bin/../lib/gcc/arm-none-eabi/5.4.1/../../../../arm-none-eabi/lib/armv7e-m/fpu\libc.a(lib_a-strstr.o)
 .debug_frame   0x0000c024       0x44 c:/rtthread/env/tools/gnu_gcc/arm_gcc/mingw/bin/../lib/gcc/arm-none-eabi/5.4.1/../../../../arm-none-eabi/lib/armv7e-m/fpu\libc.a(lib_a-svfprintf.o)
 .debug_frame   0x0000c068       0xc8 c:/rtthread/env/tools/gnu_gcc/arm_gcc/mingw/bin/../lib/gcc/arm-none-eabi/5.4.1/../../../../arm-none-eabi/lib/armv7e-m/fpu\libc.a(lib_a-vfiprintf.o)
 .debug_frame   0x0000c130       0x2c c:/rtthread/env/tools/gnu_gcc/arm_gcc/mingw/bin/../lib/gcc/arm-none-eabi/5.4.1/../../../../arm-none-eabi/lib/armv7e-m/fpu\libc.a(lib_a-wsetup.o)
 .debug_frame   0x0000c15c       0x88 c:/rtthread/env/tools/gnu_gcc/arm_gcc/mingw/bin/../lib/gcc/arm-none-eabi/5.4.1/../../../../arm-none-eabi/lib/armv7e-m/fpu\libc.a(lib_a-dtoa.o)
 .debug_frame   0x0000c1e4       0x30 c:/rtthread/env/tools/gnu_gcc/arm_gcc/mingw/bin/../lib/gcc/arm-none-eabi/5.4.1/../../../../arm-none-eabi/lib/armv7e-m/fpu\libc.a(lib_a-envlock.o)
 .debug_frame   0x0000c214       0x38 c:/rtthread/env/tools/gnu_gcc/arm_gcc/mingw/bin/../lib/gcc/arm-none-eabi/5.4.1/../../../../arm-none-eabi/lib/armv7e-m/fpu\libc.a(lib_a-flags.o)
 .debug_frame   0x0000c24c       0x8c c:/rtthread/env/tools/gnu_gcc/arm_gcc/mingw/bin/../lib/gcc/arm-none-eabi/5.4.1/../../../../arm-none-eabi/lib/armv7e-m/fpu\libc.a(lib_a-fputwc.o)
 .debug_frame   0x0000c2d8       0x68 c:/rtthread/env/tools/gnu_gcc/arm_gcc/mingw/bin/../lib/gcc/arm-none-eabi/5.4.1/../../../../arm-none-eabi/lib/armv7e-m/fpu\libc.a(lib_a-fvwrite.o)
 .debug_frame   0x0000c340       0x50 c:/rtthread/env/tools/gnu_gcc/arm_gcc/mingw/bin/../lib/gcc/arm-none-eabi/5.4.1/../../../../arm-none-eabi/lib/armv7e-m/fpu\libc.a(lib_a-getenv_r.o)
 .debug_frame   0x0000c390       0x84 c:/rtthread/env/tools/gnu_gcc/arm_gcc/mingw/bin/../lib/gcc/arm-none-eabi/5.4.1/../../../../arm-none-eabi/lib/armv7e-m/fpu\libc.a(lib_a-locale.o)
 .debug_frame   0x0000c414       0x40 c:/rtthread/env/tools/gnu_gcc/arm_gcc/mingw/bin/../lib/gcc/arm-none-eabi/5.4.1/../../../../arm-none-eabi/lib/armv7e-m/fpu\libc.a(lib_a-localeconv.o)
 .debug_frame   0x0000c454       0x4c c:/rtthread/env/tools/gnu_gcc/arm_gcc/mingw/bin/../lib/gcc/arm-none-eabi/5.4.1/../../../../arm-none-eabi/lib/armv7e-m/fpu\libc.a(lib_a-mbtowc_r.o)
 .debug_frame   0x0000c4a0       0x30 c:/rtthread/env/tools/gnu_gcc/arm_gcc/mingw/bin/../lib/gcc/arm-none-eabi/5.4.1/../../../../arm-none-eabi/lib/armv7e-m/fpu\libc.a(lib_a-memmove.o)
 .debug_frame   0x0000c4d0      0x264 c:/rtthread/env/tools/gnu_gcc/arm_gcc/mingw/bin/../lib/gcc/arm-none-eabi/5.4.1/../../../../arm-none-eabi/lib/armv7e-m/fpu\libc.a(lib_a-mprec.o)
 .debug_frame   0x0000c734       0x78 c:/rtthread/env/tools/gnu_gcc/arm_gcc/mingw/bin/../lib/gcc/arm-none-eabi/5.4.1/../../../../arm-none-eabi/lib/armv7e-m/fpu\libc.a(lib_a-svfiprintf.o)
 .debug_frame   0x0000c7ac       0x40 c:/rtthread/env/tools/gnu_gcc/arm_gcc/mingw/bin/../lib/gcc/arm-none-eabi/5.4.1/../../../../arm-none-eabi/lib/armv7e-m/fpu\libc.a(lib_a-wbuf.o)
 .debug_frame   0x0000c7ec       0x5c c:/rtthread/env/tools/gnu_gcc/arm_gcc/mingw/bin/../lib/gcc/arm-none-eabi/5.4.1/../../../../arm-none-eabi/lib/armv7e-m/fpu\libc.a(lib_a-wcrtomb.o)
 .debug_frame   0x0000c848       0x3c c:/rtthread/env/tools/gnu_gcc/arm_gcc/mingw/bin/../lib/gcc/arm-none-eabi/5.4.1/../../../../arm-none-eabi/lib/armv7e-m/fpu\libc.a(lib_a-wctomb_r.o)
 .debug_frame   0x0000c884       0x2c c:/rtthread/env/tools/gnu_gcc/arm_gcc/mingw/bin/../lib/gcc/arm-none-eabi/5.4.1/armv7e-m/fpu\libgcc.a(_aeabi_uldivmod.o)
 .debug_frame   0x0000c8b0       0x34 c:/rtthread/env/tools/gnu_gcc/arm_gcc/mingw/bin/../lib/gcc/arm-none-eabi/5.4.1/armv7e-m/fpu\libgcc.a(_udivmoddi4.o)

Cross Reference Table

Symbol                                            File
ACMP1_IRQHandler                                  libraries\MIMXRT1050\MIMXRT1052\gcc\startup_MIMXRT1052.o
ACMP2_IRQHandler                                  libraries\MIMXRT1050\MIMXRT1052\gcc\startup_MIMXRT1052.o
ACMP3_IRQHandler                                  libraries\MIMXRT1050\MIMXRT1052\gcc\startup_MIMXRT1052.o
ACMP4_IRQHandler                                  libraries\MIMXRT1050\MIMXRT1052\gcc\startup_MIMXRT1052.o
ADC1_IRQHandler                                   libraries\MIMXRT1050\MIMXRT1052\gcc\startup_MIMXRT1052.o
ADC2_IRQHandler                                   libraries\MIMXRT1050\MIMXRT1052\gcc\startup_MIMXRT1052.o
ADC_ETC_ERROR_IRQ_IRQHandler                      libraries\MIMXRT1050\MIMXRT1052\gcc\startup_MIMXRT1052.o
ADC_ETC_IRQ0_IRQHandler                           libraries\MIMXRT1050\MIMXRT1052\gcc\startup_MIMXRT1052.o
ADC_ETC_IRQ1_IRQHandler                           libraries\MIMXRT1050\MIMXRT1052\gcc\startup_MIMXRT1052.o
ADC_ETC_IRQ2_IRQHandler                           libraries\MIMXRT1050\MIMXRT1052\gcc\startup_MIMXRT1052.o
BEE_IRQHandler                                    libraries\MIMXRT1050\MIMXRT1052\gcc\startup_MIMXRT1052.o
BOARD_BootClockRUN                                build\board\MCUX_Config\clock_config.o
                                                  build\board\board.o
BOARD_InitBootClocks                              build\board\MCUX_Config\clock_config.o
BOARD_InitBootPins                                build\board\MCUX_Config\pin_mux.o
BOARD_InitPins                                    build\board\MCUX_Config\pin_mux.o
                                                  build\board\board.o
BusFault_Handler                                  libraries\MIMXRT1050\MIMXRT1052\gcc\startup_MIMXRT1052.o
CAN1_DriverIRQHandler                             libraries\MIMXRT1050\MIMXRT1052\gcc\startup_MIMXRT1052.o
CAN1_IRQHandler                                   libraries\MIMXRT1050\MIMXRT1052\gcc\startup_MIMXRT1052.o
CAN2_DriverIRQHandler                             libraries\MIMXRT1050\MIMXRT1052\gcc\startup_MIMXRT1052.o
CAN2_IRQHandler                                   libraries\MIMXRT1050\MIMXRT1052\gcc\startup_MIMXRT1052.o
CCM_1_IRQHandler                                  libraries\MIMXRT1050\MIMXRT1052\gcc\startup_MIMXRT1052.o
CCM_2_IRQHandler                                  libraries\MIMXRT1050\MIMXRT1052\gcc\startup_MIMXRT1052.o
CLOCK_DeinitArmPll                                libraries\MIMXRT1050\MIMXRT1052\drivers\fsl_clock.o
CLOCK_DeinitAudioPll                              libraries\MIMXRT1050\MIMXRT1052\drivers\fsl_clock.o
                                                  build\board\MCUX_Config\clock_config.o
CLOCK_DeinitEnetPll                               libraries\MIMXRT1050\MIMXRT1052\drivers\fsl_clock.o
                                                  build\board\MCUX_Config\clock_config.o
CLOCK_DeinitExternalClk                           libraries\MIMXRT1050\MIMXRT1052\drivers\fsl_clock.o
CLOCK_DeinitRcOsc24M                              libraries\MIMXRT1050\MIMXRT1052\drivers\fsl_clock.o
CLOCK_DeinitSysPfd                                libraries\MIMXRT1050\MIMXRT1052\drivers\fsl_clock.o
CLOCK_DeinitSysPll                                libraries\MIMXRT1050\MIMXRT1052\drivers\fsl_clock.o
CLOCK_DeinitUsb1Pfd                               libraries\MIMXRT1050\MIMXRT1052\drivers\fsl_clock.o
CLOCK_DeinitUsb1Pll                               libraries\MIMXRT1050\MIMXRT1052\drivers\fsl_clock.o
CLOCK_DeinitUsb2Pll                               libraries\MIMXRT1050\MIMXRT1052\drivers\fsl_clock.o
CLOCK_DeinitVideoPll                              libraries\MIMXRT1050\MIMXRT1052\drivers\fsl_clock.o
                                                  build\board\MCUX_Config\clock_config.o
CLOCK_DisableUsbhs0PhyPllClock                    libraries\MIMXRT1050\MIMXRT1052\drivers\fsl_clock.o
CLOCK_DisableUsbhs1PhyPllClock                    libraries\MIMXRT1050\MIMXRT1052\drivers\fsl_clock.o
CLOCK_EnableUsbhs0Clock                           libraries\MIMXRT1050\MIMXRT1052\drivers\fsl_clock.o
                                                  libraries\drivers\drv_usbh.o
CLOCK_EnableUsbhs0PhyPllClock                     libraries\MIMXRT1050\MIMXRT1052\drivers\fsl_clock.o
                                                  libraries\drivers\drv_usbh.o
CLOCK_EnableUsbhs1Clock                           libraries\MIMXRT1050\MIMXRT1052\drivers\fsl_clock.o
                                                  libraries\drivers\drv_usbh.o
CLOCK_EnableUsbhs1PhyPllClock                     libraries\MIMXRT1050\MIMXRT1052\drivers\fsl_clock.o
                                                  libraries\drivers\drv_usbh.o
CLOCK_GetAhbFreq                                  libraries\MIMXRT1050\MIMXRT1052\drivers\fsl_clock.o
CLOCK_GetFreq                                     libraries\MIMXRT1050\MIMXRT1052\drivers\fsl_clock.o
CLOCK_GetIpgFreq                                  libraries\MIMXRT1050\MIMXRT1052\drivers\fsl_clock.o
CLOCK_GetPerClkFreq                               libraries\MIMXRT1050\MIMXRT1052\drivers\fsl_clock.o
CLOCK_GetPllFreq                                  libraries\MIMXRT1050\MIMXRT1052\drivers\fsl_clock.o
                                                  libraries\drivers\drv_uart.o
CLOCK_GetSemcFreq                                 libraries\MIMXRT1050\MIMXRT1052\drivers\fsl_clock.o
CLOCK_GetSysPfdFreq                               libraries\MIMXRT1050\MIMXRT1052\drivers\fsl_clock.o
                                                  libraries\drivers\drv_sdio.o
CLOCK_GetUsb1PfdFreq                              libraries\MIMXRT1050\MIMXRT1052\drivers\fsl_clock.o
CLOCK_InitArmPll                                  libraries\MIMXRT1050\MIMXRT1052\drivers\fsl_clock.o
                                                  build\board\MCUX_Config\clock_config.o
CLOCK_InitAudioPll                                libraries\MIMXRT1050\MIMXRT1052\drivers\fsl_clock.o
CLOCK_InitEnetPll                                 libraries\MIMXRT1050\MIMXRT1052\drivers\fsl_clock.o
CLOCK_InitExternalClk                             libraries\MIMXRT1050\MIMXRT1052\drivers\fsl_clock.o
                                                  build\board\MCUX_Config\clock_config.o
CLOCK_InitRcOsc24M                                libraries\MIMXRT1050\MIMXRT1052\drivers\fsl_clock.o
                                                  build\board\MCUX_Config\clock_config.o
CLOCK_InitSysPfd                                  libraries\MIMXRT1050\MIMXRT1052\drivers\fsl_clock.o
CLOCK_InitSysPll                                  libraries\MIMXRT1050\MIMXRT1052\drivers\fsl_clock.o
CLOCK_InitUsb1Pfd                                 libraries\MIMXRT1050\MIMXRT1052\drivers\fsl_clock.o
CLOCK_InitUsb1Pll                                 libraries\MIMXRT1050\MIMXRT1052\drivers\fsl_clock.o
CLOCK_InitUsb2Pll                                 libraries\MIMXRT1050\MIMXRT1052\drivers\fsl_clock.o
                                                  build\board\MCUX_Config\clock_config.o
CLOCK_InitVideoPll                                libraries\MIMXRT1050\MIMXRT1052\drivers\fsl_clock.o
CLOCK_SwitchOsc                                   libraries\MIMXRT1050\MIMXRT1052\drivers\fsl_clock.o
                                                  build\board\MCUX_Config\clock_config.o
CORE_IRQHandler                                   libraries\MIMXRT1050\MIMXRT1052\gcc\startup_MIMXRT1052.o
CSI_IRQHandler                                    libraries\MIMXRT1050\MIMXRT1052\gcc\startup_MIMXRT1052.o
CSU_IRQHandler                                    libraries\MIMXRT1050\MIMXRT1052\gcc\startup_MIMXRT1052.o
CTI0_ERROR_IRQHandler                             libraries\MIMXRT1050\MIMXRT1052\gcc\startup_MIMXRT1052.o
CTI1_ERROR_IRQHandler                             libraries\MIMXRT1050\MIMXRT1052\gcc\startup_MIMXRT1052.o
DCACHE_CleanByRange                               libraries\MIMXRT1050\MIMXRT1052\drivers\fsl_cache.o
                                                  libraries\MIMXRT1050\MIMXRT1052\drivers\fsl_usdhc.o
DCACHE_CleanInvalidateByRange                     libraries\MIMXRT1050\MIMXRT1052\drivers\fsl_cache.o
                                                  libraries\MIMXRT1050\MIMXRT1052\drivers\fsl_usdhc.o
DCACHE_InvalidateByRange                          libraries\MIMXRT1050\MIMXRT1052\drivers\fsl_cache.o
DCDC_IRQHandler                                   libraries\MIMXRT1050\MIMXRT1052\gcc\startup_MIMXRT1052.o
DCP_IRQHandler                                    libraries\MIMXRT1050\MIMXRT1052\gcc\startup_MIMXRT1052.o
DCP_VMI_IRQHandler                                libraries\MIMXRT1050\MIMXRT1052\gcc\startup_MIMXRT1052.o
DMA0_DMA16_DriverIRQHandler                       libraries\MIMXRT1050\MIMXRT1052\gcc\startup_MIMXRT1052.o
DMA0_DMA16_IRQHandler                             libraries\MIMXRT1050\MIMXRT1052\gcc\startup_MIMXRT1052.o
DMA10_DMA26_DriverIRQHandler                      libraries\MIMXRT1050\MIMXRT1052\gcc\startup_MIMXRT1052.o
DMA10_DMA26_IRQHandler                            libraries\MIMXRT1050\MIMXRT1052\gcc\startup_MIMXRT1052.o
DMA11_DMA27_DriverIRQHandler                      libraries\MIMXRT1050\MIMXRT1052\gcc\startup_MIMXRT1052.o
DMA11_DMA27_IRQHandler                            libraries\MIMXRT1050\MIMXRT1052\gcc\startup_MIMXRT1052.o
DMA12_DMA28_DriverIRQHandler                      libraries\MIMXRT1050\MIMXRT1052\gcc\startup_MIMXRT1052.o
DMA12_DMA28_IRQHandler                            libraries\MIMXRT1050\MIMXRT1052\gcc\startup_MIMXRT1052.o
DMA13_DMA29_DriverIRQHandler                      libraries\MIMXRT1050\MIMXRT1052\gcc\startup_MIMXRT1052.o
DMA13_DMA29_IRQHandler                            libraries\MIMXRT1050\MIMXRT1052\gcc\startup_MIMXRT1052.o
DMA14_DMA30_DriverIRQHandler                      libraries\MIMXRT1050\MIMXRT1052\gcc\startup_MIMXRT1052.o
DMA14_DMA30_IRQHandler                            libraries\MIMXRT1050\MIMXRT1052\gcc\startup_MIMXRT1052.o
DMA15_DMA31_DriverIRQHandler                      libraries\MIMXRT1050\MIMXRT1052\gcc\startup_MIMXRT1052.o
DMA15_DMA31_IRQHandler                            libraries\MIMXRT1050\MIMXRT1052\gcc\startup_MIMXRT1052.o
DMA1_DMA17_DriverIRQHandler                       libraries\MIMXRT1050\MIMXRT1052\gcc\startup_MIMXRT1052.o
DMA1_DMA17_IRQHandler                             libraries\MIMXRT1050\MIMXRT1052\gcc\startup_MIMXRT1052.o
DMA2_DMA18_DriverIRQHandler                       libraries\MIMXRT1050\MIMXRT1052\gcc\startup_MIMXRT1052.o
DMA2_DMA18_IRQHandler                             libraries\MIMXRT1050\MIMXRT1052\gcc\startup_MIMXRT1052.o
DMA3_DMA19_DriverIRQHandler                       libraries\MIMXRT1050\MIMXRT1052\gcc\startup_MIMXRT1052.o
DMA3_DMA19_IRQHandler                             libraries\MIMXRT1050\MIMXRT1052\gcc\startup_MIMXRT1052.o
DMA4_DMA20_DriverIRQHandler                       libraries\MIMXRT1050\MIMXRT1052\gcc\startup_MIMXRT1052.o
DMA4_DMA20_IRQHandler                             libraries\MIMXRT1050\MIMXRT1052\gcc\startup_MIMXRT1052.o
DMA5_DMA21_DriverIRQHandler                       libraries\MIMXRT1050\MIMXRT1052\gcc\startup_MIMXRT1052.o
DMA5_DMA21_IRQHandler                             libraries\MIMXRT1050\MIMXRT1052\gcc\startup_MIMXRT1052.o
DMA6_DMA22_DriverIRQHandler                       libraries\MIMXRT1050\MIMXRT1052\gcc\startup_MIMXRT1052.o
DMA6_DMA22_IRQHandler                             libraries\MIMXRT1050\MIMXRT1052\gcc\startup_MIMXRT1052.o
DMA7_DMA23_DriverIRQHandler                       libraries\MIMXRT1050\MIMXRT1052\gcc\startup_MIMXRT1052.o
DMA7_DMA23_IRQHandler                             libraries\MIMXRT1050\MIMXRT1052\gcc\startup_MIMXRT1052.o
DMA8_DMA24_DriverIRQHandler                       libraries\MIMXRT1050\MIMXRT1052\gcc\startup_MIMXRT1052.o
DMA8_DMA24_IRQHandler                             libraries\MIMXRT1050\MIMXRT1052\gcc\startup_MIMXRT1052.o
DMA9_DMA25_DriverIRQHandler                       libraries\MIMXRT1050\MIMXRT1052\gcc\startup_MIMXRT1052.o
DMA9_DMA25_IRQHandler                             libraries\MIMXRT1050\MIMXRT1052\gcc\startup_MIMXRT1052.o
DMA_ERROR_DriverIRQHandler                        libraries\MIMXRT1050\MIMXRT1052\gcc\startup_MIMXRT1052.o
DMA_ERROR_IRQHandler                              libraries\MIMXRT1050\MIMXRT1052\gcc\startup_MIMXRT1052.o
DebugMon_Handler                                  libraries\MIMXRT1050\MIMXRT1052\gcc\startup_MIMXRT1052.o
DefaultISR                                        libraries\MIMXRT1050\MIMXRT1052\gcc\startup_MIMXRT1052.o
ENC1_IRQHandler                                   libraries\MIMXRT1050\MIMXRT1052\gcc\startup_MIMXRT1052.o
ENC2_IRQHandler                                   libraries\MIMXRT1050\MIMXRT1052\gcc\startup_MIMXRT1052.o
ENC3_IRQHandler                                   libraries\MIMXRT1050\MIMXRT1052\gcc\startup_MIMXRT1052.o
ENC4_IRQHandler                                   libraries\MIMXRT1050\MIMXRT1052\gcc\startup_MIMXRT1052.o
ENC_ClearStatusFlags                              libraries\MIMXRT1050\MIMXRT1052\drivers\fsl_enc.o
ENC_Deinit                                        libraries\MIMXRT1050\MIMXRT1052\drivers\fsl_enc.o
                                                  libraries\drivers\drv_pulse_encoder.o
ENC_DisableInterrupts                             libraries\MIMXRT1050\MIMXRT1052\drivers\fsl_enc.o
ENC_DoSoftwareLoadInitialPositionValue            libraries\MIMXRT1050\MIMXRT1052\drivers\fsl_enc.o
                                                  libraries\drivers\drv_pulse_encoder.o
ENC_EnableInterrupts                              libraries\MIMXRT1050\MIMXRT1052\drivers\fsl_enc.o
ENC_EnableWatchdog                                libraries\MIMXRT1050\MIMXRT1052\drivers\fsl_enc.o
ENC_GetDefaultConfig                              libraries\MIMXRT1050\MIMXRT1052\drivers\fsl_enc.o
                                                  libraries\drivers\drv_pulse_encoder.o
ENC_GetEnabledInterrupts                          libraries\MIMXRT1050\MIMXRT1052\drivers\fsl_enc.o
ENC_GetHoldPositionValue                          libraries\MIMXRT1050\MIMXRT1052\drivers\fsl_enc.o
ENC_GetPositionValue                              libraries\MIMXRT1050\MIMXRT1052\drivers\fsl_enc.o
                                                  libraries\drivers\drv_pulse_encoder.o
ENC_GetStatusFlags                                libraries\MIMXRT1050\MIMXRT1052\drivers\fsl_enc.o
ENC_Init                                          libraries\MIMXRT1050\MIMXRT1052\drivers\fsl_enc.o
                                                  libraries\drivers\drv_pulse_encoder.o
ENC_SetInitialPositionValue                       libraries\MIMXRT1050\MIMXRT1052\drivers\fsl_enc.o
                                                  libraries\drivers\drv_pulse_encoder.o
ENC_SetSelfTestConfig                             libraries\MIMXRT1050\MIMXRT1052\drivers\fsl_enc.o
ENET_1588_Timer_DriverIRQHandler                  libraries\MIMXRT1050\MIMXRT1052\gcc\startup_MIMXRT1052.o
ENET_1588_Timer_IRQHandler                        libraries\MIMXRT1050\MIMXRT1052\gcc\startup_MIMXRT1052.o
ENET_DriverIRQHandler                             libraries\MIMXRT1050\MIMXRT1052\gcc\startup_MIMXRT1052.o
ENET_IRQHandler                                   libraries\MIMXRT1050\MIMXRT1052\gcc\startup_MIMXRT1052.o
EWM_IRQHandler                                    libraries\MIMXRT1050\MIMXRT1052\gcc\startup_MIMXRT1052.o
FLEXIO1_DriverIRQHandler                          libraries\MIMXRT1050\MIMXRT1052\gcc\startup_MIMXRT1052.o
FLEXIO1_IRQHandler                                libraries\MIMXRT1050\MIMXRT1052\gcc\startup_MIMXRT1052.o
FLEXIO2_DriverIRQHandler                          libraries\MIMXRT1050\MIMXRT1052\gcc\startup_MIMXRT1052.o
FLEXIO2_IRQHandler                                libraries\MIMXRT1050\MIMXRT1052\gcc\startup_MIMXRT1052.o
FLEXRAM_IRQHandler                                libraries\MIMXRT1050\MIMXRT1052\gcc\startup_MIMXRT1052.o
FLEXSPI_DriverIRQHandler                          libraries\MIMXRT1050\MIMXRT1052\gcc\startup_MIMXRT1052.o
FLEXSPI_IRQHandler                                libraries\MIMXRT1050\MIMXRT1052\gcc\startup_MIMXRT1052.o
GPC_IRQHandler                                    libraries\MIMXRT1050\MIMXRT1052\gcc\startup_MIMXRT1052.o
GPIO1_Combined_0_15_IRQHandler                    libraries\drivers\drv_gpio.o
                                                  libraries\MIMXRT1050\MIMXRT1052\gcc\startup_MIMXRT1052.o
GPIO1_Combined_16_31_IRQHandler                   libraries\drivers\drv_gpio.o
                                                  libraries\MIMXRT1050\MIMXRT1052\gcc\startup_MIMXRT1052.o
GPIO1_INT0_IRQHandler                             libraries\MIMXRT1050\MIMXRT1052\gcc\startup_MIMXRT1052.o
GPIO1_INT1_IRQHandler                             libraries\MIMXRT1050\MIMXRT1052\gcc\startup_MIMXRT1052.o
GPIO1_INT2_IRQHandler                             libraries\MIMXRT1050\MIMXRT1052\gcc\startup_MIMXRT1052.o
GPIO1_INT3_IRQHandler                             libraries\MIMXRT1050\MIMXRT1052\gcc\startup_MIMXRT1052.o
GPIO1_INT4_IRQHandler                             libraries\MIMXRT1050\MIMXRT1052\gcc\startup_MIMXRT1052.o
GPIO1_INT5_IRQHandler                             libraries\MIMXRT1050\MIMXRT1052\gcc\startup_MIMXRT1052.o
GPIO1_INT6_IRQHandler                             libraries\MIMXRT1050\MIMXRT1052\gcc\startup_MIMXRT1052.o
GPIO1_INT7_IRQHandler                             libraries\MIMXRT1050\MIMXRT1052\gcc\startup_MIMXRT1052.o
GPIO2_Combined_0_15_IRQHandler                    libraries\drivers\drv_gpio.o
                                                  libraries\MIMXRT1050\MIMXRT1052\gcc\startup_MIMXRT1052.o
GPIO2_Combined_16_31_IRQHandler                   libraries\drivers\drv_gpio.o
                                                  libraries\MIMXRT1050\MIMXRT1052\gcc\startup_MIMXRT1052.o
GPIO3_Combined_0_15_IRQHandler                    libraries\drivers\drv_gpio.o
                                                  libraries\MIMXRT1050\MIMXRT1052\gcc\startup_MIMXRT1052.o
GPIO3_Combined_16_31_IRQHandler                   libraries\drivers\drv_gpio.o
                                                  libraries\MIMXRT1050\MIMXRT1052\gcc\startup_MIMXRT1052.o
GPIO4_Combined_0_15_IRQHandler                    libraries\drivers\drv_gpio.o
                                                  libraries\MIMXRT1050\MIMXRT1052\gcc\startup_MIMXRT1052.o
GPIO4_Combined_16_31_IRQHandler                   libraries\drivers\drv_gpio.o
                                                  libraries\MIMXRT1050\MIMXRT1052\gcc\startup_MIMXRT1052.o
GPIO5_Combined_0_15_IRQHandler                    libraries\drivers\drv_gpio.o
                                                  libraries\MIMXRT1050\MIMXRT1052\gcc\startup_MIMXRT1052.o
GPIO5_Combined_16_31_IRQHandler                   libraries\MIMXRT1050\MIMXRT1052\gcc\startup_MIMXRT1052.o
GPIO_PinInit                                      libraries\MIMXRT1050\MIMXRT1052\drivers\fsl_gpio.o
                                                  libraries\drivers\drv_gpio.o
                                                  build\board\MCUX_Config\pin_mux.o
GPIO_PinSetInterruptConfig                        libraries\MIMXRT1050\MIMXRT1052\drivers\fsl_gpio.o
                                                  libraries\drivers\drv_gpio.o
GPIO_PinWrite                                     libraries\MIMXRT1050\MIMXRT1052\drivers\fsl_gpio.o
                                                  libraries\drivers\drv_gpio.o
GPR_IRQ_IRQHandler                                libraries\MIMXRT1050\MIMXRT1052\gcc\startup_MIMXRT1052.o
GPT1_IRQHandler                                   libraries\MIMXRT1050\MIMXRT1052\gcc\startup_MIMXRT1052.o
GPT2_IRQHandler                                   libraries\MIMXRT1050\MIMXRT1052\gcc\startup_MIMXRT1052.o
GetUartSrcFreq                                    libraries\drivers\drv_uart.o
HardFault_Handler                                 build\kernel\libcpu\arm\cortex-m7\context_gcc.o
ICACHE_InvalidateByRange                          libraries\MIMXRT1050\MIMXRT1052\drivers\fsl_cache.o
KPP_IRQHandler                                    libraries\MIMXRT1050\MIMXRT1052\gcc\startup_MIMXRT1052.o
L1CACHE_InvalidateICacheByRange                   libraries\MIMXRT1050\MIMXRT1052\drivers\fsl_cache.o
LCDIF_IRQHandler                                  libraries\MIMXRT1050\MIMXRT1052\gcc\startup_MIMXRT1052.o
LIST_AddHead                                      libraries\MIMXRT1050\MIMXRT1052\drivers\generic_list.o
LIST_AddPrevElement                               libraries\MIMXRT1050\MIMXRT1052\drivers\generic_list.o
LIST_AddTail                                      libraries\MIMXRT1050\MIMXRT1052\drivers\generic_list.o
LIST_GetAvailableSize                             libraries\MIMXRT1050\MIMXRT1052\drivers\generic_list.o
LIST_GetHead                                      libraries\MIMXRT1050\MIMXRT1052\drivers\generic_list.o
LIST_GetList                                      libraries\MIMXRT1050\MIMXRT1052\drivers\generic_list.o
LIST_GetNext                                      libraries\MIMXRT1050\MIMXRT1052\drivers\generic_list.o
LIST_GetPrev                                      libraries\MIMXRT1050\MIMXRT1052\drivers\generic_list.o
LIST_GetSize                                      libraries\MIMXRT1050\MIMXRT1052\drivers\generic_list.o
LIST_Init                                         libraries\MIMXRT1050\MIMXRT1052\drivers\generic_list.o
LIST_RemoveElement                                libraries\MIMXRT1050\MIMXRT1052\drivers\generic_list.o
LIST_RemoveHead                                   libraries\MIMXRT1050\MIMXRT1052\drivers\generic_list.o
LPI2C1_DriverIRQHandler                           libraries\MIMXRT1050\MIMXRT1052\gcc\startup_MIMXRT1052.o
LPI2C1_IRQHandler                                 libraries\MIMXRT1050\MIMXRT1052\gcc\startup_MIMXRT1052.o
LPI2C2_DriverIRQHandler                           libraries\MIMXRT1050\MIMXRT1052\gcc\startup_MIMXRT1052.o
LPI2C2_IRQHandler                                 libraries\MIMXRT1050\MIMXRT1052\gcc\startup_MIMXRT1052.o
LPI2C3_DriverIRQHandler                           libraries\MIMXRT1050\MIMXRT1052\gcc\startup_MIMXRT1052.o
LPI2C3_IRQHandler                                 libraries\MIMXRT1050\MIMXRT1052\gcc\startup_MIMXRT1052.o
LPI2C4_DriverIRQHandler                           libraries\MIMXRT1050\MIMXRT1052\gcc\startup_MIMXRT1052.o
LPI2C4_IRQHandler                                 libraries\MIMXRT1050\MIMXRT1052\gcc\startup_MIMXRT1052.o
LPSPI1_DriverIRQHandler                           libraries\MIMXRT1050\MIMXRT1052\gcc\startup_MIMXRT1052.o
LPSPI1_IRQHandler                                 libraries\MIMXRT1050\MIMXRT1052\gcc\startup_MIMXRT1052.o
LPSPI2_DriverIRQHandler                           libraries\MIMXRT1050\MIMXRT1052\gcc\startup_MIMXRT1052.o
LPSPI2_IRQHandler                                 libraries\MIMXRT1050\MIMXRT1052\gcc\startup_MIMXRT1052.o
LPSPI3_DriverIRQHandler                           libraries\MIMXRT1050\MIMXRT1052\gcc\startup_MIMXRT1052.o
LPSPI3_IRQHandler                                 libraries\MIMXRT1050\MIMXRT1052\gcc\startup_MIMXRT1052.o
LPSPI4_DriverIRQHandler                           libraries\MIMXRT1050\MIMXRT1052\gcc\startup_MIMXRT1052.o
LPSPI4_IRQHandler                                 libraries\MIMXRT1050\MIMXRT1052\gcc\startup_MIMXRT1052.o
LPUART1_DriverIRQHandler                          libraries\MIMXRT1050\MIMXRT1052\drivers\fsl_lpuart.o
                                                  libraries\MIMXRT1050\MIMXRT1052\gcc\startup_MIMXRT1052.o
LPUART1_IRQHandler                                libraries\drivers\drv_uart.o
                                                  libraries\MIMXRT1050\MIMXRT1052\gcc\startup_MIMXRT1052.o
LPUART2_DriverIRQHandler                          libraries\MIMXRT1050\MIMXRT1052\drivers\fsl_lpuart.o
                                                  libraries\MIMXRT1050\MIMXRT1052\gcc\startup_MIMXRT1052.o
LPUART2_IRQHandler                                libraries\MIMXRT1050\MIMXRT1052\gcc\startup_MIMXRT1052.o
LPUART3_DriverIRQHandler                          libraries\MIMXRT1050\MIMXRT1052\drivers\fsl_lpuart.o
                                                  libraries\MIMXRT1050\MIMXRT1052\gcc\startup_MIMXRT1052.o
LPUART3_IRQHandler                                libraries\MIMXRT1050\MIMXRT1052\gcc\startup_MIMXRT1052.o
LPUART4_DriverIRQHandler                          libraries\MIMXRT1050\MIMXRT1052\drivers\fsl_lpuart.o
                                                  libraries\MIMXRT1050\MIMXRT1052\gcc\startup_MIMXRT1052.o
LPUART4_IRQHandler                                libraries\MIMXRT1050\MIMXRT1052\gcc\startup_MIMXRT1052.o
LPUART5_DriverIRQHandler                          libraries\MIMXRT1050\MIMXRT1052\drivers\fsl_lpuart.o
                                                  libraries\MIMXRT1050\MIMXRT1052\gcc\startup_MIMXRT1052.o
LPUART5_IRQHandler                                libraries\MIMXRT1050\MIMXRT1052\gcc\startup_MIMXRT1052.o
LPUART6_DriverIRQHandler                          libraries\MIMXRT1050\MIMXRT1052\drivers\fsl_lpuart.o
                                                  libraries\MIMXRT1050\MIMXRT1052\gcc\startup_MIMXRT1052.o
LPUART6_IRQHandler                                libraries\MIMXRT1050\MIMXRT1052\gcc\startup_MIMXRT1052.o
LPUART7_DriverIRQHandler                          libraries\MIMXRT1050\MIMXRT1052\drivers\fsl_lpuart.o
                                                  libraries\MIMXRT1050\MIMXRT1052\gcc\startup_MIMXRT1052.o
LPUART7_IRQHandler                                libraries\MIMXRT1050\MIMXRT1052\gcc\startup_MIMXRT1052.o
LPUART8_DriverIRQHandler                          libraries\MIMXRT1050\MIMXRT1052\drivers\fsl_lpuart.o
                                                  libraries\MIMXRT1050\MIMXRT1052\gcc\startup_MIMXRT1052.o
LPUART8_IRQHandler                                libraries\MIMXRT1050\MIMXRT1052\gcc\startup_MIMXRT1052.o
LPUART_ClearStatusFlags                           libraries\MIMXRT1050\MIMXRT1052\drivers\fsl_lpuart.o
                                                  libraries\drivers\drv_uart.o
LPUART_Deinit                                     libraries\MIMXRT1050\MIMXRT1052\drivers\fsl_lpuart.o
LPUART_DisableInterrupts                          libraries\MIMXRT1050\MIMXRT1052\drivers\fsl_lpuart.o
LPUART_EnableInterrupts                           libraries\MIMXRT1050\MIMXRT1052\drivers\fsl_lpuart.o
                                                  libraries\drivers\drv_uart.o
LPUART_GetDefaultConfig                           libraries\MIMXRT1050\MIMXRT1052\drivers\fsl_lpuart.o
                                                  libraries\drivers\drv_uart.o
LPUART_GetEnabledInterrupts                       libraries\MIMXRT1050\MIMXRT1052\drivers\fsl_lpuart.o
LPUART_GetInstance                                libraries\MIMXRT1050\MIMXRT1052\drivers\fsl_lpuart.o
LPUART_GetStatusFlags                             libraries\MIMXRT1050\MIMXRT1052\drivers\fsl_lpuart.o
                                                  libraries\drivers\drv_uart.o
LPUART_Init                                       libraries\MIMXRT1050\MIMXRT1052\drivers\fsl_lpuart.o
                                                  libraries\drivers\drv_uart.o
LPUART_ReadBlocking                               libraries\MIMXRT1050\MIMXRT1052\drivers\fsl_lpuart.o
LPUART_SetBaudRate                                libraries\MIMXRT1050\MIMXRT1052\drivers\fsl_lpuart.o
LPUART_TransferAbortReceive                       libraries\MIMXRT1050\MIMXRT1052\drivers\fsl_lpuart.o
LPUART_TransferAbortSend                          libraries\MIMXRT1050\MIMXRT1052\drivers\fsl_lpuart.o
LPUART_TransferCreateHandle                       libraries\MIMXRT1050\MIMXRT1052\drivers\fsl_lpuart.o
LPUART_TransferGetReceiveCount                    libraries\MIMXRT1050\MIMXRT1052\drivers\fsl_lpuart.o
LPUART_TransferGetRxRingBufferLength              libraries\MIMXRT1050\MIMXRT1052\drivers\fsl_lpuart.o
LPUART_TransferGetSendCount                       libraries\MIMXRT1050\MIMXRT1052\drivers\fsl_lpuart.o
LPUART_TransferHandleErrorIRQ                     libraries\MIMXRT1050\MIMXRT1052\drivers\fsl_lpuart.o
LPUART_TransferHandleIRQ                          libraries\MIMXRT1050\MIMXRT1052\drivers\fsl_lpuart.o
LPUART_TransferReceiveNonBlocking                 libraries\MIMXRT1050\MIMXRT1052\drivers\fsl_lpuart.o
LPUART_TransferSendNonBlocking                    libraries\MIMXRT1050\MIMXRT1052\drivers\fsl_lpuart.o
LPUART_TransferStartRingBuffer                    libraries\MIMXRT1050\MIMXRT1052\drivers\fsl_lpuart.o
LPUART_TransferStopRingBuffer                     libraries\MIMXRT1050\MIMXRT1052\drivers\fsl_lpuart.o
LPUART_WriteBlocking                              libraries\MIMXRT1050\MIMXRT1052\drivers\fsl_lpuart.o
MemManage_Handler                                 libraries\MIMXRT1050\MIMXRT1052\gcc\startup_MIMXRT1052.o
NMI_Handler                                       libraries\MIMXRT1050\MIMXRT1052\gcc\startup_MIMXRT1052.o
OSA_DisableIRQGlobal                              libraries\MIMXRT1050\MIMXRT1052\drivers\fsl_os_abstraction_rtthread.o
OSA_EnableIRQGlobal                               libraries\MIMXRT1050\MIMXRT1052\drivers\fsl_os_abstraction_rtthread.o
OSA_EnterCritical                                 libraries\MIMXRT1050\MIMXRT1052\drivers\fsl_os_abstraction_rtthread.o
                                                  libraries\drivers\usb\host\usb_host_hci.o
OSA_EventClear                                    libraries\MIMXRT1050\MIMXRT1052\drivers\fsl_os_abstraction_rtthread.o
OSA_EventCreate                                   libraries\MIMXRT1050\MIMXRT1052\drivers\fsl_os_abstraction_rtthread.o
                                                  libraries\drivers\usb\host\usb_host_ehci.o
OSA_EventDestroy                                  libraries\MIMXRT1050\MIMXRT1052\drivers\fsl_os_abstraction_rtthread.o
                                                  libraries\drivers\usb\host\usb_host_ehci.o
OSA_EventGet                                      libraries\MIMXRT1050\MIMXRT1052\drivers\fsl_os_abstraction_rtthread.o
OSA_EventSet                                      libraries\MIMXRT1050\MIMXRT1052\drivers\fsl_os_abstraction_rtthread.o
                                                  libraries\drivers\usb\host\usb_host_ehci.o
OSA_EventWait                                     libraries\MIMXRT1050\MIMXRT1052\drivers\fsl_os_abstraction_rtthread.o
                                                  libraries\drivers\usb\host\usb_host_ehci.o
OSA_ExitCritical                                  libraries\MIMXRT1050\MIMXRT1052\drivers\fsl_os_abstraction_rtthread.o
                                                  libraries\drivers\usb\host\usb_host_hci.o
OSA_InstallIntHandler                             libraries\MIMXRT1050\MIMXRT1052\drivers\fsl_os_abstraction_rtthread.o
OSA_InterruptDisable                              libraries\MIMXRT1050\MIMXRT1052\drivers\fsl_os_abstraction_rtthread.o
OSA_InterruptEnable                               libraries\MIMXRT1050\MIMXRT1052\drivers\fsl_os_abstraction_rtthread.o
OSA_MemoryAllocate                                libraries\MIMXRT1050\MIMXRT1052\drivers\fsl_os_abstraction_rtthread.o
                                                  libraries\drivers\usb\host\usb_host_ehci.o
                                                  libraries\drivers\usb\host\usb_host_devices.o
OSA_MemoryFree                                    libraries\MIMXRT1050\MIMXRT1052\drivers\fsl_os_abstraction_rtthread.o
                                                  libraries\drivers\usb\host\usb_host_ehci.o
                                                  libraries\drivers\usb\host\usb_host_devices.o
OSA_MsgQCreate                                    libraries\MIMXRT1050\MIMXRT1052\drivers\fsl_os_abstraction_rtthread.o
OSA_MsgQDestroy                                   libraries\MIMXRT1050\MIMXRT1052\drivers\fsl_os_abstraction_rtthread.o
OSA_MsgQGet                                       libraries\MIMXRT1050\MIMXRT1052\drivers\fsl_os_abstraction_rtthread.o
OSA_MsgQPut                                       libraries\MIMXRT1050\MIMXRT1052\drivers\fsl_os_abstraction_rtthread.o
OSA_MutexCreate                                   libraries\MIMXRT1050\MIMXRT1052\drivers\fsl_os_abstraction_rtthread.o
                                                  libraries\drivers\usb\host\usb_host_hci.o
                                                  libraries\drivers\usb\host\usb_host_ehci.o
OSA_MutexDestroy                                  libraries\MIMXRT1050\MIMXRT1052\drivers\fsl_os_abstraction_rtthread.o
                                                  libraries\drivers\usb\host\usb_host_hci.o
                                                  libraries\drivers\usb\host\usb_host_ehci.o
OSA_MutexLock                                     libraries\MIMXRT1050\MIMXRT1052\drivers\fsl_os_abstraction_rtthread.o
                                                  libraries\drivers\usb\host\usb_host_hci.o
                                                  libraries\drivers\usb\host\usb_host_ehci.o
                                                  libraries\drivers\usb\host\usb_host_devices.o
OSA_MutexUnlock                                   libraries\MIMXRT1050\MIMXRT1052\drivers\fsl_os_abstraction_rtthread.o
                                                  libraries\drivers\usb\host\usb_host_hci.o
                                                  libraries\drivers\usb\host\usb_host_ehci.o
                                                  libraries\drivers\usb\host\usb_host_devices.o
OSA_SemaphoreCreate                               libraries\MIMXRT1050\MIMXRT1052\drivers\fsl_os_abstraction_rtthread.o
OSA_SemaphoreDestroy                              libraries\MIMXRT1050\MIMXRT1052\drivers\fsl_os_abstraction_rtthread.o
OSA_SemaphorePost                                 libraries\MIMXRT1050\MIMXRT1052\drivers\fsl_os_abstraction_rtthread.o
OSA_SemaphoreWait                                 libraries\MIMXRT1050\MIMXRT1052\drivers\fsl_os_abstraction_rtthread.o
OSA_TimeDelay                                     libraries\MIMXRT1050\MIMXRT1052\drivers\fsl_os_abstraction_rtthread.o
OSA_TimeGetMsec                                   libraries\MIMXRT1050\MIMXRT1052\drivers\fsl_os_abstraction_rtthread.o
PIT_IRQHandler                                    libraries\MIMXRT1050\MIMXRT1052\gcc\startup_MIMXRT1052.o
PMU_EVENT_IRQHandler                              libraries\MIMXRT1050\MIMXRT1052\gcc\startup_MIMXRT1052.o
PWM1_0_IRQHandler                                 libraries\MIMXRT1050\MIMXRT1052\gcc\startup_MIMXRT1052.o
PWM1_1_IRQHandler                                 libraries\MIMXRT1050\MIMXRT1052\gcc\startup_MIMXRT1052.o
PWM1_2_IRQHandler                                 libraries\MIMXRT1050\MIMXRT1052\gcc\startup_MIMXRT1052.o
PWM1_3_IRQHandler                                 libraries\MIMXRT1050\MIMXRT1052\gcc\startup_MIMXRT1052.o
PWM1_FAULT_IRQHandler                             libraries\MIMXRT1050\MIMXRT1052\gcc\startup_MIMXRT1052.o
PWM2_0_IRQHandler                                 libraries\MIMXRT1050\MIMXRT1052\gcc\startup_MIMXRT1052.o
PWM2_1_IRQHandler                                 libraries\MIMXRT1050\MIMXRT1052\gcc\startup_MIMXRT1052.o
PWM2_2_IRQHandler                                 libraries\MIMXRT1050\MIMXRT1052\gcc\startup_MIMXRT1052.o
PWM2_3_IRQHandler                                 libraries\MIMXRT1050\MIMXRT1052\gcc\startup_MIMXRT1052.o
PWM2_FAULT_IRQHandler                             libraries\MIMXRT1050\MIMXRT1052\gcc\startup_MIMXRT1052.o
PWM3_0_IRQHandler                                 libraries\MIMXRT1050\MIMXRT1052\gcc\startup_MIMXRT1052.o
PWM3_1_IRQHandler                                 libraries\MIMXRT1050\MIMXRT1052\gcc\startup_MIMXRT1052.o
PWM3_2_IRQHandler                                 libraries\MIMXRT1050\MIMXRT1052\gcc\startup_MIMXRT1052.o
PWM3_3_IRQHandler                                 libraries\MIMXRT1050\MIMXRT1052\gcc\startup_MIMXRT1052.o
PWM3_FAULT_IRQHandler                             libraries\MIMXRT1050\MIMXRT1052\gcc\startup_MIMXRT1052.o
PWM4_0_IRQHandler                                 libraries\MIMXRT1050\MIMXRT1052\gcc\startup_MIMXRT1052.o
PWM4_1_IRQHandler                                 libraries\MIMXRT1050\MIMXRT1052\gcc\startup_MIMXRT1052.o
PWM4_2_IRQHandler                                 libraries\MIMXRT1050\MIMXRT1052\gcc\startup_MIMXRT1052.o
PWM4_3_IRQHandler                                 libraries\MIMXRT1050\MIMXRT1052\gcc\startup_MIMXRT1052.o
PWM4_FAULT_IRQHandler                             libraries\MIMXRT1050\MIMXRT1052\gcc\startup_MIMXRT1052.o
PXP_IRQHandler                                    libraries\MIMXRT1050\MIMXRT1052\gcc\startup_MIMXRT1052.o
PendSV_Handler                                    build\kernel\libcpu\arm\cortex-m7\context_gcc.o
RTWDOG_IRQHandler                                 libraries\MIMXRT1050\MIMXRT1052\gcc\startup_MIMXRT1052.o
Reserved115_IRQHandler                            libraries\MIMXRT1050\MIMXRT1052\gcc\startup_MIMXRT1052.o
Reserved123_IRQHandler                            libraries\MIMXRT1050\MIMXRT1052\gcc\startup_MIMXRT1052.o
Reserved143_IRQHandler                            libraries\MIMXRT1050\MIMXRT1052\gcc\startup_MIMXRT1052.o
Reserved144_IRQHandler                            libraries\MIMXRT1050\MIMXRT1052\gcc\startup_MIMXRT1052.o
Reserved68_IRQHandler                             libraries\MIMXRT1050\MIMXRT1052\gcc\startup_MIMXRT1052.o
Reserved78_IRQHandler                             libraries\MIMXRT1050\MIMXRT1052\gcc\startup_MIMXRT1052.o
Reserved86_IRQHandler                             libraries\MIMXRT1050\MIMXRT1052\gcc\startup_MIMXRT1052.o
Reserved87_IRQHandler                             libraries\MIMXRT1050\MIMXRT1052\gcc\startup_MIMXRT1052.o
Reset_Handler                                     libraries\MIMXRT1050\MIMXRT1052\gcc\startup_MIMXRT1052.o
SAI1_DriverIRQHandler                             libraries\MIMXRT1050\MIMXRT1052\gcc\startup_MIMXRT1052.o
SAI1_IRQHandler                                   libraries\MIMXRT1050\MIMXRT1052\gcc\startup_MIMXRT1052.o
SAI2_DriverIRQHandler                             libraries\MIMXRT1050\MIMXRT1052\gcc\startup_MIMXRT1052.o
SAI2_IRQHandler                                   libraries\MIMXRT1050\MIMXRT1052\gcc\startup_MIMXRT1052.o
SAI3_RX_DriverIRQHandler                          libraries\MIMXRT1050\MIMXRT1052\gcc\startup_MIMXRT1052.o
SAI3_RX_IRQHandler                                libraries\MIMXRT1050\MIMXRT1052\gcc\startup_MIMXRT1052.o
SAI3_TX_DriverIRQHandler                          libraries\MIMXRT1050\MIMXRT1052\gcc\startup_MIMXRT1052.o
SAI3_TX_IRQHandler                                libraries\MIMXRT1050\MIMXRT1052\gcc\startup_MIMXRT1052.o
SDK_Free                                          libraries\MIMXRT1050\MIMXRT1052\drivers\fsl_common.o
SDK_Malloc                                        libraries\MIMXRT1050\MIMXRT1052\drivers\fsl_common.o
SEMC_IRQHandler                                   libraries\MIMXRT1050\MIMXRT1052\gcc\startup_MIMXRT1052.o
SJC_IRQHandler                                    libraries\MIMXRT1050\MIMXRT1052\gcc\startup_MIMXRT1052.o
SNVS_HP_WRAPPER_IRQHandler                        libraries\MIMXRT1050\MIMXRT1052\gcc\startup_MIMXRT1052.o
SNVS_HP_WRAPPER_TZ_IRQHandler                     libraries\MIMXRT1050\MIMXRT1052\gcc\startup_MIMXRT1052.o
SNVS_LP_WRAPPER_IRQHandler                        libraries\MIMXRT1050\MIMXRT1052\gcc\startup_MIMXRT1052.o
SPDIF_DriverIRQHandler                            libraries\MIMXRT1050\MIMXRT1052\gcc\startup_MIMXRT1052.o
SPDIF_IRQHandler                                  libraries\MIMXRT1050\MIMXRT1052\gcc\startup_MIMXRT1052.o
SRC_IRQHandler                                    libraries\MIMXRT1050\MIMXRT1052\gcc\startup_MIMXRT1052.o
SVC_Handler                                       libraries\MIMXRT1050\MIMXRT1052\gcc\startup_MIMXRT1052.o
SysTick_Handler                                   build\board\board.o
SystemCoreClock                                   libraries\MIMXRT1050\MIMXRT1052\system_MIMXRT1052.o
                                                  build\board\MCUX_Config\clock_config.o
                                                  build\board\board.o
SystemCoreClockUpdate                             libraries\MIMXRT1050\MIMXRT1052\system_MIMXRT1052.o
SystemInit                                        libraries\MIMXRT1050\MIMXRT1052\system_MIMXRT1052.o
                                                  libraries\MIMXRT1050\MIMXRT1052\gcc\startup_MIMXRT1052.o
SystemInitHook                                    libraries\MIMXRT1050\MIMXRT1052\system_MIMXRT1052.o
TEMP_LOW_HIGH_IRQHandler                          libraries\MIMXRT1050\MIMXRT1052\gcc\startup_MIMXRT1052.o
TEMP_PANIC_IRQHandler                             libraries\MIMXRT1050\MIMXRT1052\gcc\startup_MIMXRT1052.o
TMR1_IRQHandler                                   libraries\MIMXRT1050\MIMXRT1052\gcc\startup_MIMXRT1052.o
TMR2_IRQHandler                                   libraries\MIMXRT1050\MIMXRT1052\gcc\startup_MIMXRT1052.o
TMR3_IRQHandler                                   libraries\MIMXRT1050\MIMXRT1052\gcc\startup_MIMXRT1052.o
TMR4_IRQHandler                                   libraries\MIMXRT1050\MIMXRT1052\gcc\startup_MIMXRT1052.o
TRNG_IRQHandler                                   libraries\MIMXRT1050\MIMXRT1052\gcc\startup_MIMXRT1052.o
TSC_DIG_IRQHandler                                libraries\MIMXRT1050\MIMXRT1052\gcc\startup_MIMXRT1052.o
USB_EhciLowPowerPhyInit                           libraries\drivers\usb\phy\usb_phy.o
USB_EhciPhyDeinit                                 libraries\drivers\usb\phy\usb_phy.o
USB_EhciPhyGetBase                                libraries\drivers\usb\phy\usb_phy.o
USB_EhciPhyInit                                   libraries\drivers\usb\phy\usb_phy.o
                                                  libraries\drivers\drv_usbh.o
USB_EhcihostPhyDisconnectDetectCmd                libraries\drivers\usb\phy\usb_phy.o
                                                  libraries\drivers\usb\host\usb_host_ehci.o
USB_HostAttachDevice                              libraries\drivers\usb\host\usb_host_devices.o
                                                  libraries\drivers\usb\host\usb_host_ehci.o
USB_HostCancelTransfer                            libraries\drivers\usb\host\usb_host_hci.o
                                                  libraries\drivers\usb\host\usb_host_devices.o
USB_HostCh9RequestCommon                          libraries\drivers\usb\host\usb_host_framework.o
                                                  libraries\drivers\usb\host\usb_host_devices.o
USB_HostCloseDeviceInterface                      libraries\drivers\usb\host\usb_host_devices.o
                                                  libraries\drivers\drv_usbh.o
USB_HostClosePipe                                 libraries\drivers\usb\host\usb_host_hci.o
                                                  libraries\drivers\usb\host\usb_host_devices.o
                                                  libraries\drivers\drv_usbh.o
USB_HostDeinit                                    libraries\drivers\usb\host\usb_host_hci.o
USB_HostDetachDevice                              libraries\drivers\usb\host\usb_host_devices.o
                                                  libraries\drivers\usb\host\usb_host_ehci.o
USB_HostDetachDeviceInternal                      libraries\drivers\usb\host\usb_host_devices.o
                                                  libraries\drivers\usb\host\usb_host_hci.o
USB_HostEhciClosePipe                             libraries\drivers\usb\host\usb_host_ehci.o
                                                  libraries\drivers\usb\host\usb_host_hci.o
USB_HostEhciControlBus                            libraries\drivers\usb\host\usb_host_ehci.o
USB_HostEhciCreate                                libraries\drivers\usb\host\usb_host_ehci.o
                                                  libraries\drivers\usb\host\usb_host_hci.o
USB_HostEhciDestory                               libraries\drivers\usb\host\usb_host_ehci.o
                                                  libraries\drivers\usb\host\usb_host_hci.o
USB_HostEhciIoctl                                 libraries\drivers\usb\host\usb_host_ehci.o
                                                  libraries\drivers\usb\host\usb_host_hci.o
USB_HostEhciIsrFunction                           libraries\drivers\usb\host\usb_host_ehci.o
                                                  libraries\drivers\drv_usbh.o
USB_HostEhciOpenPipe                              libraries\drivers\usb\host\usb_host_ehci.o
                                                  libraries\drivers\usb\host\usb_host_hci.o
USB_HostEhciPortChange                            libraries\drivers\usb\host\usb_host_ehci.o
USB_HostEhciReadpipe                              libraries\drivers\usb\host\usb_host_ehci.o
                                                  libraries\drivers\usb\host\usb_host_hci.o
USB_HostEhciStartAsync                            libraries\drivers\usb\host\usb_host_ehci.o
USB_HostEhciStartPeriodic                         libraries\drivers\usb\host\usb_host_ehci.o
USB_HostEhciTaskFunction                          libraries\drivers\usb\host\usb_host_ehci.o
                                                  libraries\drivers\drv_usbh.o
USB_HostEhciTimer0                                libraries\drivers\usb\host\usb_host_ehci.o
USB_HostEhciTransactionDone                       libraries\drivers\usb\host\usb_host_ehci.o
USB_HostEhciWritePipe                             libraries\drivers\usb\host\usb_host_ehci.o
                                                  libraries\drivers\usb\host\usb_host_hci.o
                                                  libraries\drivers\drv_usbh.o
USB_HostFreeTransfer                              libraries\drivers\usb\host\usb_host_hci.o
                                                  libraries\drivers\usb\host\usb_host_framework.o
                                                  libraries\drivers\usb\host\usb_host_devices.o
                                                  libraries\drivers\drv_usbh.o
USB_HostGetDeviceAttachState                      libraries\drivers\usb\host\usb_host_devices.o
USB_HostGetVersion                                libraries\drivers\usb\host\usb_host_hci.o
USB_HostHelperGetPeripheralInformation            libraries\drivers\usb\host\usb_host_hci.o
                                                  libraries\drivers\usb\host\usb_host_ehci.o
USB_HostHelperParseAlternateSetting               libraries\drivers\usb\host\usb_host_hci.o
USB_HostInit                                      libraries\drivers\usb\host\usb_host_hci.o
                                                  libraries\drivers\drv_usbh.o
USB_HostIsrEnable                                 libraries\drivers\drv_usbh.o
USB_HostMallocTransfer                            libraries\drivers\usb\host\usb_host_hci.o
                                                  libraries\drivers\usb\host\usb_host_devices.o
                                                  libraries\drivers\drv_usbh.o
USB_HostOpenDeviceInterface                       libraries\drivers\usb\host\usb_host_devices.o
USB_HostOpenPipe                                  libraries\drivers\usb\host\usb_host_hci.o
                                                  libraries\drivers\usb\host\usb_host_devices.o
                                                  libraries\drivers\drv_usbh.o
USB_HostRecv                                      libraries\drivers\usb\host\usb_host_hci.o
USB_HostRemoveDevice                              libraries\drivers\usb\host\usb_host_devices.o
USB_HostRequestControl                            libraries\drivers\usb\host\usb_host_framework.o
USB_HostSend                                      libraries\drivers\usb\host\usb_host_hci.o
USB_HostSendSetup                                 libraries\drivers\usb\host\usb_host_hci.o
                                                  libraries\drivers\usb\host\usb_host_framework.o
USB_HostStandardGetInterface                      libraries\drivers\usb\host\usb_host_framework.o
USB_HostStandardGetStatus                         libraries\drivers\usb\host\usb_host_framework.o
USB_HostStandardSetAddress                        libraries\drivers\usb\host\usb_host_framework.o
                                                  libraries\drivers\usb\host\usb_host_devices.o
USB_HostStandardSetClearFeature                   libraries\drivers\usb\host\usb_host_framework.o
USB_HostStandardSetGetDescriptor                  libraries\drivers\usb\host\usb_host_framework.o
                                                  libraries\drivers\usb\host\usb_host_devices.o
USB_HostStandardSetInterface                      libraries\drivers\usb\host\usb_host_framework.o
USB_HostStandardSyncFrame                         libraries\drivers\usb\host\usb_host_framework.o
USB_HostValidateDevice                            libraries\drivers\usb\host\usb_host_devices.o
USB_OTG1_IRQHandler                               libraries\drivers\drv_usbh.o
                                                  libraries\MIMXRT1050\MIMXRT1052\gcc\startup_MIMXRT1052.o
USB_OTG2_IRQHandler                               libraries\drivers\drv_usbh.o
                                                  libraries\MIMXRT1050\MIMXRT1052\gcc\startup_MIMXRT1052.o
USB_PHY1_IRQHandler                               libraries\MIMXRT1050\MIMXRT1052\gcc\startup_MIMXRT1052.o
USB_PHY2_IRQHandler                               libraries\MIMXRT1050\MIMXRT1052\gcc\startup_MIMXRT1052.o
USDHC1_DriverIRQHandler                           libraries\MIMXRT1050\MIMXRT1052\drivers\fsl_usdhc.o
                                                  libraries\MIMXRT1050\MIMXRT1052\gcc\startup_MIMXRT1052.o
USDHC1_IRQHandler                                 libraries\MIMXRT1050\MIMXRT1052\gcc\startup_MIMXRT1052.o
USDHC2_DriverIRQHandler                           libraries\MIMXRT1050\MIMXRT1052\drivers\fsl_usdhc.o
                                                  libraries\MIMXRT1050\MIMXRT1052\gcc\startup_MIMXRT1052.o
USDHC2_IRQHandler                                 libraries\MIMXRT1050\MIMXRT1052\gcc\startup_MIMXRT1052.o
USDHC_AdjustDelayForManualTuning                  libraries\MIMXRT1050\MIMXRT1052\drivers\fsl_usdhc.o
USDHC_Deinit                                      libraries\MIMXRT1050\MIMXRT1052\drivers\fsl_usdhc.o
USDHC_EnableAutoTuningForCmdAndData               libraries\MIMXRT1050\MIMXRT1052\drivers\fsl_usdhc.o
USDHC_EnableDDRMode                               libraries\MIMXRT1050\MIMXRT1052\drivers\fsl_usdhc.o
USDHC_EnableManualTuning                          libraries\MIMXRT1050\MIMXRT1052\drivers\fsl_usdhc.o
USDHC_EnableStandardTuning                        libraries\MIMXRT1050\MIMXRT1052\drivers\fsl_usdhc.o
USDHC_GetCapability                               libraries\MIMXRT1050\MIMXRT1052\drivers\fsl_usdhc.o
USDHC_Init                                        libraries\MIMXRT1050\MIMXRT1052\drivers\fsl_usdhc.o
                                                  libraries\drivers\drv_sdio.o
USDHC_Reset                                       libraries\MIMXRT1050\MIMXRT1052\drivers\fsl_usdhc.o
                                                  libraries\drivers\drv_sdio.o
USDHC_SendCommand                                 libraries\MIMXRT1050\MIMXRT1052\drivers\fsl_usdhc.o
USDHC_SetADMA1Descriptor                          libraries\MIMXRT1050\MIMXRT1052\drivers\fsl_usdhc.o
USDHC_SetADMA2Descriptor                          libraries\MIMXRT1050\MIMXRT1052\drivers\fsl_usdhc.o
USDHC_SetAdmaTableConfig                          libraries\MIMXRT1050\MIMXRT1052\drivers\fsl_usdhc.o
USDHC_SetCardActive                               libraries\MIMXRT1050\MIMXRT1052\drivers\fsl_usdhc.o
USDHC_SetInternalDmaConfig                        libraries\MIMXRT1050\MIMXRT1052\drivers\fsl_usdhc.o
USDHC_SetMmcBootConfig                            libraries\MIMXRT1050\MIMXRT1052\drivers\fsl_usdhc.o
USDHC_SetSdClock                                  libraries\MIMXRT1050\MIMXRT1052\drivers\fsl_usdhc.o
                                                  libraries\drivers\drv_sdio.o
USDHC_TransferBlocking                            libraries\MIMXRT1050\MIMXRT1052\drivers\fsl_usdhc.o
                                                  libraries\drivers\drv_sdio.o
USDHC_TransferCreateHandle                        libraries\MIMXRT1050\MIMXRT1052\drivers\fsl_usdhc.o
USDHC_TransferHandleIRQ                           libraries\MIMXRT1050\MIMXRT1052\drivers\fsl_usdhc.o
USDHC_TransferNonBlocking                         libraries\MIMXRT1050\MIMXRT1052\drivers\fsl_usdhc.o
UsageFault_Handler                                libraries\MIMXRT1050\MIMXRT1052\gcc\startup_MIMXRT1052.o
WDOG1_IRQHandler                                  libraries\MIMXRT1050\MIMXRT1052\gcc\startup_MIMXRT1052.o
WDOG2_IRQHandler                                  libraries\MIMXRT1050\MIMXRT1052\gcc\startup_MIMXRT1052.o
XBAR1_IRQ_0_1_IRQHandler                          libraries\MIMXRT1050\MIMXRT1052\gcc\startup_MIMXRT1052.o
XBAR1_IRQ_2_3_IRQHandler                          libraries\MIMXRT1050\MIMXRT1052\gcc\startup_MIMXRT1052.o
XBARA_ClearStatusFlags                            libraries\MIMXRT1050\MIMXRT1052\drivers\fsl_xbara.o
XBARA_Deinit                                      libraries\MIMXRT1050\MIMXRT1052\drivers\fsl_xbara.o
XBARA_GetStatusFlags                              libraries\MIMXRT1050\MIMXRT1052\drivers\fsl_xbara.o
XBARA_Init                                        libraries\MIMXRT1050\MIMXRT1052\drivers\fsl_xbara.o
XBARA_SetOutputSignalConfig                       libraries\MIMXRT1050\MIMXRT1052\drivers\fsl_xbara.o
XBARA_SetSignalsConnection                        libraries\MIMXRT1050\MIMXRT1052\drivers\fsl_xbara.o
                                                  build\board\MCUX_Config\pin_mux.o
XBARB_Deinit                                      libraries\MIMXRT1050\MIMXRT1052\drivers\fsl_xbarb.o
XBARB_Init                                        libraries\MIMXRT1050\MIMXRT1052\drivers\fsl_xbarb.o
XBARB_SetSignalsConnection                        libraries\MIMXRT1050\MIMXRT1052\drivers\fsl_xbarb.o
_Balloc                                           c:/rtthread/env/tools/gnu_gcc/arm_gcc/mingw/bin/../lib/gcc/arm-none-eabi/5.4.1/../../../../arm-none-eabi/lib/armv7e-m/fpu\libc.a(lib_a-mprec.o)
                                                  c:/rtthread/env/tools/gnu_gcc/arm_gcc/mingw/bin/../lib/gcc/arm-none-eabi/5.4.1/../../../../arm-none-eabi/lib/armv7e-m/fpu\libc.a(lib_a-dtoa.o)
_Bfree                                            c:/rtthread/env/tools/gnu_gcc/arm_gcc/mingw/bin/../lib/gcc/arm-none-eabi/5.4.1/../../../../arm-none-eabi/lib/armv7e-m/fpu\libc.a(lib_a-mprec.o)
                                                  c:/rtthread/env/tools/gnu_gcc/arm_gcc/mingw/bin/../lib/gcc/arm-none-eabi/5.4.1/../../../../arm-none-eabi/lib/armv7e-m/fpu\libc.a(lib_a-dtoa.o)
_PathLocale                                       c:/rtthread/env/tools/gnu_gcc/arm_gcc/mingw/bin/../lib/gcc/arm-none-eabi/5.4.1/../../../../arm-none-eabi/lib/armv7e-m/fpu\libc.a(lib_a-locale.o)
__FLASH_BASE                                      build\xip\fsl_flexspi_nor_boot.o
__StackTop                                        libraries\MIMXRT1050\MIMXRT1052\gcc\startup_MIMXRT1052.o
__VECTOR_TABLE                                    build\xip\fsl_flexspi_nor_boot.o
__adddf3                                          c:/rtthread/env/tools/gnu_gcc/arm_gcc/mingw/bin/../lib/gcc/arm-none-eabi/5.4.1/armv7e-m/fpu\libgcc.a(_arm_addsubdf3.o)
__aeabi_cdcmpeq                                   c:/rtthread/env/tools/gnu_gcc/arm_gcc/mingw/bin/../lib/gcc/arm-none-eabi/5.4.1/armv7e-m/fpu\libgcc.a(_arm_cmpdf2.o)
__aeabi_cdcmple                                   c:/rtthread/env/tools/gnu_gcc/arm_gcc/mingw/bin/../lib/gcc/arm-none-eabi/5.4.1/armv7e-m/fpu\libgcc.a(_arm_cmpdf2.o)
__aeabi_cdrcmple                                  c:/rtthread/env/tools/gnu_gcc/arm_gcc/mingw/bin/../lib/gcc/arm-none-eabi/5.4.1/armv7e-m/fpu\libgcc.a(_arm_cmpdf2.o)
__aeabi_d2iz                                      c:/rtthread/env/tools/gnu_gcc/arm_gcc/mingw/bin/../lib/gcc/arm-none-eabi/5.4.1/armv7e-m/fpu\libgcc.a(_arm_fixdfsi.o)
                                                  c:/rtthread/env/tools/gnu_gcc/arm_gcc/mingw/bin/../lib/gcc/arm-none-eabi/5.4.1/../../../../arm-none-eabi/lib/armv7e-m/fpu\libc.a(lib_a-dtoa.o)
__aeabi_dadd                                      c:/rtthread/env/tools/gnu_gcc/arm_gcc/mingw/bin/../lib/gcc/arm-none-eabi/5.4.1/armv7e-m/fpu\libgcc.a(_arm_addsubdf3.o)
                                                  c:/rtthread/env/tools/gnu_gcc/arm_gcc/mingw/bin/../lib/gcc/arm-none-eabi/5.4.1/../../../../arm-none-eabi/lib/armv7e-m/fpu\libc.a(lib_a-dtoa.o)
__aeabi_dcmpeq                                    c:/rtthread/env/tools/gnu_gcc/arm_gcc/mingw/bin/../lib/gcc/arm-none-eabi/5.4.1/armv7e-m/fpu\libgcc.a(_arm_cmpdf2.o)
                                                  c:/rtthread/env/tools/gnu_gcc/arm_gcc/mingw/bin/../lib/gcc/arm-none-eabi/5.4.1/../../../../arm-none-eabi/lib/armv7e-m/fpu\libc.a(lib_a-dtoa.o)
                                                  c:/rtthread/env/tools/gnu_gcc/arm_gcc/mingw/bin/../lib/gcc/arm-none-eabi/5.4.1/../../../../arm-none-eabi/lib/armv7e-m/fpu\libc.a(lib_a-svfprintf.o)
__aeabi_dcmpge                                    c:/rtthread/env/tools/gnu_gcc/arm_gcc/mingw/bin/../lib/gcc/arm-none-eabi/5.4.1/armv7e-m/fpu\libgcc.a(_arm_cmpdf2.o)
                                                  c:/rtthread/env/tools/gnu_gcc/arm_gcc/mingw/bin/../lib/gcc/arm-none-eabi/5.4.1/../../../../arm-none-eabi/lib/armv7e-m/fpu\libc.a(lib_a-dtoa.o)
__aeabi_dcmpgt                                    c:/rtthread/env/tools/gnu_gcc/arm_gcc/mingw/bin/../lib/gcc/arm-none-eabi/5.4.1/armv7e-m/fpu\libgcc.a(_arm_cmpdf2.o)
                                                  c:/rtthread/env/tools/gnu_gcc/arm_gcc/mingw/bin/../lib/gcc/arm-none-eabi/5.4.1/../../../../arm-none-eabi/lib/armv7e-m/fpu\libc.a(lib_a-dtoa.o)
__aeabi_dcmple                                    c:/rtthread/env/tools/gnu_gcc/arm_gcc/mingw/bin/../lib/gcc/arm-none-eabi/5.4.1/armv7e-m/fpu\libgcc.a(_arm_cmpdf2.o)
                                                  c:/rtthread/env/tools/gnu_gcc/arm_gcc/mingw/bin/../lib/gcc/arm-none-eabi/5.4.1/../../../../arm-none-eabi/lib/armv7e-m/fpu\libc.a(lib_a-svfprintf.o)
__aeabi_dcmplt                                    c:/rtthread/env/tools/gnu_gcc/arm_gcc/mingw/bin/../lib/gcc/arm-none-eabi/5.4.1/armv7e-m/fpu\libgcc.a(_arm_cmpdf2.o)
                                                  c:/rtthread/env/tools/gnu_gcc/arm_gcc/mingw/bin/../lib/gcc/arm-none-eabi/5.4.1/../../../../arm-none-eabi/lib/armv7e-m/fpu\libc.a(lib_a-dtoa.o)
                                                  c:/rtthread/env/tools/gnu_gcc/arm_gcc/mingw/bin/../lib/gcc/arm-none-eabi/5.4.1/../../../../arm-none-eabi/lib/armv7e-m/fpu\libc.a(lib_a-svfprintf.o)
__aeabi_dcmpun                                    c:/rtthread/env/tools/gnu_gcc/arm_gcc/mingw/bin/../lib/gcc/arm-none-eabi/5.4.1/armv7e-m/fpu\libgcc.a(_arm_unorddf2.o)
                                                  c:/rtthread/env/tools/gnu_gcc/arm_gcc/mingw/bin/../lib/gcc/arm-none-eabi/5.4.1/../../../../arm-none-eabi/lib/armv7e-m/fpu\libc.a(lib_a-svfprintf.o)
__aeabi_ddiv                                      c:/rtthread/env/tools/gnu_gcc/arm_gcc/mingw/bin/../lib/gcc/arm-none-eabi/5.4.1/armv7e-m/fpu\libgcc.a(_arm_muldivdf3.o)
                                                  c:/rtthread/env/tools/gnu_gcc/arm_gcc/mingw/bin/../lib/gcc/arm-none-eabi/5.4.1/../../../../arm-none-eabi/lib/armv7e-m/fpu\libc.a(lib_a-mprec.o)
                                                  c:/rtthread/env/tools/gnu_gcc/arm_gcc/mingw/bin/../lib/gcc/arm-none-eabi/5.4.1/../../../../arm-none-eabi/lib/armv7e-m/fpu\libc.a(lib_a-dtoa.o)
__aeabi_dmul                                      c:/rtthread/env/tools/gnu_gcc/arm_gcc/mingw/bin/../lib/gcc/arm-none-eabi/5.4.1/armv7e-m/fpu\libgcc.a(_arm_muldivdf3.o)
                                                  c:/rtthread/env/tools/gnu_gcc/arm_gcc/mingw/bin/../lib/gcc/arm-none-eabi/5.4.1/../../../../arm-none-eabi/lib/armv7e-m/fpu\libc.a(lib_a-mprec.o)
                                                  c:/rtthread/env/tools/gnu_gcc/arm_gcc/mingw/bin/../lib/gcc/arm-none-eabi/5.4.1/../../../../arm-none-eabi/lib/armv7e-m/fpu\libc.a(lib_a-dtoa.o)
__aeabi_drsub                                     c:/rtthread/env/tools/gnu_gcc/arm_gcc/mingw/bin/../lib/gcc/arm-none-eabi/5.4.1/armv7e-m/fpu\libgcc.a(_arm_addsubdf3.o)
__aeabi_dsub                                      c:/rtthread/env/tools/gnu_gcc/arm_gcc/mingw/bin/../lib/gcc/arm-none-eabi/5.4.1/armv7e-m/fpu\libgcc.a(_arm_addsubdf3.o)
                                                  c:/rtthread/env/tools/gnu_gcc/arm_gcc/mingw/bin/../lib/gcc/arm-none-eabi/5.4.1/../../../../arm-none-eabi/lib/armv7e-m/fpu\libc.a(lib_a-dtoa.o)
__aeabi_f2d                                       c:/rtthread/env/tools/gnu_gcc/arm_gcc/mingw/bin/../lib/gcc/arm-none-eabi/5.4.1/armv7e-m/fpu\libgcc.a(_arm_addsubdf3.o)
__aeabi_i2d                                       c:/rtthread/env/tools/gnu_gcc/arm_gcc/mingw/bin/../lib/gcc/arm-none-eabi/5.4.1/armv7e-m/fpu\libgcc.a(_arm_addsubdf3.o)
                                                  c:/rtthread/env/tools/gnu_gcc/arm_gcc/mingw/bin/../lib/gcc/arm-none-eabi/5.4.1/../../../../arm-none-eabi/lib/armv7e-m/fpu\libc.a(lib_a-dtoa.o)
__aeabi_idiv0                                     c:/rtthread/env/tools/gnu_gcc/arm_gcc/mingw/bin/../lib/gcc/arm-none-eabi/5.4.1/armv7e-m/fpu\libgcc.a(_dvmd_tls.o)
__aeabi_l2d                                       c:/rtthread/env/tools/gnu_gcc/arm_gcc/mingw/bin/../lib/gcc/arm-none-eabi/5.4.1/armv7e-m/fpu\libgcc.a(_arm_addsubdf3.o)
__aeabi_ldiv0                                     c:/rtthread/env/tools/gnu_gcc/arm_gcc/mingw/bin/../lib/gcc/arm-none-eabi/5.4.1/armv7e-m/fpu\libgcc.a(_dvmd_tls.o)
                                                  c:/rtthread/env/tools/gnu_gcc/arm_gcc/mingw/bin/../lib/gcc/arm-none-eabi/5.4.1/armv7e-m/fpu\libgcc.a(_aeabi_uldivmod.o)
__aeabi_ui2d                                      c:/rtthread/env/tools/gnu_gcc/arm_gcc/mingw/bin/../lib/gcc/arm-none-eabi/5.4.1/armv7e-m/fpu\libgcc.a(_arm_addsubdf3.o)
                                                  c:/rtthread/env/tools/gnu_gcc/arm_gcc/mingw/bin/../lib/gcc/arm-none-eabi/5.4.1/../../../../arm-none-eabi/lib/armv7e-m/fpu\libc.a(lib_a-dtoa.o)
__aeabi_ul2d                                      c:/rtthread/env/tools/gnu_gcc/arm_gcc/mingw/bin/../lib/gcc/arm-none-eabi/5.4.1/armv7e-m/fpu\libgcc.a(_arm_addsubdf3.o)
__aeabi_uldivmod                                  c:/rtthread/env/tools/gnu_gcc/arm_gcc/mingw/bin/../lib/gcc/arm-none-eabi/5.4.1/armv7e-m/fpu\libgcc.a(_aeabi_uldivmod.o)
                                                  c:/rtthread/env/tools/gnu_gcc/arm_gcc/mingw/bin/../lib/gcc/arm-none-eabi/5.4.1/../../../../arm-none-eabi/lib/armv7e-m/fpu\libc.a(lib_a-svfiprintf.o)
                                                  c:/rtthread/env/tools/gnu_gcc/arm_gcc/mingw/bin/../lib/gcc/arm-none-eabi/5.4.1/../../../../arm-none-eabi/lib/armv7e-m/fpu\libc.a(lib_a-vfiprintf.o)
                                                  c:/rtthread/env/tools/gnu_gcc/arm_gcc/mingw/bin/../lib/gcc/arm-none-eabi/5.4.1/../../../../arm-none-eabi/lib/armv7e-m/fpu\libc.a(lib_a-svfprintf.o)
                                                  libraries\MIMXRT1050\MIMXRT1052\drivers\fsl_clock.o
                                                  libraries\MIMXRT1050\MIMXRT1052\system_MIMXRT1052.o
__any_on                                          c:/rtthread/env/tools/gnu_gcc/arm_gcc/mingw/bin/../lib/gcc/arm-none-eabi/5.4.1/../../../../arm-none-eabi/lib/armv7e-m/fpu\libc.a(lib_a-mprec.o)
__ascii_mbtowc                                    c:/rtthread/env/tools/gnu_gcc/arm_gcc/mingw/bin/../lib/gcc/arm-none-eabi/5.4.1/../../../../arm-none-eabi/lib/armv7e-m/fpu\libc.a(lib_a-mbtowc_r.o)
                                                  c:/rtthread/env/tools/gnu_gcc/arm_gcc/mingw/bin/../lib/gcc/arm-none-eabi/5.4.1/../../../../arm-none-eabi/lib/armv7e-m/fpu\libc.a(lib_a-locale.o)
__ascii_wctomb                                    c:/rtthread/env/tools/gnu_gcc/arm_gcc/mingw/bin/../lib/gcc/arm-none-eabi/5.4.1/../../../../arm-none-eabi/lib/armv7e-m/fpu\libc.a(lib_a-wctomb_r.o)
                                                  c:/rtthread/env/tools/gnu_gcc/arm_gcc/mingw/bin/../lib/gcc/arm-none-eabi/5.4.1/../../../../arm-none-eabi/lib/armv7e-m/fpu\libc.a(lib_a-locale.o)
__assert                                          c:/rtthread/env/tools/gnu_gcc/arm_gcc/mingw/bin/../lib/gcc/arm-none-eabi/5.4.1/../../../../arm-none-eabi/lib/armv7e-m/fpu\libc.a(lib_a-assert.o)
__assert_func                                     c:/rtthread/env/tools/gnu_gcc/arm_gcc/mingw/bin/../lib/gcc/arm-none-eabi/5.4.1/../../../../arm-none-eabi/lib/armv7e-m/fpu\libc.a(lib_a-assert.o)
                                                  libraries\drivers\drv_sdio.o
                                                  libraries\drivers\drv_gpio.o
                                                  libraries\MIMXRT1050\MIMXRT1052\drivers\fsl_os_abstraction_rtthread.o
                                                  libraries\MIMXRT1050\MIMXRT1052\drivers\fsl_xbarb.o
                                                  libraries\MIMXRT1050\MIMXRT1052\drivers\fsl_xbara.o
                                                  libraries\MIMXRT1050\MIMXRT1052\drivers\fsl_enc.o
                                                  libraries\MIMXRT1050\MIMXRT1052\drivers\fsl_usdhc.o
                                                  libraries\MIMXRT1050\MIMXRT1052\drivers\fsl_lpuart.o
                                                  libraries\MIMXRT1050\MIMXRT1052\drivers\fsl_gpio.o
                                                  libraries\MIMXRT1050\MIMXRT1052\drivers\fsl_clock.o
                                                  build\board\MCUX_Config\pin_mux.o
                                                  build\board\MCUX_Config\clock_config.o
__b2d                                             c:/rtthread/env/tools/gnu_gcc/arm_gcc/mingw/bin/../lib/gcc/arm-none-eabi/5.4.1/../../../../arm-none-eabi/lib/armv7e-m/fpu\libc.a(lib_a-mprec.o)
__bss_end__                                       libraries\MIMXRT1050\MIMXRT1052\gcc\startup_MIMXRT1052.o
__bss_start__                                     libraries\MIMXRT1050\MIMXRT1052\gcc\startup_MIMXRT1052.o
__cmpdf2                                          c:/rtthread/env/tools/gnu_gcc/arm_gcc/mingw/bin/../lib/gcc/arm-none-eabi/5.4.1/armv7e-m/fpu\libgcc.a(_arm_cmpdf2.o)
__copybits                                        c:/rtthread/env/tools/gnu_gcc/arm_gcc/mingw/bin/../lib/gcc/arm-none-eabi/5.4.1/../../../../arm-none-eabi/lib/armv7e-m/fpu\libc.a(lib_a-mprec.o)
__d2b                                             c:/rtthread/env/tools/gnu_gcc/arm_gcc/mingw/bin/../lib/gcc/arm-none-eabi/5.4.1/../../../../arm-none-eabi/lib/armv7e-m/fpu\libc.a(lib_a-mprec.o)
                                                  c:/rtthread/env/tools/gnu_gcc/arm_gcc/mingw/bin/../lib/gcc/arm-none-eabi/5.4.1/../../../../arm-none-eabi/lib/armv7e-m/fpu\libc.a(lib_a-dtoa.o)
__data_end__                                      libraries\MIMXRT1050\MIMXRT1052\gcc\startup_MIMXRT1052.o
__data_start__                                    libraries\MIMXRT1050\MIMXRT1052\gcc\startup_MIMXRT1052.o
__div0                                            build\kernel\libcpu\arm\common\div0.o
__divdf3                                          c:/rtthread/env/tools/gnu_gcc/arm_gcc/mingw/bin/../lib/gcc/arm-none-eabi/5.4.1/armv7e-m/fpu\libgcc.a(_arm_muldivdf3.o)
__env_lock                                        c:/rtthread/env/tools/gnu_gcc/arm_gcc/mingw/bin/../lib/gcc/arm-none-eabi/5.4.1/../../../../arm-none-eabi/lib/armv7e-m/fpu\libc.a(lib_a-envlock.o)
                                                  c:/rtthread/env/tools/gnu_gcc/arm_gcc/mingw/bin/../lib/gcc/arm-none-eabi/5.4.1/../../../../arm-none-eabi/lib/armv7e-m/fpu\libc.a(lib_a-getenv_r.o)
                                                  c:/rtthread/env/tools/gnu_gcc/arm_gcc/mingw/bin/../lib/gcc/arm-none-eabi/5.4.1/../../../../arm-none-eabi/lib/armv7e-m/fpu\libc.a(lib_a-setenv_r.o)
__env_unlock                                      c:/rtthread/env/tools/gnu_gcc/arm_gcc/mingw/bin/../lib/gcc/arm-none-eabi/5.4.1/../../../../arm-none-eabi/lib/armv7e-m/fpu\libc.a(lib_a-envlock.o)
                                                  c:/rtthread/env/tools/gnu_gcc/arm_gcc/mingw/bin/../lib/gcc/arm-none-eabi/5.4.1/../../../../arm-none-eabi/lib/armv7e-m/fpu\libc.a(lib_a-getenv_r.o)
                                                  c:/rtthread/env/tools/gnu_gcc/arm_gcc/mingw/bin/../lib/gcc/arm-none-eabi/5.4.1/../../../../arm-none-eabi/lib/armv7e-m/fpu\libc.a(lib_a-setenv_r.o)
__eqdf2                                           c:/rtthread/env/tools/gnu_gcc/arm_gcc/mingw/bin/../lib/gcc/arm-none-eabi/5.4.1/armv7e-m/fpu\libgcc.a(_arm_cmpdf2.o)
__errno                                           build\kernel\components\libc\compilers\newlib\syscalls.o
                                                  c:/rtthread/env/tools/gnu_gcc/arm_gcc/mingw/bin/../lib/gcc/arm-none-eabi/5.4.1/../../../../arm-none-eabi/lib/armv7e-m/fpu\libc.a(lib_a-setenv_r.o)
__etext                                           libraries\MIMXRT1050\MIMXRT1052\gcc\startup_MIMXRT1052.o
__extendsfdf2                                     c:/rtthread/env/tools/gnu_gcc/arm_gcc/mingw/bin/../lib/gcc/arm-none-eabi/5.4.1/armv7e-m/fpu\libgcc.a(_arm_addsubdf3.o)
__fixdfsi                                         c:/rtthread/env/tools/gnu_gcc/arm_gcc/mingw/bin/../lib/gcc/arm-none-eabi/5.4.1/armv7e-m/fpu\libgcc.a(_arm_fixdfsi.o)
__floatdidf                                       c:/rtthread/env/tools/gnu_gcc/arm_gcc/mingw/bin/../lib/gcc/arm-none-eabi/5.4.1/armv7e-m/fpu\libgcc.a(_arm_addsubdf3.o)
__floatsidf                                       c:/rtthread/env/tools/gnu_gcc/arm_gcc/mingw/bin/../lib/gcc/arm-none-eabi/5.4.1/armv7e-m/fpu\libgcc.a(_arm_addsubdf3.o)
__floatundidf                                     c:/rtthread/env/tools/gnu_gcc/arm_gcc/mingw/bin/../lib/gcc/arm-none-eabi/5.4.1/armv7e-m/fpu\libgcc.a(_arm_addsubdf3.o)
__floatunsidf                                     c:/rtthread/env/tools/gnu_gcc/arm_gcc/mingw/bin/../lib/gcc/arm-none-eabi/5.4.1/armv7e-m/fpu\libgcc.a(_arm_addsubdf3.o)
__fp_lock_all                                     c:/rtthread/env/tools/gnu_gcc/arm_gcc/mingw/bin/../lib/gcc/arm-none-eabi/5.4.1/../../../../arm-none-eabi/lib/armv7e-m/fpu\libc.a(lib_a-findfp.o)
__fp_unlock_all                                   c:/rtthread/env/tools/gnu_gcc/arm_gcc/mingw/bin/../lib/gcc/arm-none-eabi/5.4.1/../../../../arm-none-eabi/lib/armv7e-m/fpu\libc.a(lib_a-findfp.o)
__fputwc                                          c:/rtthread/env/tools/gnu_gcc/arm_gcc/mingw/bin/../lib/gcc/arm-none-eabi/5.4.1/../../../../arm-none-eabi/lib/armv7e-m/fpu\libc.a(lib_a-fputwc.o)
__fsym___cmd_cat                                  build\kernel\components\finsh\msh_file.o
__fsym___cmd_cat_desc                             build\kernel\components\finsh\msh_file.o
__fsym___cmd_cat_name                             build\kernel\components\finsh\msh_file.o
__fsym___cmd_cd                                   build\kernel\components\finsh\msh_file.o
__fsym___cmd_cd_desc                              build\kernel\components\finsh\msh_file.o
__fsym___cmd_cd_name                              build\kernel\components\finsh\msh_file.o
__fsym___cmd_clear                                build\kernel\components\finsh\cmd.o
__fsym___cmd_clear_desc                           build\kernel\components\finsh\cmd.o
__fsym___cmd_clear_name                           build\kernel\components\finsh\cmd.o
__fsym___cmd_cp                                   build\kernel\components\finsh\msh_file.o
__fsym___cmd_cp_desc                              build\kernel\components\finsh\msh_file.o
__fsym___cmd_cp_name                              build\kernel\components\finsh\msh_file.o
__fsym___cmd_df                                   build\kernel\components\finsh\msh_file.o
__fsym___cmd_df_desc                              build\kernel\components\finsh\msh_file.o
__fsym___cmd_df_name                              build\kernel\components\finsh\msh_file.o
__fsym___cmd_echo                                 build\kernel\components\finsh\msh_file.o
__fsym___cmd_echo_desc                            build\kernel\components\finsh\msh_file.o
__fsym___cmd_echo_name                            build\kernel\components\finsh\msh_file.o
__fsym___cmd_free                                 build\kernel\components\finsh\msh.o
__fsym___cmd_free_desc                            build\kernel\components\finsh\msh.o
__fsym___cmd_free_name                            build\kernel\components\finsh\msh.o
__fsym___cmd_help                                 build\kernel\components\finsh\msh.o
__fsym___cmd_help_desc                            build\kernel\components\finsh\msh.o
__fsym___cmd_help_name                            build\kernel\components\finsh\msh.o
__fsym___cmd_list_device                          build\kernel\components\finsh\cmd.o
__fsym___cmd_list_device_desc                     build\kernel\components\finsh\cmd.o
__fsym___cmd_list_device_name                     build\kernel\components\finsh\cmd.o
__fsym___cmd_list_event                           build\kernel\components\finsh\cmd.o
__fsym___cmd_list_event_desc                      build\kernel\components\finsh\cmd.o
__fsym___cmd_list_event_name                      build\kernel\components\finsh\cmd.o
__fsym___cmd_list_fd                              build\kernel\components\dfs\src\dfs.o
__fsym___cmd_list_fd_desc                         build\kernel\components\dfs\src\dfs.o
__fsym___cmd_list_fd_name                         build\kernel\components\dfs\src\dfs.o
__fsym___cmd_list_mailbox                         build\kernel\components\finsh\cmd.o
__fsym___cmd_list_mailbox_desc                    build\kernel\components\finsh\cmd.o
__fsym___cmd_list_mailbox_name                    build\kernel\components\finsh\cmd.o
__fsym___cmd_list_memheap                         build\kernel\components\finsh\cmd.o
__fsym___cmd_list_memheap_desc                    build\kernel\components\finsh\cmd.o
__fsym___cmd_list_memheap_name                    build\kernel\components\finsh\cmd.o
__fsym___cmd_list_mempool                         build\kernel\components\finsh\cmd.o
__fsym___cmd_list_mempool_desc                    build\kernel\components\finsh\cmd.o
__fsym___cmd_list_mempool_name                    build\kernel\components\finsh\cmd.o
__fsym___cmd_list_msgqueue                        build\kernel\components\finsh\cmd.o
__fsym___cmd_list_msgqueue_desc                   build\kernel\components\finsh\cmd.o
__fsym___cmd_list_msgqueue_name                   build\kernel\components\finsh\cmd.o
__fsym___cmd_list_mutex                           build\kernel\components\finsh\cmd.o
__fsym___cmd_list_mutex_desc                      build\kernel\components\finsh\cmd.o
__fsym___cmd_list_mutex_name                      build\kernel\components\finsh\cmd.o
__fsym___cmd_list_sem                             build\kernel\components\finsh\cmd.o
__fsym___cmd_list_sem_desc                        build\kernel\components\finsh\cmd.o
__fsym___cmd_list_sem_name                        build\kernel\components\finsh\cmd.o
__fsym___cmd_list_thread                          build\kernel\components\finsh\cmd.o
__fsym___cmd_list_thread_desc                     build\kernel\components\finsh\cmd.o
__fsym___cmd_list_thread_name                     build\kernel\components\finsh\cmd.o
__fsym___cmd_list_timer                           build\kernel\components\finsh\cmd.o
__fsym___cmd_list_timer_desc                      build\kernel\components\finsh\cmd.o
__fsym___cmd_list_timer_name                      build\kernel\components\finsh\cmd.o
__fsym___cmd_ls                                   build\kernel\components\finsh\msh_file.o
__fsym___cmd_ls_desc                              build\kernel\components\finsh\msh_file.o
__fsym___cmd_ls_name                              build\kernel\components\finsh\msh_file.o
__fsym___cmd_mkdir                                build\kernel\components\finsh\msh_file.o
__fsym___cmd_mkdir_desc                           build\kernel\components\finsh\msh_file.o
__fsym___cmd_mkdir_name                           build\kernel\components\finsh\msh_file.o
__fsym___cmd_mkfs                                 build\kernel\components\finsh\msh_file.o
__fsym___cmd_mkfs_desc                            build\kernel\components\finsh\msh_file.o
__fsym___cmd_mkfs_name                            build\kernel\components\finsh\msh_file.o
__fsym___cmd_mv                                   build\kernel\components\finsh\msh_file.o
__fsym___cmd_mv_desc                              build\kernel\components\finsh\msh_file.o
__fsym___cmd_mv_name                              build\kernel\components\finsh\msh_file.o
__fsym___cmd_ps                                   build\kernel\components\finsh\msh.o
__fsym___cmd_ps_desc                              build\kernel\components\finsh\msh.o
__fsym___cmd_ps_name                              build\kernel\components\finsh\msh.o
__fsym___cmd_pulse_encoder_sample                 build\applications\main.o
__fsym___cmd_pulse_encoder_sample_desc            build\applications\main.o
__fsym___cmd_pulse_encoder_sample_name            build\applications\main.o
__fsym___cmd_pwd                                  build\kernel\components\finsh\msh_file.o
__fsym___cmd_pwd_desc                             build\kernel\components\finsh\msh_file.o
__fsym___cmd_pwd_name                             build\kernel\components\finsh\msh_file.o
__fsym___cmd_rm                                   build\kernel\components\finsh\msh_file.o
__fsym___cmd_rm_desc                              build\kernel\components\finsh\msh_file.o
__fsym___cmd_rm_name                              build\kernel\components\finsh\msh_file.o
__fsym___cmd_version                              build\kernel\components\finsh\cmd.o
__fsym___cmd_version_desc                         build\kernel\components\finsh\cmd.o
__fsym___cmd_version_name                         build\kernel\components\finsh\cmd.o
__fsym_cat                                        build\kernel\components\dfs\src\dfs_file.o
__fsym_cat_desc                                   build\kernel\components\dfs\src\dfs_file.o
__fsym_cat_name                                   build\kernel\components\dfs\src\dfs_file.o
__fsym_cd                                         build\kernel\components\dfs\src\dfs_posix.o
__fsym_cd_desc                                    build\kernel\components\dfs\src\dfs_posix.o
__fsym_cd_name                                    build\kernel\components\dfs\src\dfs_posix.o
__fsym_clear                                      build\kernel\components\finsh\cmd.o
__fsym_clear_desc                                 build\kernel\components\finsh\cmd.o
__fsym_clear_name                                 build\kernel\components\finsh\cmd.o
__fsym_copy                                       build\kernel\components\dfs\src\dfs_file.o
__fsym_copy_desc                                  build\kernel\components\dfs\src\dfs_file.o
__fsym_copy_name                                  build\kernel\components\dfs\src\dfs_file.o
__fsym_df                                         build\kernel\components\dfs\src\dfs_fs.o
__fsym_df_desc                                    build\kernel\components\dfs\src\dfs_fs.o
__fsym_df_name                                    build\kernel\components\dfs\src\dfs_fs.o
__fsym_hello                                      build\kernel\components\finsh\cmd.o
__fsym_hello_desc                                 build\kernel\components\finsh\cmd.o
__fsym_hello_name                                 build\kernel\components\finsh\cmd.o
__fsym_list                                       build\kernel\components\finsh\cmd.o
__fsym_list_desc                                  build\kernel\components\finsh\cmd.o
__fsym_list_device                                build\kernel\components\finsh\cmd.o
__fsym_list_device_desc                           build\kernel\components\finsh\cmd.o
__fsym_list_device_name                           build\kernel\components\finsh\cmd.o
__fsym_list_event                                 build\kernel\components\finsh\cmd.o
__fsym_list_event_desc                            build\kernel\components\finsh\cmd.o
__fsym_list_event_name                            build\kernel\components\finsh\cmd.o
__fsym_list_mailbox                               build\kernel\components\finsh\cmd.o
__fsym_list_mailbox_desc                          build\kernel\components\finsh\cmd.o
__fsym_list_mailbox_name                          build\kernel\components\finsh\cmd.o
__fsym_list_memheap                               build\kernel\components\finsh\cmd.o
__fsym_list_memheap_desc                          build\kernel\components\finsh\cmd.o
__fsym_list_memheap_name                          build\kernel\components\finsh\cmd.o
__fsym_list_mempool                               build\kernel\components\finsh\cmd.o
__fsym_list_mempool_desc                          build\kernel\components\finsh\cmd.o
__fsym_list_mempool_name                          build\kernel\components\finsh\cmd.o
__fsym_list_msgqueue                              build\kernel\components\finsh\cmd.o
__fsym_list_msgqueue_desc                         build\kernel\components\finsh\cmd.o
__fsym_list_msgqueue_name                         build\kernel\components\finsh\cmd.o
__fsym_list_mutex                                 build\kernel\components\finsh\cmd.o
__fsym_list_mutex_desc                            build\kernel\components\finsh\cmd.o
__fsym_list_mutex_name                            build\kernel\components\finsh\cmd.o
__fsym_list_name                                  build\kernel\components\finsh\cmd.o
__fsym_list_sem                                   build\kernel\components\finsh\cmd.o
__fsym_list_sem_desc                              build\kernel\components\finsh\cmd.o
__fsym_list_sem_name                              build\kernel\components\finsh\cmd.o
__fsym_list_thread                                build\kernel\components\finsh\cmd.o
__fsym_list_thread_desc                           build\kernel\components\finsh\cmd.o
__fsym_list_thread_name                           build\kernel\components\finsh\cmd.o
__fsym_list_timer                                 build\kernel\components\finsh\cmd.o
__fsym_list_timer_desc                            build\kernel\components\finsh\cmd.o
__fsym_list_timer_name                            build\kernel\components\finsh\cmd.o
__fsym_ls                                         build\kernel\components\dfs\src\dfs_file.o
__fsym_ls_desc                                    build\kernel\components\dfs\src\dfs_file.o
__fsym_ls_name                                    build\kernel\components\dfs\src\dfs_file.o
__fsym_mkdir                                      build\kernel\components\dfs\src\dfs_posix.o
__fsym_mkdir_desc                                 build\kernel\components\dfs\src\dfs_posix.o
__fsym_mkdir_name                                 build\kernel\components\dfs\src\dfs_posix.o
__fsym_mkfs                                       build\kernel\components\dfs\src\dfs_fs.o
__fsym_mkfs_desc                                  build\kernel\components\dfs\src\dfs_fs.o
__fsym_mkfs_name                                  build\kernel\components\dfs\src\dfs_fs.o
__fsym_pinGet                                     build\kernel\components\drivers\misc\pin.o
__fsym_pinGet_desc                                build\kernel\components\drivers\misc\pin.o
__fsym_pinGet_name                                build\kernel\components\drivers\misc\pin.o
__fsym_pinMode                                    build\kernel\components\drivers\misc\pin.o
__fsym_pinMode_desc                               build\kernel\components\drivers\misc\pin.o
__fsym_pinMode_name                               build\kernel\components\drivers\misc\pin.o
__fsym_pinRead                                    build\kernel\components\drivers\misc\pin.o
__fsym_pinRead_desc                               build\kernel\components\drivers\misc\pin.o
__fsym_pinRead_name                               build\kernel\components\drivers\misc\pin.o
__fsym_pinWrite                                   build\kernel\components\drivers\misc\pin.o
__fsym_pinWrite_desc                              build\kernel\components\drivers\misc\pin.o
__fsym_pinWrite_name                              build\kernel\components\drivers\misc\pin.o
__fsym_rm                                         build\kernel\components\dfs\src\dfs_file.o
__fsym_rm_desc                                    build\kernel\components\dfs\src\dfs_file.o
__fsym_rm_name                                    build\kernel\components\dfs\src\dfs_file.o
__fsym_version                                    build\kernel\components\finsh\cmd.o
__fsym_version_desc                               build\kernel\components\finsh\cmd.o
__fsym_version_name                               build\kernel\components\finsh\cmd.o
__fsymtab_end                                     build\kernel\components\finsh\shell.o
__fsymtab_start                                   build\kernel\components\finsh\shell.o
__gedf2                                           c:/rtthread/env/tools/gnu_gcc/arm_gcc/mingw/bin/../lib/gcc/arm-none-eabi/5.4.1/armv7e-m/fpu\libgcc.a(_arm_cmpdf2.o)
__global_locale                                   c:/rtthread/env/tools/gnu_gcc/arm_gcc/mingw/bin/../lib/gcc/arm-none-eabi/5.4.1/../../../../arm-none-eabi/lib/armv7e-m/fpu\libc.a(lib_a-locale.o)
                                                  c:/rtthread/env/tools/gnu_gcc/arm_gcc/mingw/bin/../lib/gcc/arm-none-eabi/5.4.1/../../../../arm-none-eabi/lib/armv7e-m/fpu\libc.a(lib_a-wctomb_r.o)
                                                  c:/rtthread/env/tools/gnu_gcc/arm_gcc/mingw/bin/../lib/gcc/arm-none-eabi/5.4.1/../../../../arm-none-eabi/lib/armv7e-m/fpu\libc.a(lib_a-wcrtomb.o)
                                                  c:/rtthread/env/tools/gnu_gcc/arm_gcc/mingw/bin/../lib/gcc/arm-none-eabi/5.4.1/../../../../arm-none-eabi/lib/armv7e-m/fpu\libc.a(lib_a-mbtowc_r.o)
                                                  c:/rtthread/env/tools/gnu_gcc/arm_gcc/mingw/bin/../lib/gcc/arm-none-eabi/5.4.1/../../../../arm-none-eabi/lib/armv7e-m/fpu\libc.a(lib_a-localeconv.o)
__gtdf2                                           c:/rtthread/env/tools/gnu_gcc/arm_gcc/mingw/bin/../lib/gcc/arm-none-eabi/5.4.1/armv7e-m/fpu\libgcc.a(_arm_cmpdf2.o)
__hi0bits                                         c:/rtthread/env/tools/gnu_gcc/arm_gcc/mingw/bin/../lib/gcc/arm-none-eabi/5.4.1/../../../../arm-none-eabi/lib/armv7e-m/fpu\libc.a(lib_a-mprec.o)
                                                  c:/rtthread/env/tools/gnu_gcc/arm_gcc/mingw/bin/../lib/gcc/arm-none-eabi/5.4.1/../../../../arm-none-eabi/lib/armv7e-m/fpu\libc.a(lib_a-dtoa.o)
__i2b                                             c:/rtthread/env/tools/gnu_gcc/arm_gcc/mingw/bin/../lib/gcc/arm-none-eabi/5.4.1/../../../../arm-none-eabi/lib/armv7e-m/fpu\libc.a(lib_a-mprec.o)
                                                  c:/rtthread/env/tools/gnu_gcc/arm_gcc/mingw/bin/../lib/gcc/arm-none-eabi/5.4.1/../../../../arm-none-eabi/lib/armv7e-m/fpu\libc.a(lib_a-dtoa.o)
__isleap                                          build\kernel\components\libc\compilers\common\time.o
__isr_vector                                      libraries\MIMXRT1050\MIMXRT1052\gcc\startup_MIMXRT1052.o
__ledf2                                           c:/rtthread/env/tools/gnu_gcc/arm_gcc/mingw/bin/../lib/gcc/arm-none-eabi/5.4.1/armv7e-m/fpu\libgcc.a(_arm_cmpdf2.o)
__libc_init_array                                 build\kernel\components\libc\compilers\newlib\syscalls.o
__lo0bits                                         c:/rtthread/env/tools/gnu_gcc/arm_gcc/mingw/bin/../lib/gcc/arm-none-eabi/5.4.1/../../../../arm-none-eabi/lib/armv7e-m/fpu\libc.a(lib_a-mprec.o)
__locale_ctype_ptr                                c:/rtthread/env/tools/gnu_gcc/arm_gcc/mingw/bin/../lib/gcc/arm-none-eabi/5.4.1/../../../../arm-none-eabi/lib/armv7e-m/fpu\libc.a(lib_a-locale.o)
__locale_ctype_ptr_l                              c:/rtthread/env/tools/gnu_gcc/arm_gcc/mingw/bin/../lib/gcc/arm-none-eabi/5.4.1/../../../../arm-none-eabi/lib/armv7e-m/fpu\libc.a(lib_a-locale.o)
__locale_mb_cur_max                               c:/rtthread/env/tools/gnu_gcc/arm_gcc/mingw/bin/../lib/gcc/arm-none-eabi/5.4.1/../../../../arm-none-eabi/lib/armv7e-m/fpu\libc.a(lib_a-locale.o)
                                                  c:/rtthread/env/tools/gnu_gcc/arm_gcc/mingw/bin/../lib/gcc/arm-none-eabi/5.4.1/../../../../arm-none-eabi/lib/armv7e-m/fpu\libc.a(lib_a-fputwc.o)
__localeconv_l                                    c:/rtthread/env/tools/gnu_gcc/arm_gcc/mingw/bin/../lib/gcc/arm-none-eabi/5.4.1/../../../../arm-none-eabi/lib/armv7e-m/fpu\libc.a(lib_a-localeconv.o)
__lowest_bit_bitmap                               build\kernel\src\kservice.o
__lshift                                          c:/rtthread/env/tools/gnu_gcc/arm_gcc/mingw/bin/../lib/gcc/arm-none-eabi/5.4.1/../../../../arm-none-eabi/lib/armv7e-m/fpu\libc.a(lib_a-mprec.o)
                                                  c:/rtthread/env/tools/gnu_gcc/arm_gcc/mingw/bin/../lib/gcc/arm-none-eabi/5.4.1/../../../../arm-none-eabi/lib/armv7e-m/fpu\libc.a(lib_a-dtoa.o)
__ltdf2                                           c:/rtthread/env/tools/gnu_gcc/arm_gcc/mingw/bin/../lib/gcc/arm-none-eabi/5.4.1/armv7e-m/fpu\libgcc.a(_arm_cmpdf2.o)
__mcmp                                            c:/rtthread/env/tools/gnu_gcc/arm_gcc/mingw/bin/../lib/gcc/arm-none-eabi/5.4.1/../../../../arm-none-eabi/lib/armv7e-m/fpu\libc.a(lib_a-mprec.o)
                                                  c:/rtthread/env/tools/gnu_gcc/arm_gcc/mingw/bin/../lib/gcc/arm-none-eabi/5.4.1/../../../../arm-none-eabi/lib/armv7e-m/fpu\libc.a(lib_a-dtoa.o)
__mdiff                                           c:/rtthread/env/tools/gnu_gcc/arm_gcc/mingw/bin/../lib/gcc/arm-none-eabi/5.4.1/../../../../arm-none-eabi/lib/armv7e-m/fpu\libc.a(lib_a-mprec.o)
                                                  c:/rtthread/env/tools/gnu_gcc/arm_gcc/mingw/bin/../lib/gcc/arm-none-eabi/5.4.1/../../../../arm-none-eabi/lib/armv7e-m/fpu\libc.a(lib_a-dtoa.o)
__mprec_bigtens                                   c:/rtthread/env/tools/gnu_gcc/arm_gcc/mingw/bin/../lib/gcc/arm-none-eabi/5.4.1/../../../../arm-none-eabi/lib/armv7e-m/fpu\libc.a(lib_a-mprec.o)
                                                  c:/rtthread/env/tools/gnu_gcc/arm_gcc/mingw/bin/../lib/gcc/arm-none-eabi/5.4.1/../../../../arm-none-eabi/lib/armv7e-m/fpu\libc.a(lib_a-dtoa.o)
__mprec_tens                                      c:/rtthread/env/tools/gnu_gcc/arm_gcc/mingw/bin/../lib/gcc/arm-none-eabi/5.4.1/../../../../arm-none-eabi/lib/armv7e-m/fpu\libc.a(lib_a-mprec.o)
                                                  c:/rtthread/env/tools/gnu_gcc/arm_gcc/mingw/bin/../lib/gcc/arm-none-eabi/5.4.1/../../../../arm-none-eabi/lib/armv7e-m/fpu\libc.a(lib_a-dtoa.o)
__mprec_tinytens                                  c:/rtthread/env/tools/gnu_gcc/arm_gcc/mingw/bin/../lib/gcc/arm-none-eabi/5.4.1/../../../../arm-none-eabi/lib/armv7e-m/fpu\libc.a(lib_a-mprec.o)
__muldf3                                          c:/rtthread/env/tools/gnu_gcc/arm_gcc/mingw/bin/../lib/gcc/arm-none-eabi/5.4.1/armv7e-m/fpu\libgcc.a(_arm_muldivdf3.o)
__multadd                                         c:/rtthread/env/tools/gnu_gcc/arm_gcc/mingw/bin/../lib/gcc/arm-none-eabi/5.4.1/../../../../arm-none-eabi/lib/armv7e-m/fpu\libc.a(lib_a-mprec.o)
                                                  c:/rtthread/env/tools/gnu_gcc/arm_gcc/mingw/bin/../lib/gcc/arm-none-eabi/5.4.1/../../../../arm-none-eabi/lib/armv7e-m/fpu\libc.a(lib_a-dtoa.o)
__multiply                                        c:/rtthread/env/tools/gnu_gcc/arm_gcc/mingw/bin/../lib/gcc/arm-none-eabi/5.4.1/../../../../arm-none-eabi/lib/armv7e-m/fpu\libc.a(lib_a-mprec.o)
                                                  c:/rtthread/env/tools/gnu_gcc/arm_gcc/mingw/bin/../lib/gcc/arm-none-eabi/5.4.1/../../../../arm-none-eabi/lib/armv7e-m/fpu\libc.a(lib_a-dtoa.o)
__nedf2                                           c:/rtthread/env/tools/gnu_gcc/arm_gcc/mingw/bin/../lib/gcc/arm-none-eabi/5.4.1/armv7e-m/fpu\libgcc.a(_arm_cmpdf2.o)
__pow5mult                                        c:/rtthread/env/tools/gnu_gcc/arm_gcc/mingw/bin/../lib/gcc/arm-none-eabi/5.4.1/../../../../arm-none-eabi/lib/armv7e-m/fpu\libc.a(lib_a-mprec.o)
                                                  c:/rtthread/env/tools/gnu_gcc/arm_gcc/mingw/bin/../lib/gcc/arm-none-eabi/5.4.1/../../../../arm-none-eabi/lib/armv7e-m/fpu\libc.a(lib_a-dtoa.o)
__ratio                                           c:/rtthread/env/tools/gnu_gcc/arm_gcc/mingw/bin/../lib/gcc/arm-none-eabi/5.4.1/../../../../arm-none-eabi/lib/armv7e-m/fpu\libc.a(lib_a-mprec.o)
__rt_ffs                                          build\kernel\src\kservice.o
                                                  build\kernel\components\drivers\sdio\mmcsd_core.o
                                                  build\kernel\src\scheduler.o
__rt_init_dfs_init                                build\kernel\components\dfs\src\dfs.o
__rt_init_elm_init                                build\kernel\components\dfs\filesystems\elmfat\dfs_elm.o
__rt_init_finsh_system_init                       build\kernel\components\finsh\shell.o
__rt_init_imxrt_mci_init                          libraries\drivers\drv_sdio.o
__rt_init_imxrt_usbh_register                     libraries\drivers\drv_usbh.o
__rt_init_libc_system_init                        build\kernel\components\libc\compilers\newlib\libc.o
__rt_init_rt_hw_pin_init                          libraries\drivers\drv_gpio.o
__rt_init_rt_hw_pulse_encoder_init                libraries\drivers\drv_pulse_encoder.o
__rt_init_rt_hw_uart_init                         libraries\drivers\drv_uart.o
__rt_init_rt_mmcsd_core_init                      build\kernel\components\drivers\sdio\mmcsd_core.o
__rt_init_rti_board_end                           build\kernel\src\components.o
__rt_init_rti_board_start                         build\kernel\src\components.o
__rt_init_rti_end                                 build\kernel\src\components.o
__rt_init_rti_start                               build\kernel\src\components.o
__s2b                                             c:/rtthread/env/tools/gnu_gcc/arm_gcc/mingw/bin/../lib/gcc/arm-none-eabi/5.4.1/../../../../arm-none-eabi/lib/armv7e-m/fpu\libc.a(lib_a-mprec.o)
__sclose                                          c:/rtthread/env/tools/gnu_gcc/arm_gcc/mingw/bin/../lib/gcc/arm-none-eabi/5.4.1/../../../../arm-none-eabi/lib/armv7e-m/fpu\libc.a(lib_a-stdio.o)
                                                  c:/rtthread/env/tools/gnu_gcc/arm_gcc/mingw/bin/../lib/gcc/arm-none-eabi/5.4.1/../../../../arm-none-eabi/lib/armv7e-m/fpu\libc.a(lib_a-fopen.o)
                                                  c:/rtthread/env/tools/gnu_gcc/arm_gcc/mingw/bin/../lib/gcc/arm-none-eabi/5.4.1/../../../../arm-none-eabi/lib/armv7e-m/fpu\libc.a(lib_a-findfp.o)
__seofread                                        c:/rtthread/env/tools/gnu_gcc/arm_gcc/mingw/bin/../lib/gcc/arm-none-eabi/5.4.1/../../../../arm-none-eabi/lib/armv7e-m/fpu\libc.a(lib_a-stdio.o)
__sflags                                          c:/rtthread/env/tools/gnu_gcc/arm_gcc/mingw/bin/../lib/gcc/arm-none-eabi/5.4.1/../../../../arm-none-eabi/lib/armv7e-m/fpu\libc.a(lib_a-flags.o)
                                                  c:/rtthread/env/tools/gnu_gcc/arm_gcc/mingw/bin/../lib/gcc/arm-none-eabi/5.4.1/../../../../arm-none-eabi/lib/armv7e-m/fpu\libc.a(lib_a-fopen.o)
__sflush_r                                        c:/rtthread/env/tools/gnu_gcc/arm_gcc/mingw/bin/../lib/gcc/arm-none-eabi/5.4.1/../../../../arm-none-eabi/lib/armv7e-m/fpu\libc.a(lib_a-fflush.o)
                                                  c:/rtthread/env/tools/gnu_gcc/arm_gcc/mingw/bin/../lib/gcc/arm-none-eabi/5.4.1/../../../../arm-none-eabi/lib/armv7e-m/fpu\libc.a(lib_a-refill.o)
                                                  c:/rtthread/env/tools/gnu_gcc/arm_gcc/mingw/bin/../lib/gcc/arm-none-eabi/5.4.1/../../../../arm-none-eabi/lib/armv7e-m/fpu\libc.a(lib_a-fclose.o)
__sfmoreglue                                      c:/rtthread/env/tools/gnu_gcc/arm_gcc/mingw/bin/../lib/gcc/arm-none-eabi/5.4.1/../../../../arm-none-eabi/lib/armv7e-m/fpu\libc.a(lib_a-findfp.o)
__sfp                                             c:/rtthread/env/tools/gnu_gcc/arm_gcc/mingw/bin/../lib/gcc/arm-none-eabi/5.4.1/../../../../arm-none-eabi/lib/armv7e-m/fpu\libc.a(lib_a-findfp.o)
                                                  c:/rtthread/env/tools/gnu_gcc/arm_gcc/mingw/bin/../lib/gcc/arm-none-eabi/5.4.1/../../../../arm-none-eabi/lib/armv7e-m/fpu\libc.a(lib_a-fopen.o)
__sfp_lock_acquire                                c:/rtthread/env/tools/gnu_gcc/arm_gcc/mingw/bin/../lib/gcc/arm-none-eabi/5.4.1/../../../../arm-none-eabi/lib/armv7e-m/fpu\libc.a(lib_a-findfp.o)
                                                  c:/rtthread/env/tools/gnu_gcc/arm_gcc/mingw/bin/../lib/gcc/arm-none-eabi/5.4.1/../../../../arm-none-eabi/lib/armv7e-m/fpu\libc.a(lib_a-fopen.o)
                                                  c:/rtthread/env/tools/gnu_gcc/arm_gcc/mingw/bin/../lib/gcc/arm-none-eabi/5.4.1/../../../../arm-none-eabi/lib/armv7e-m/fpu\libc.a(lib_a-fclose.o)
__sfp_lock_release                                c:/rtthread/env/tools/gnu_gcc/arm_gcc/mingw/bin/../lib/gcc/arm-none-eabi/5.4.1/../../../../arm-none-eabi/lib/armv7e-m/fpu\libc.a(lib_a-findfp.o)
                                                  c:/rtthread/env/tools/gnu_gcc/arm_gcc/mingw/bin/../lib/gcc/arm-none-eabi/5.4.1/../../../../arm-none-eabi/lib/armv7e-m/fpu\libc.a(lib_a-fopen.o)
                                                  c:/rtthread/env/tools/gnu_gcc/arm_gcc/mingw/bin/../lib/gcc/arm-none-eabi/5.4.1/../../../../arm-none-eabi/lib/armv7e-m/fpu\libc.a(lib_a-fclose.o)
__sfvwrite_r                                      c:/rtthread/env/tools/gnu_gcc/arm_gcc/mingw/bin/../lib/gcc/arm-none-eabi/5.4.1/../../../../arm-none-eabi/lib/armv7e-m/fpu\libc.a(lib_a-fvwrite.o)
                                                  c:/rtthread/env/tools/gnu_gcc/arm_gcc/mingw/bin/../lib/gcc/arm-none-eabi/5.4.1/../../../../arm-none-eabi/lib/armv7e-m/fpu\libc.a(lib_a-vfiprintf.o)
__sinit                                           c:/rtthread/env/tools/gnu_gcc/arm_gcc/mingw/bin/../lib/gcc/arm-none-eabi/5.4.1/../../../../arm-none-eabi/lib/armv7e-m/fpu\libc.a(lib_a-findfp.o)
                                                  c:/rtthread/env/tools/gnu_gcc/arm_gcc/mingw/bin/../lib/gcc/arm-none-eabi/5.4.1/../../../../arm-none-eabi/lib/armv7e-m/fpu\libc.a(lib_a-wbuf.o)
                                                  c:/rtthread/env/tools/gnu_gcc/arm_gcc/mingw/bin/../lib/gcc/arm-none-eabi/5.4.1/../../../../arm-none-eabi/lib/armv7e-m/fpu\libc.a(lib_a-fputwc.o)
                                                  c:/rtthread/env/tools/gnu_gcc/arm_gcc/mingw/bin/../lib/gcc/arm-none-eabi/5.4.1/../../../../arm-none-eabi/lib/armv7e-m/fpu\libc.a(lib_a-wsetup.o)
                                                  c:/rtthread/env/tools/gnu_gcc/arm_gcc/mingw/bin/../lib/gcc/arm-none-eabi/5.4.1/../../../../arm-none-eabi/lib/armv7e-m/fpu\libc.a(lib_a-vfiprintf.o)
                                                  c:/rtthread/env/tools/gnu_gcc/arm_gcc/mingw/bin/../lib/gcc/arm-none-eabi/5.4.1/../../../../arm-none-eabi/lib/armv7e-m/fpu\libc.a(lib_a-setvbuf.o)
                                                  c:/rtthread/env/tools/gnu_gcc/arm_gcc/mingw/bin/../lib/gcc/arm-none-eabi/5.4.1/../../../../arm-none-eabi/lib/armv7e-m/fpu\libc.a(lib_a-rget.o)
                                                  c:/rtthread/env/tools/gnu_gcc/arm_gcc/mingw/bin/../lib/gcc/arm-none-eabi/5.4.1/../../../../arm-none-eabi/lib/armv7e-m/fpu\libc.a(lib_a-refill.o)
                                                  c:/rtthread/env/tools/gnu_gcc/arm_gcc/mingw/bin/../lib/gcc/arm-none-eabi/5.4.1/../../../../arm-none-eabi/lib/armv7e-m/fpu\libc.a(lib_a-fseeko.o)
                                                  c:/rtthread/env/tools/gnu_gcc/arm_gcc/mingw/bin/../lib/gcc/arm-none-eabi/5.4.1/../../../../arm-none-eabi/lib/armv7e-m/fpu\libc.a(lib_a-fileno.o)
                                                  c:/rtthread/env/tools/gnu_gcc/arm_gcc/mingw/bin/../lib/gcc/arm-none-eabi/5.4.1/../../../../arm-none-eabi/lib/armv7e-m/fpu\libc.a(lib_a-fflush.o)
                                                  c:/rtthread/env/tools/gnu_gcc/arm_gcc/mingw/bin/../lib/gcc/arm-none-eabi/5.4.1/../../../../arm-none-eabi/lib/armv7e-m/fpu\libc.a(lib_a-fclose.o)
__sinit_lock_acquire                              c:/rtthread/env/tools/gnu_gcc/arm_gcc/mingw/bin/../lib/gcc/arm-none-eabi/5.4.1/../../../../arm-none-eabi/lib/armv7e-m/fpu\libc.a(lib_a-findfp.o)
__sinit_lock_release                              c:/rtthread/env/tools/gnu_gcc/arm_gcc/mingw/bin/../lib/gcc/arm-none-eabi/5.4.1/../../../../arm-none-eabi/lib/armv7e-m/fpu\libc.a(lib_a-findfp.o)
__smakebuf_r                                      c:/rtthread/env/tools/gnu_gcc/arm_gcc/mingw/bin/../lib/gcc/arm-none-eabi/5.4.1/../../../../arm-none-eabi/lib/armv7e-m/fpu\libc.a(lib_a-makebuf.o)
                                                  c:/rtthread/env/tools/gnu_gcc/arm_gcc/mingw/bin/../lib/gcc/arm-none-eabi/5.4.1/../../../../arm-none-eabi/lib/armv7e-m/fpu\libc.a(lib_a-wsetup.o)
                                                  c:/rtthread/env/tools/gnu_gcc/arm_gcc/mingw/bin/../lib/gcc/arm-none-eabi/5.4.1/../../../../arm-none-eabi/lib/armv7e-m/fpu\libc.a(lib_a-refill.o)
                                                  c:/rtthread/env/tools/gnu_gcc/arm_gcc/mingw/bin/../lib/gcc/arm-none-eabi/5.4.1/../../../../arm-none-eabi/lib/armv7e-m/fpu\libc.a(lib_a-fseeko.o)
__spm                                             build\kernel\components\libc\compilers\common\time.o
__sprint_r                                        c:/rtthread/env/tools/gnu_gcc/arm_gcc/mingw/bin/../lib/gcc/arm-none-eabi/5.4.1/../../../../arm-none-eabi/lib/armv7e-m/fpu\libc.a(lib_a-vfiprintf.o)
__sread                                           c:/rtthread/env/tools/gnu_gcc/arm_gcc/mingw/bin/../lib/gcc/arm-none-eabi/5.4.1/../../../../arm-none-eabi/lib/armv7e-m/fpu\libc.a(lib_a-stdio.o)
                                                  c:/rtthread/env/tools/gnu_gcc/arm_gcc/mingw/bin/../lib/gcc/arm-none-eabi/5.4.1/../../../../arm-none-eabi/lib/armv7e-m/fpu\libc.a(lib_a-fopen.o)
                                                  c:/rtthread/env/tools/gnu_gcc/arm_gcc/mingw/bin/../lib/gcc/arm-none-eabi/5.4.1/../../../../arm-none-eabi/lib/armv7e-m/fpu\libc.a(lib_a-findfp.o)
__srefill_r                                       c:/rtthread/env/tools/gnu_gcc/arm_gcc/mingw/bin/../lib/gcc/arm-none-eabi/5.4.1/../../../../arm-none-eabi/lib/armv7e-m/fpu\libc.a(lib_a-refill.o)
                                                  c:/rtthread/env/tools/gnu_gcc/arm_gcc/mingw/bin/../lib/gcc/arm-none-eabi/5.4.1/../../../../arm-none-eabi/lib/armv7e-m/fpu\libc.a(lib_a-rget.o)
                                                  c:/rtthread/env/tools/gnu_gcc/arm_gcc/mingw/bin/../lib/gcc/arm-none-eabi/5.4.1/../../../../arm-none-eabi/lib/armv7e-m/fpu\libc.a(lib_a-fseeko.o)
__srget                                           c:/rtthread/env/tools/gnu_gcc/arm_gcc/mingw/bin/../lib/gcc/arm-none-eabi/5.4.1/../../../../arm-none-eabi/lib/armv7e-m/fpu\libc.a(lib_a-rget.o)
__srget_r                                         c:/rtthread/env/tools/gnu_gcc/arm_gcc/mingw/bin/../lib/gcc/arm-none-eabi/5.4.1/../../../../arm-none-eabi/lib/armv7e-m/fpu\libc.a(lib_a-rget.o)
                                                  build\kernel\components\finsh\shell.o
__sseek                                           c:/rtthread/env/tools/gnu_gcc/arm_gcc/mingw/bin/../lib/gcc/arm-none-eabi/5.4.1/../../../../arm-none-eabi/lib/armv7e-m/fpu\libc.a(lib_a-stdio.o)
                                                  c:/rtthread/env/tools/gnu_gcc/arm_gcc/mingw/bin/../lib/gcc/arm-none-eabi/5.4.1/../../../../arm-none-eabi/lib/armv7e-m/fpu\libc.a(lib_a-fseeko.o)
                                                  c:/rtthread/env/tools/gnu_gcc/arm_gcc/mingw/bin/../lib/gcc/arm-none-eabi/5.4.1/../../../../arm-none-eabi/lib/armv7e-m/fpu\libc.a(lib_a-fopen.o)
                                                  c:/rtthread/env/tools/gnu_gcc/arm_gcc/mingw/bin/../lib/gcc/arm-none-eabi/5.4.1/../../../../arm-none-eabi/lib/armv7e-m/fpu\libc.a(lib_a-findfp.o)
__ssprint_r                                       c:/rtthread/env/tools/gnu_gcc/arm_gcc/mingw/bin/../lib/gcc/arm-none-eabi/5.4.1/../../../../arm-none-eabi/lib/armv7e-m/fpu\libc.a(lib_a-svfiprintf.o)
                                                  c:/rtthread/env/tools/gnu_gcc/arm_gcc/mingw/bin/../lib/gcc/arm-none-eabi/5.4.1/../../../../arm-none-eabi/lib/armv7e-m/fpu\libc.a(lib_a-svfprintf.o)
__subdf3                                          c:/rtthread/env/tools/gnu_gcc/arm_gcc/mingw/bin/../lib/gcc/arm-none-eabi/5.4.1/armv7e-m/fpu\libgcc.a(_arm_addsubdf3.o)
__swbuf                                           c:/rtthread/env/tools/gnu_gcc/arm_gcc/mingw/bin/../lib/gcc/arm-none-eabi/5.4.1/../../../../arm-none-eabi/lib/armv7e-m/fpu\libc.a(lib_a-wbuf.o)
__swbuf_r                                         c:/rtthread/env/tools/gnu_gcc/arm_gcc/mingw/bin/../lib/gcc/arm-none-eabi/5.4.1/../../../../arm-none-eabi/lib/armv7e-m/fpu\libc.a(lib_a-wbuf.o)
                                                  c:/rtthread/env/tools/gnu_gcc/arm_gcc/mingw/bin/../lib/gcc/arm-none-eabi/5.4.1/../../../../arm-none-eabi/lib/armv7e-m/fpu\libc.a(lib_a-fputwc.o)
__swhatbuf_r                                      c:/rtthread/env/tools/gnu_gcc/arm_gcc/mingw/bin/../lib/gcc/arm-none-eabi/5.4.1/../../../../arm-none-eabi/lib/armv7e-m/fpu\libc.a(lib_a-makebuf.o)
                                                  c:/rtthread/env/tools/gnu_gcc/arm_gcc/mingw/bin/../lib/gcc/arm-none-eabi/5.4.1/../../../../arm-none-eabi/lib/armv7e-m/fpu\libc.a(lib_a-setvbuf.o)
__swrite                                          c:/rtthread/env/tools/gnu_gcc/arm_gcc/mingw/bin/../lib/gcc/arm-none-eabi/5.4.1/../../../../arm-none-eabi/lib/armv7e-m/fpu\libc.a(lib_a-stdio.o)
                                                  c:/rtthread/env/tools/gnu_gcc/arm_gcc/mingw/bin/../lib/gcc/arm-none-eabi/5.4.1/../../../../arm-none-eabi/lib/armv7e-m/fpu\libc.a(lib_a-fopen.o)
                                                  c:/rtthread/env/tools/gnu_gcc/arm_gcc/mingw/bin/../lib/gcc/arm-none-eabi/5.4.1/../../../../arm-none-eabi/lib/armv7e-m/fpu\libc.a(lib_a-findfp.o)
__swsetup_r                                       c:/rtthread/env/tools/gnu_gcc/arm_gcc/mingw/bin/../lib/gcc/arm-none-eabi/5.4.1/../../../../arm-none-eabi/lib/armv7e-m/fpu\libc.a(lib_a-wsetup.o)
                                                  c:/rtthread/env/tools/gnu_gcc/arm_gcc/mingw/bin/../lib/gcc/arm-none-eabi/5.4.1/../../../../arm-none-eabi/lib/armv7e-m/fpu\libc.a(lib_a-wbuf.o)
                                                  c:/rtthread/env/tools/gnu_gcc/arm_gcc/mingw/bin/../lib/gcc/arm-none-eabi/5.4.1/../../../../arm-none-eabi/lib/armv7e-m/fpu\libc.a(lib_a-fvwrite.o)
                                                  c:/rtthread/env/tools/gnu_gcc/arm_gcc/mingw/bin/../lib/gcc/arm-none-eabi/5.4.1/../../../../arm-none-eabi/lib/armv7e-m/fpu\libc.a(lib_a-vfiprintf.o)
__udivmoddi4                                      c:/rtthread/env/tools/gnu_gcc/arm_gcc/mingw/bin/../lib/gcc/arm-none-eabi/5.4.1/armv7e-m/fpu\libgcc.a(_udivmoddi4.o)
                                                  c:/rtthread/env/tools/gnu_gcc/arm_gcc/mingw/bin/../lib/gcc/arm-none-eabi/5.4.1/armv7e-m/fpu\libgcc.a(_aeabi_uldivmod.o)
__ulp                                             c:/rtthread/env/tools/gnu_gcc/arm_gcc/mingw/bin/../lib/gcc/arm-none-eabi/5.4.1/../../../../arm-none-eabi/lib/armv7e-m/fpu\libc.a(lib_a-mprec.o)
__unorddf2                                        c:/rtthread/env/tools/gnu_gcc/arm_gcc/mingw/bin/../lib/gcc/arm-none-eabi/5.4.1/armv7e-m/fpu\libgcc.a(_arm_unorddf2.o)
__vsymtab_end                                     build\kernel\components\finsh\shell.o
__vsymtab_start                                   build\kernel\components\finsh\shell.o
__wqueue_default_wake                             build\kernel\components\drivers\src\waitqueue.o
                                                  build\kernel\components\dfs\src\poll.o
_calloc_r                                         build\kernel\components\libc\compilers\newlib\syscalls.o
                                                  c:/rtthread/env/tools/gnu_gcc/arm_gcc/mingw/bin/../lib/gcc/arm-none-eabi/5.4.1/../../../../arm-none-eabi/lib/armv7e-m/fpu\libc.a(lib_a-mprec.o)
_cleanup                                          c:/rtthread/env/tools/gnu_gcc/arm_gcc/mingw/bin/../lib/gcc/arm-none-eabi/5.4.1/../../../../arm-none-eabi/lib/armv7e-m/fpu\libc.a(lib_a-findfp.o)
_cleanup_r                                        c:/rtthread/env/tools/gnu_gcc/arm_gcc/mingw/bin/../lib/gcc/arm-none-eabi/5.4.1/../../../../arm-none-eabi/lib/armv7e-m/fpu\libc.a(lib_a-findfp.o)
                                                  c:/rtthread/env/tools/gnu_gcc/arm_gcc/mingw/bin/../lib/gcc/arm-none-eabi/5.4.1/../../../../arm-none-eabi/lib/armv7e-m/fpu\libc.a(lib_a-makebuf.o)
_close_r                                          build\kernel\components\libc\compilers\newlib\syscalls.o
                                                  c:/rtthread/env/tools/gnu_gcc/arm_gcc/mingw/bin/../lib/gcc/arm-none-eabi/5.4.1/../../../../arm-none-eabi/lib/armv7e-m/fpu\libc.a(lib_a-stdio.o)
_ctype_                                           c:/rtthread/env/tools/gnu_gcc/arm_gcc/mingw/bin/../lib/gcc/arm-none-eabi/5.4.1/../../../../arm-none-eabi/lib/armv7e-m/fpu\libc.a(lib_a-ctype_.o)
                                                  c:/rtthread/env/tools/gnu_gcc/arm_gcc/mingw/bin/../lib/gcc/arm-none-eabi/5.4.1/../../../../arm-none-eabi/lib/armv7e-m/fpu\libc.a(lib_a-locale.o)
_dtoa_r                                           c:/rtthread/env/tools/gnu_gcc/arm_gcc/mingw/bin/../lib/gcc/arm-none-eabi/5.4.1/../../../../arm-none-eabi/lib/armv7e-m/fpu\libc.a(lib_a-dtoa.o)
                                                  c:/rtthread/env/tools/gnu_gcc/arm_gcc/mingw/bin/../lib/gcc/arm-none-eabi/5.4.1/../../../../arm-none-eabi/lib/armv7e-m/fpu\libc.a(lib_a-svfprintf.o)
_execve_r                                         build\kernel\components\libc\compilers\newlib\syscalls.o
_fclose_r                                         c:/rtthread/env/tools/gnu_gcc/arm_gcc/mingw/bin/../lib/gcc/arm-none-eabi/5.4.1/../../../../arm-none-eabi/lib/armv7e-m/fpu\libc.a(lib_a-fclose.o)
                                                  c:/rtthread/env/tools/gnu_gcc/arm_gcc/mingw/bin/../lib/gcc/arm-none-eabi/5.4.1/../../../../arm-none-eabi/lib/armv7e-m/fpu\libc.a(lib_a-findfp.o)
_fcntl_r                                          build\kernel\components\libc\compilers\newlib\syscalls.o
_fflush_r                                         c:/rtthread/env/tools/gnu_gcc/arm_gcc/mingw/bin/../lib/gcc/arm-none-eabi/5.4.1/../../../../arm-none-eabi/lib/armv7e-m/fpu\libc.a(lib_a-fflush.o)
                                                  c:/rtthread/env/tools/gnu_gcc/arm_gcc/mingw/bin/../lib/gcc/arm-none-eabi/5.4.1/../../../../arm-none-eabi/lib/armv7e-m/fpu\libc.a(lib_a-wbuf.o)
                                                  c:/rtthread/env/tools/gnu_gcc/arm_gcc/mingw/bin/../lib/gcc/arm-none-eabi/5.4.1/../../../../arm-none-eabi/lib/armv7e-m/fpu\libc.a(lib_a-fvwrite.o)
                                                  c:/rtthread/env/tools/gnu_gcc/arm_gcc/mingw/bin/../lib/gcc/arm-none-eabi/5.4.1/../../../../arm-none-eabi/lib/armv7e-m/fpu\libc.a(lib_a-vfiprintf.o)
                                                  c:/rtthread/env/tools/gnu_gcc/arm_gcc/mingw/bin/../lib/gcc/arm-none-eabi/5.4.1/../../../../arm-none-eabi/lib/armv7e-m/fpu\libc.a(lib_a-setvbuf.o)
                                                  c:/rtthread/env/tools/gnu_gcc/arm_gcc/mingw/bin/../lib/gcc/arm-none-eabi/5.4.1/../../../../arm-none-eabi/lib/armv7e-m/fpu\libc.a(lib_a-refill.o)
                                                  c:/rtthread/env/tools/gnu_gcc/arm_gcc/mingw/bin/../lib/gcc/arm-none-eabi/5.4.1/../../../../arm-none-eabi/lib/armv7e-m/fpu\libc.a(lib_a-fseeko.o)
_findenv_r                                        c:/rtthread/env/tools/gnu_gcc/arm_gcc/mingw/bin/../lib/gcc/arm-none-eabi/5.4.1/../../../../arm-none-eabi/lib/armv7e-m/fpu\libc.a(lib_a-getenv_r.o)
                                                  c:/rtthread/env/tools/gnu_gcc/arm_gcc/mingw/bin/../lib/gcc/arm-none-eabi/5.4.1/../../../../arm-none-eabi/lib/armv7e-m/fpu\libc.a(lib_a-setenv_r.o)
_fiprintf_r                                       c:/rtthread/env/tools/gnu_gcc/arm_gcc/mingw/bin/../lib/gcc/arm-none-eabi/5.4.1/../../../../arm-none-eabi/lib/armv7e-m/fpu\libc.a(lib_a-fiprintf.o)
_fopen_r                                          c:/rtthread/env/tools/gnu_gcc/arm_gcc/mingw/bin/../lib/gcc/arm-none-eabi/5.4.1/../../../../arm-none-eabi/lib/armv7e-m/fpu\libc.a(lib_a-fopen.o)
_fork_r                                           build\kernel\components\libc\compilers\newlib\syscalls.o
_fputwc_r                                         c:/rtthread/env/tools/gnu_gcc/arm_gcc/mingw/bin/../lib/gcc/arm-none-eabi/5.4.1/../../../../arm-none-eabi/lib/armv7e-m/fpu\libc.a(lib_a-fputwc.o)
                                                  c:/rtthread/env/tools/gnu_gcc/arm_gcc/mingw/bin/../lib/gcc/arm-none-eabi/5.4.1/../../../../arm-none-eabi/lib/armv7e-m/fpu\libc.a(lib_a-vfiprintf.o)
_free_r                                           build\kernel\components\libc\compilers\newlib\syscalls.o
                                                  c:/rtthread/env/tools/gnu_gcc/arm_gcc/mingw/bin/../lib/gcc/arm-none-eabi/5.4.1/../../../../arm-none-eabi/lib/armv7e-m/fpu\libc.a(lib_a-svfiprintf.o)
                                                  c:/rtthread/env/tools/gnu_gcc/arm_gcc/mingw/bin/../lib/gcc/arm-none-eabi/5.4.1/../../../../arm-none-eabi/lib/armv7e-m/fpu\libc.a(lib_a-fvwrite.o)
                                                  c:/rtthread/env/tools/gnu_gcc/arm_gcc/mingw/bin/../lib/gcc/arm-none-eabi/5.4.1/../../../../arm-none-eabi/lib/armv7e-m/fpu\libc.a(lib_a-wsetup.o)
                                                  c:/rtthread/env/tools/gnu_gcc/arm_gcc/mingw/bin/../lib/gcc/arm-none-eabi/5.4.1/../../../../arm-none-eabi/lib/armv7e-m/fpu\libc.a(lib_a-setvbuf.o)
                                                  c:/rtthread/env/tools/gnu_gcc/arm_gcc/mingw/bin/../lib/gcc/arm-none-eabi/5.4.1/../../../../arm-none-eabi/lib/armv7e-m/fpu\libc.a(lib_a-refill.o)
                                                  c:/rtthread/env/tools/gnu_gcc/arm_gcc/mingw/bin/../lib/gcc/arm-none-eabi/5.4.1/../../../../arm-none-eabi/lib/armv7e-m/fpu\libc.a(lib_a-putenv_r.o)
                                                  c:/rtthread/env/tools/gnu_gcc/arm_gcc/mingw/bin/../lib/gcc/arm-none-eabi/5.4.1/../../../../arm-none-eabi/lib/armv7e-m/fpu\libc.a(lib_a-malloc.o)
                                                  c:/rtthread/env/tools/gnu_gcc/arm_gcc/mingw/bin/../lib/gcc/arm-none-eabi/5.4.1/../../../../arm-none-eabi/lib/armv7e-m/fpu\libc.a(lib_a-fseeko.o)
                                                  c:/rtthread/env/tools/gnu_gcc/arm_gcc/mingw/bin/../lib/gcc/arm-none-eabi/5.4.1/../../../../arm-none-eabi/lib/armv7e-m/fpu\libc.a(lib_a-fflush.o)
                                                  c:/rtthread/env/tools/gnu_gcc/arm_gcc/mingw/bin/../lib/gcc/arm-none-eabi/5.4.1/../../../../arm-none-eabi/lib/armv7e-m/fpu\libc.a(lib_a-fclose.o)
_fseek_r                                          c:/rtthread/env/tools/gnu_gcc/arm_gcc/mingw/bin/../lib/gcc/arm-none-eabi/5.4.1/../../../../arm-none-eabi/lib/armv7e-m/fpu\libc.a(lib_a-fseek.o)
                                                  c:/rtthread/env/tools/gnu_gcc/arm_gcc/mingw/bin/../lib/gcc/arm-none-eabi/5.4.1/../../../../arm-none-eabi/lib/armv7e-m/fpu\libc.a(lib_a-fopen.o)
_fseeko_r                                         c:/rtthread/env/tools/gnu_gcc/arm_gcc/mingw/bin/../lib/gcc/arm-none-eabi/5.4.1/../../../../arm-none-eabi/lib/armv7e-m/fpu\libc.a(lib_a-fseeko.o)
                                                  c:/rtthread/env/tools/gnu_gcc/arm_gcc/mingw/bin/../lib/gcc/arm-none-eabi/5.4.1/../../../../arm-none-eabi/lib/armv7e-m/fpu\libc.a(lib_a-fseek.o)
_fstat_r                                          build\kernel\components\libc\compilers\newlib\syscalls.o
                                                  c:/rtthread/env/tools/gnu_gcc/arm_gcc/mingw/bin/../lib/gcc/arm-none-eabi/5.4.1/../../../../arm-none-eabi/lib/armv7e-m/fpu\libc.a(lib_a-makebuf.o)
                                                  c:/rtthread/env/tools/gnu_gcc/arm_gcc/mingw/bin/../lib/gcc/arm-none-eabi/5.4.1/../../../../arm-none-eabi/lib/armv7e-m/fpu\libc.a(lib_a-fseeko.o)
_fwalk                                            c:/rtthread/env/tools/gnu_gcc/arm_gcc/mingw/bin/../lib/gcc/arm-none-eabi/5.4.1/../../../../arm-none-eabi/lib/armv7e-m/fpu\libc.a(lib_a-fwalk.o)
                                                  c:/rtthread/env/tools/gnu_gcc/arm_gcc/mingw/bin/../lib/gcc/arm-none-eabi/5.4.1/../../../../arm-none-eabi/lib/armv7e-m/fpu\libc.a(lib_a-refill.o)
                                                  c:/rtthread/env/tools/gnu_gcc/arm_gcc/mingw/bin/../lib/gcc/arm-none-eabi/5.4.1/../../../../arm-none-eabi/lib/armv7e-m/fpu\libc.a(lib_a-findfp.o)
_fwalk_reent                                      c:/rtthread/env/tools/gnu_gcc/arm_gcc/mingw/bin/../lib/gcc/arm-none-eabi/5.4.1/../../../../arm-none-eabi/lib/armv7e-m/fpu\libc.a(lib_a-fwalk.o)
                                                  c:/rtthread/env/tools/gnu_gcc/arm_gcc/mingw/bin/../lib/gcc/arm-none-eabi/5.4.1/../../../../arm-none-eabi/lib/armv7e-m/fpu\libc.a(lib_a-findfp.o)
                                                  c:/rtthread/env/tools/gnu_gcc/arm_gcc/mingw/bin/../lib/gcc/arm-none-eabi/5.4.1/../../../../arm-none-eabi/lib/armv7e-m/fpu\libc.a(lib_a-fflush.o)
_getenv_r                                         c:/rtthread/env/tools/gnu_gcc/arm_gcc/mingw/bin/../lib/gcc/arm-none-eabi/5.4.1/../../../../arm-none-eabi/lib/armv7e-m/fpu\libc.a(lib_a-getenv_r.o)
_getpid_r                                         build\kernel\components\libc\compilers\newlib\syscalls.o
_gettimeofday_r                                   build\kernel\components\libc\compilers\newlib\syscalls.o
_global_impure_ptr                                c:/rtthread/env/tools/gnu_gcc/arm_gcc/mingw/bin/../lib/gcc/arm-none-eabi/5.4.1/../../../../arm-none-eabi/lib/armv7e-m/fpu\libc.a(lib_a-impure.o)
                                                  c:/rtthread/env/tools/gnu_gcc/arm_gcc/mingw/bin/../lib/gcc/arm-none-eabi/5.4.1/../../../../arm-none-eabi/lib/armv7e-m/fpu\libc.a(lib_a-refill.o)
                                                  c:/rtthread/env/tools/gnu_gcc/arm_gcc/mingw/bin/../lib/gcc/arm-none-eabi/5.4.1/../../../../arm-none-eabi/lib/armv7e-m/fpu\libc.a(lib_a-findfp.o)
                                                  c:/rtthread/env/tools/gnu_gcc/arm_gcc/mingw/bin/../lib/gcc/arm-none-eabi/5.4.1/../../../../arm-none-eabi/lib/armv7e-m/fpu\libc.a(lib_a-fflush.o)
                                                  build\kernel\components\libc\compilers\newlib\stdio.o
_impure_ptr                                       c:/rtthread/env/tools/gnu_gcc/arm_gcc/mingw/bin/../lib/gcc/arm-none-eabi/5.4.1/../../../../arm-none-eabi/lib/armv7e-m/fpu\libc.a(lib_a-impure.o)
                                                  c:/rtthread/env/tools/gnu_gcc/arm_gcc/mingw/bin/../lib/gcc/arm-none-eabi/5.4.1/../../../../arm-none-eabi/lib/armv7e-m/fpu\libc.a(lib_a-wctomb_r.o)
                                                  c:/rtthread/env/tools/gnu_gcc/arm_gcc/mingw/bin/../lib/gcc/arm-none-eabi/5.4.1/../../../../arm-none-eabi/lib/armv7e-m/fpu\libc.a(lib_a-wcrtomb.o)
                                                  c:/rtthread/env/tools/gnu_gcc/arm_gcc/mingw/bin/../lib/gcc/arm-none-eabi/5.4.1/../../../../arm-none-eabi/lib/armv7e-m/fpu\libc.a(lib_a-wbuf.o)
                                                  c:/rtthread/env/tools/gnu_gcc/arm_gcc/mingw/bin/../lib/gcc/arm-none-eabi/5.4.1/../../../../arm-none-eabi/lib/armv7e-m/fpu\libc.a(lib_a-mbtowc_r.o)
                                                  c:/rtthread/env/tools/gnu_gcc/arm_gcc/mingw/bin/../lib/gcc/arm-none-eabi/5.4.1/../../../../arm-none-eabi/lib/armv7e-m/fpu\libc.a(lib_a-localeconv.o)
                                                  c:/rtthread/env/tools/gnu_gcc/arm_gcc/mingw/bin/../lib/gcc/arm-none-eabi/5.4.1/../../../../arm-none-eabi/lib/armv7e-m/fpu\libc.a(lib_a-locale.o)
                                                  c:/rtthread/env/tools/gnu_gcc/arm_gcc/mingw/bin/../lib/gcc/arm-none-eabi/5.4.1/../../../../arm-none-eabi/lib/armv7e-m/fpu\libc.a(lib_a-fputwc.o)
                                                  c:/rtthread/env/tools/gnu_gcc/arm_gcc/mingw/bin/../lib/gcc/arm-none-eabi/5.4.1/../../../../arm-none-eabi/lib/armv7e-m/fpu\libc.a(lib_a-wsetup.o)
                                                  c:/rtthread/env/tools/gnu_gcc/arm_gcc/mingw/bin/../lib/gcc/arm-none-eabi/5.4.1/../../../../arm-none-eabi/lib/armv7e-m/fpu\libc.a(lib_a-vfiprintf.o)
                                                  c:/rtthread/env/tools/gnu_gcc/arm_gcc/mingw/bin/../lib/gcc/arm-none-eabi/5.4.1/../../../../arm-none-eabi/lib/armv7e-m/fpu\libc.a(lib_a-snprintf.o)
                                                  c:/rtthread/env/tools/gnu_gcc/arm_gcc/mingw/bin/../lib/gcc/arm-none-eabi/5.4.1/../../../../arm-none-eabi/lib/armv7e-m/fpu\libc.a(lib_a-setvbuf.o)
                                                  c:/rtthread/env/tools/gnu_gcc/arm_gcc/mingw/bin/../lib/gcc/arm-none-eabi/5.4.1/../../../../arm-none-eabi/lib/armv7e-m/fpu\libc.a(lib_a-rget.o)
                                                  c:/rtthread/env/tools/gnu_gcc/arm_gcc/mingw/bin/../lib/gcc/arm-none-eabi/5.4.1/../../../../arm-none-eabi/lib/armv7e-m/fpu\libc.a(lib_a-putenv.o)
                                                  c:/rtthread/env/tools/gnu_gcc/arm_gcc/mingw/bin/../lib/gcc/arm-none-eabi/5.4.1/../../../../arm-none-eabi/lib/armv7e-m/fpu\libc.a(lib_a-malloc.o)
                                                  c:/rtthread/env/tools/gnu_gcc/arm_gcc/mingw/bin/../lib/gcc/arm-none-eabi/5.4.1/../../../../arm-none-eabi/lib/armv7e-m/fpu\libc.a(lib_a-fseeko.o)
                                                  c:/rtthread/env/tools/gnu_gcc/arm_gcc/mingw/bin/../lib/gcc/arm-none-eabi/5.4.1/../../../../arm-none-eabi/lib/armv7e-m/fpu\libc.a(lib_a-fseek.o)
                                                  c:/rtthread/env/tools/gnu_gcc/arm_gcc/mingw/bin/../lib/gcc/arm-none-eabi/5.4.1/../../../../arm-none-eabi/lib/armv7e-m/fpu\libc.a(lib_a-fopen.o)
                                                  c:/rtthread/env/tools/gnu_gcc/arm_gcc/mingw/bin/../lib/gcc/arm-none-eabi/5.4.1/../../../../arm-none-eabi/lib/armv7e-m/fpu\libc.a(lib_a-fiprintf.o)
                                                  c:/rtthread/env/tools/gnu_gcc/arm_gcc/mingw/bin/../lib/gcc/arm-none-eabi/5.4.1/../../../../arm-none-eabi/lib/armv7e-m/fpu\libc.a(lib_a-findfp.o)
                                                  c:/rtthread/env/tools/gnu_gcc/arm_gcc/mingw/bin/../lib/gcc/arm-none-eabi/5.4.1/../../../../arm-none-eabi/lib/armv7e-m/fpu\libc.a(lib_a-fileno.o)
                                                  c:/rtthread/env/tools/gnu_gcc/arm_gcc/mingw/bin/../lib/gcc/arm-none-eabi/5.4.1/../../../../arm-none-eabi/lib/armv7e-m/fpu\libc.a(lib_a-fflush.o)
                                                  c:/rtthread/env/tools/gnu_gcc/arm_gcc/mingw/bin/../lib/gcc/arm-none-eabi/5.4.1/../../../../arm-none-eabi/lib/armv7e-m/fpu\libc.a(lib_a-fclose.o)
                                                  c:/rtthread/env/tools/gnu_gcc/arm_gcc/mingw/bin/../lib/gcc/arm-none-eabi/5.4.1/../../../../arm-none-eabi/lib/armv7e-m/fpu\libc.a(lib_a-assert.o)
                                                  build\kernel\components\finsh\shell.o
_imxrt_mci_init                                   libraries\drivers\drv_sdio.o
_isatty_r                                         build\kernel\components\libc\compilers\newlib\syscalls.o
                                                  c:/rtthread/env/tools/gnu_gcc/arm_gcc/mingw/bin/../lib/gcc/arm-none-eabi/5.4.1/../../../../arm-none-eabi/lib/armv7e-m/fpu\libc.a(lib_a-makebuf.o)
_kill_r                                           build\kernel\components\libc\compilers\newlib\syscalls.o
_link_r                                           build\kernel\components\libc\compilers\newlib\syscalls.o
_localeconv_r                                     c:/rtthread/env/tools/gnu_gcc/arm_gcc/mingw/bin/../lib/gcc/arm-none-eabi/5.4.1/../../../../arm-none-eabi/lib/armv7e-m/fpu\libc.a(lib_a-localeconv.o)
                                                  c:/rtthread/env/tools/gnu_gcc/arm_gcc/mingw/bin/../lib/gcc/arm-none-eabi/5.4.1/../../../../arm-none-eabi/lib/armv7e-m/fpu\libc.a(lib_a-svfprintf.o)
_lseek_r                                          build\kernel\components\libc\compilers\newlib\syscalls.o
                                                  c:/rtthread/env/tools/gnu_gcc/arm_gcc/mingw/bin/../lib/gcc/arm-none-eabi/5.4.1/../../../../arm-none-eabi/lib/armv7e-m/fpu\libc.a(lib_a-stdio.o)
_malloc_r                                         build\kernel\components\libc\compilers\newlib\syscalls.o
                                                  c:/rtthread/env/tools/gnu_gcc/arm_gcc/mingw/bin/../lib/gcc/arm-none-eabi/5.4.1/../../../../arm-none-eabi/lib/armv7e-m/fpu\libc.a(lib_a-svfiprintf.o)
                                                  c:/rtthread/env/tools/gnu_gcc/arm_gcc/mingw/bin/../lib/gcc/arm-none-eabi/5.4.1/../../../../arm-none-eabi/lib/armv7e-m/fpu\libc.a(lib_a-fvwrite.o)
                                                  c:/rtthread/env/tools/gnu_gcc/arm_gcc/mingw/bin/../lib/gcc/arm-none-eabi/5.4.1/../../../../arm-none-eabi/lib/armv7e-m/fpu\libc.a(lib_a-svfprintf.o)
                                                  c:/rtthread/env/tools/gnu_gcc/arm_gcc/mingw/bin/../lib/gcc/arm-none-eabi/5.4.1/../../../../arm-none-eabi/lib/armv7e-m/fpu\libc.a(lib_a-strdup_r.o)
                                                  c:/rtthread/env/tools/gnu_gcc/arm_gcc/mingw/bin/../lib/gcc/arm-none-eabi/5.4.1/../../../../arm-none-eabi/lib/armv7e-m/fpu\libc.a(lib_a-setenv_r.o)
                                                  c:/rtthread/env/tools/gnu_gcc/arm_gcc/mingw/bin/../lib/gcc/arm-none-eabi/5.4.1/../../../../arm-none-eabi/lib/armv7e-m/fpu\libc.a(lib_a-malloc.o)
                                                  c:/rtthread/env/tools/gnu_gcc/arm_gcc/mingw/bin/../lib/gcc/arm-none-eabi/5.4.1/../../../../arm-none-eabi/lib/armv7e-m/fpu\libc.a(lib_a-makebuf.o)
                                                  c:/rtthread/env/tools/gnu_gcc/arm_gcc/mingw/bin/../lib/gcc/arm-none-eabi/5.4.1/../../../../arm-none-eabi/lib/armv7e-m/fpu\libc.a(lib_a-findfp.o)
_mbtowc_r                                         c:/rtthread/env/tools/gnu_gcc/arm_gcc/mingw/bin/../lib/gcc/arm-none-eabi/5.4.1/../../../../arm-none-eabi/lib/armv7e-m/fpu\libc.a(lib_a-mbtowc_r.o)
_mkdir_r                                          build\kernel\components\libc\compilers\newlib\syscalls.o
_mprec_log10                                      c:/rtthread/env/tools/gnu_gcc/arm_gcc/mingw/bin/../lib/gcc/arm-none-eabi/5.4.1/../../../../arm-none-eabi/lib/armv7e-m/fpu\libc.a(lib_a-mprec.o)
_open_r                                           build\kernel\components\libc\compilers\newlib\syscalls.o
                                                  c:/rtthread/env/tools/gnu_gcc/arm_gcc/mingw/bin/../lib/gcc/arm-none-eabi/5.4.1/../../../../arm-none-eabi/lib/armv7e-m/fpu\libc.a(lib_a-fopen.o)
_putenv_r                                         c:/rtthread/env/tools/gnu_gcc/arm_gcc/mingw/bin/../lib/gcc/arm-none-eabi/5.4.1/../../../../arm-none-eabi/lib/armv7e-m/fpu\libc.a(lib_a-putenv_r.o)
                                                  c:/rtthread/env/tools/gnu_gcc/arm_gcc/mingw/bin/../lib/gcc/arm-none-eabi/5.4.1/../../../../arm-none-eabi/lib/armv7e-m/fpu\libc.a(lib_a-putenv.o)
_read_r                                           build\kernel\components\libc\compilers\newlib\syscalls.o
                                                  c:/rtthread/env/tools/gnu_gcc/arm_gcc/mingw/bin/../lib/gcc/arm-none-eabi/5.4.1/../../../../arm-none-eabi/lib/armv7e-m/fpu\libc.a(lib_a-stdio.o)
_realloc_r                                        build\kernel\components\libc\compilers\newlib\syscalls.o
                                                  c:/rtthread/env/tools/gnu_gcc/arm_gcc/mingw/bin/../lib/gcc/arm-none-eabi/5.4.1/../../../../arm-none-eabi/lib/armv7e-m/fpu\libc.a(lib_a-svfiprintf.o)
                                                  c:/rtthread/env/tools/gnu_gcc/arm_gcc/mingw/bin/../lib/gcc/arm-none-eabi/5.4.1/../../../../arm-none-eabi/lib/armv7e-m/fpu\libc.a(lib_a-fvwrite.o)
                                                  c:/rtthread/env/tools/gnu_gcc/arm_gcc/mingw/bin/../lib/gcc/arm-none-eabi/5.4.1/../../../../arm-none-eabi/lib/armv7e-m/fpu\libc.a(lib_a-setenv_r.o)
_rename_r                                         build\kernel\components\libc\compilers\newlib\syscalls.o
_rt_errno                                         build\kernel\src\kservice.o
                                                  build\kernel\components\libc\compilers\newlib\syscalls.o
_sbrk_r                                           build\kernel\components\libc\compilers\newlib\syscalls.o
_setenv_r                                         c:/rtthread/env/tools/gnu_gcc/arm_gcc/mingw/bin/../lib/gcc/arm-none-eabi/5.4.1/../../../../arm-none-eabi/lib/armv7e-m/fpu\libc.a(lib_a-setenv_r.o)
                                                  c:/rtthread/env/tools/gnu_gcc/arm_gcc/mingw/bin/../lib/gcc/arm-none-eabi/5.4.1/../../../../arm-none-eabi/lib/armv7e-m/fpu\libc.a(lib_a-putenv_r.o)
_setlocale_r                                      c:/rtthread/env/tools/gnu_gcc/arm_gcc/mingw/bin/../lib/gcc/arm-none-eabi/5.4.1/../../../../arm-none-eabi/lib/armv7e-m/fpu\libc.a(lib_a-locale.o)
_snprintf_r                                       c:/rtthread/env/tools/gnu_gcc/arm_gcc/mingw/bin/../lib/gcc/arm-none-eabi/5.4.1/../../../../arm-none-eabi/lib/armv7e-m/fpu\libc.a(lib_a-snprintf.o)
_stat_r                                           build\kernel\components\libc\compilers\newlib\syscalls.o
_strdup_r                                         c:/rtthread/env/tools/gnu_gcc/arm_gcc/mingw/bin/../lib/gcc/arm-none-eabi/5.4.1/../../../../arm-none-eabi/lib/armv7e-m/fpu\libc.a(lib_a-strdup_r.o)
                                                  c:/rtthread/env/tools/gnu_gcc/arm_gcc/mingw/bin/../lib/gcc/arm-none-eabi/5.4.1/../../../../arm-none-eabi/lib/armv7e-m/fpu\libc.a(lib_a-putenv_r.o)
_svfiprintf_r                                     c:/rtthread/env/tools/gnu_gcc/arm_gcc/mingw/bin/../lib/gcc/arm-none-eabi/5.4.1/../../../../arm-none-eabi/lib/armv7e-m/fpu\libc.a(lib_a-svfiprintf.o)
_svfprintf_r                                      c:/rtthread/env/tools/gnu_gcc/arm_gcc/mingw/bin/../lib/gcc/arm-none-eabi/5.4.1/../../../../arm-none-eabi/lib/armv7e-m/fpu\libc.a(lib_a-svfprintf.o)
                                                  c:/rtthread/env/tools/gnu_gcc/arm_gcc/mingw/bin/../lib/gcc/arm-none-eabi/5.4.1/../../../../arm-none-eabi/lib/armv7e-m/fpu\libc.a(lib_a-snprintf.o)
_syscall_table_begin                              build\kernel\components\finsh\shell.o
                                                  build\kernel\components\finsh\msh.o
                                                  build\kernel\components\finsh\cmd.o
_syscall_table_end                                build\kernel\components\finsh\shell.o
                                                  build\kernel\components\finsh\msh.o
                                                  build\kernel\components\finsh\cmd.o
_system                                           build\kernel\components\libc\compilers\newlib\syscalls.o
_sysvar_table_begin                               build\kernel\components\finsh\shell.o
_sysvar_table_end                                 build\kernel\components\finsh\shell.o
_times_r                                          build\kernel\components\libc\compilers\newlib\syscalls.o
_timevalue                                        build\kernel\components\libc\compilers\newlib\syscalls.o
_unlink_r                                         build\kernel\components\libc\compilers\newlib\syscalls.o
_unsetenv_r                                       c:/rtthread/env/tools/gnu_gcc/arm_gcc/mingw/bin/../lib/gcc/arm-none-eabi/5.4.1/../../../../arm-none-eabi/lib/armv7e-m/fpu\libc.a(lib_a-setenv_r.o)
_vfiprintf_r                                      c:/rtthread/env/tools/gnu_gcc/arm_gcc/mingw/bin/../lib/gcc/arm-none-eabi/5.4.1/../../../../arm-none-eabi/lib/armv7e-m/fpu\libc.a(lib_a-vfiprintf.o)
                                                  c:/rtthread/env/tools/gnu_gcc/arm_gcc/mingw/bin/../lib/gcc/arm-none-eabi/5.4.1/../../../../arm-none-eabi/lib/armv7e-m/fpu\libc.a(lib_a-fiprintf.o)
_wait_r                                           build\kernel\components\libc\compilers\newlib\syscalls.o
_wcrtomb_r                                        c:/rtthread/env/tools/gnu_gcc/arm_gcc/mingw/bin/../lib/gcc/arm-none-eabi/5.4.1/../../../../arm-none-eabi/lib/armv7e-m/fpu\libc.a(lib_a-wcrtomb.o)
                                                  c:/rtthread/env/tools/gnu_gcc/arm_gcc/mingw/bin/../lib/gcc/arm-none-eabi/5.4.1/../../../../arm-none-eabi/lib/armv7e-m/fpu\libc.a(lib_a-fputwc.o)
_wctomb_r                                         c:/rtthread/env/tools/gnu_gcc/arm_gcc/mingw/bin/../lib/gcc/arm-none-eabi/5.4.1/../../../../arm-none-eabi/lib/armv7e-m/fpu\libc.a(lib_a-wctomb_r.o)
_write_r                                          build\kernel\components\libc\compilers\newlib\syscalls.o
                                                  c:/rtthread/env/tools/gnu_gcc/arm_gcc/mingw/bin/../lib/gcc/arm-none-eabi/5.4.1/../../../../arm-none-eabi/lib/armv7e-m/fpu\libc.a(lib_a-stdio.o)
abort                                             build\kernel\components\libc\compilers\newlib\syscalls.o
                                                  c:/rtthread/env/tools/gnu_gcc/arm_gcc/mingw/bin/../lib/gcc/arm-none-eabi/5.4.1/../../../../arm-none-eabi/lib/armv7e-m/fpu\libc.a(lib_a-assert.o)
access                                            build\kernel\components\dfs\src\dfs_posix.o
armPllConfig_BOARD_BootClockRUN                   build\board\MCUX_Config\clock_config.o
asctime                                           build\kernel\components\libc\compilers\common\time.o
asctime_r                                         build\kernel\components\libc\compilers\common\time.o
boot_data                                         build\xip\fsl_flexspi_nor_boot.o
cat                                               build\kernel\components\dfs\src\dfs_file.o
                                                  build\kernel\components\finsh\msh_file.o
chdir                                             build\kernel\components\dfs\src\dfs_posix.o
                                                  build\kernel\components\finsh\msh_file.o
clock                                             build\kernel\components\libc\compilers\common\time.o
clock_cpu_getres                                  build\kernel\components\drivers\cputime\cputime.o
clock_cpu_gettime                                 build\kernel\components\drivers\cputime\cputime.o
clock_cpu_microsecond                             build\kernel\components\drivers\cputime\cputime.o
clock_cpu_millisecond                             build\kernel\components\drivers\cputime\cputime.o
clock_cpu_setops                                  build\kernel\components\drivers\cputime\cputime.o
close                                             build\kernel\components\dfs\src\dfs_posix.o
                                                  build\kernel\components\libc\compilers\newlib\syscalls.o
                                                  build\kernel\components\finsh\msh_file.o
                                                  build\kernel\components\drivers\src\pipe.o
closedir                                          build\kernel\components\dfs\src\dfs_posix.o
                                                  build\kernel\components\finsh\msh_file.o
                                                  build\kernel\components\finsh\msh.o
cmd_cat                                           build\kernel\components\finsh\msh_file.o
cmd_cd                                            build\kernel\components\finsh\msh_file.o
cmd_cp                                            build\kernel\components\finsh\msh_file.o
cmd_df                                            build\kernel\components\finsh\msh_file.o
cmd_echo                                          build\kernel\components\finsh\msh_file.o
cmd_free                                          build\kernel\components\finsh\msh.o
cmd_ls                                            build\kernel\components\finsh\msh_file.o
cmd_mkdir                                         build\kernel\components\finsh\msh_file.o
cmd_mkfs                                          build\kernel\components\finsh\msh_file.o
cmd_mv                                            build\kernel\components\finsh\msh_file.o
cmd_ps                                            build\kernel\components\finsh\msh.o
cmd_pwd                                           build\kernel\components\finsh\msh_file.o
cmd_rm                                            build\kernel\components\finsh\msh_file.o
copy                                              build\kernel\components\dfs\src\dfs_file.o
                                                  build\kernel\components\finsh\msh_file.o
ctime                                             build\kernel\components\libc\compilers\common\time.o
devfs_init                                        build\kernel\components\dfs\filesystems\devfs\devfs.o
                                                  build\kernel\components\dfs\src\dfs.o
df                                                build\kernel\components\dfs\src\dfs_fs.o
                                                  build\kernel\components\finsh\msh_file.o
dfs_device_fs_close                               build\kernel\components\dfs\filesystems\devfs\devfs.o
dfs_device_fs_getdents                            build\kernel\components\dfs\filesystems\devfs\devfs.o
dfs_device_fs_ioctl                               build\kernel\components\dfs\filesystems\devfs\devfs.o
dfs_device_fs_mount                               build\kernel\components\dfs\filesystems\devfs\devfs.o
dfs_device_fs_open                                build\kernel\components\dfs\filesystems\devfs\devfs.o
dfs_device_fs_read                                build\kernel\components\dfs\filesystems\devfs\devfs.o
dfs_device_fs_stat                                build\kernel\components\dfs\filesystems\devfs\devfs.o
dfs_device_fs_write                               build\kernel\components\dfs\filesystems\devfs\devfs.o
dfs_elm_close                                     build\kernel\components\dfs\filesystems\elmfat\dfs_elm.o
dfs_elm_flush                                     build\kernel\components\dfs\filesystems\elmfat\dfs_elm.o
dfs_elm_getdents                                  build\kernel\components\dfs\filesystems\elmfat\dfs_elm.o
dfs_elm_ioctl                                     build\kernel\components\dfs\filesystems\elmfat\dfs_elm.o
dfs_elm_lseek                                     build\kernel\components\dfs\filesystems\elmfat\dfs_elm.o
dfs_elm_mkfs                                      build\kernel\components\dfs\filesystems\elmfat\dfs_elm.o
dfs_elm_mount                                     build\kernel\components\dfs\filesystems\elmfat\dfs_elm.o
dfs_elm_open                                      build\kernel\components\dfs\filesystems\elmfat\dfs_elm.o
dfs_elm_read                                      build\kernel\components\dfs\filesystems\elmfat\dfs_elm.o
dfs_elm_rename                                    build\kernel\components\dfs\filesystems\elmfat\dfs_elm.o
dfs_elm_stat                                      build\kernel\components\dfs\filesystems\elmfat\dfs_elm.o
dfs_elm_statfs                                    build\kernel\components\dfs\filesystems\elmfat\dfs_elm.o
dfs_elm_unlink                                    build\kernel\components\dfs\filesystems\elmfat\dfs_elm.o
dfs_elm_unmount                                   build\kernel\components\dfs\filesystems\elmfat\dfs_elm.o
dfs_elm_write                                     build\kernel\components\dfs\filesystems\elmfat\dfs_elm.o
dfs_fdtable_get                                   build\kernel\components\dfs\src\dfs.o
dfs_file_close                                    build\kernel\components\dfs\src\dfs_file.o
                                                  build\kernel\components\dfs\src\dfs_posix.o
                                                  build\kernel\components\dfs\src\dfs_fs.o
dfs_file_flush                                    build\kernel\components\dfs\src\dfs_file.o
                                                  build\kernel\components\dfs\src\dfs_posix.o
dfs_file_ftruncate                                build\kernel\components\dfs\src\dfs_file.o
                                                  build\kernel\components\dfs\src\dfs_posix.o
dfs_file_getdents                                 build\kernel\components\dfs\src\dfs_file.o
                                                  build\kernel\components\dfs\src\dfs_posix.o
dfs_file_ioctl                                    build\kernel\components\dfs\src\dfs_file.o
                                                  build\kernel\components\dfs\src\dfs_posix.o
dfs_file_lseek                                    build\kernel\components\dfs\src\dfs_file.o
                                                  build\kernel\components\dfs\src\dfs_posix.o
dfs_file_open                                     build\kernel\components\dfs\src\dfs_file.o
                                                  build\kernel\components\dfs\src\dfs_posix.o
                                                  build\kernel\components\dfs\src\dfs_fs.o
dfs_file_read                                     build\kernel\components\dfs\src\dfs_file.o
                                                  build\kernel\components\dfs\src\dfs_posix.o
dfs_file_rename                                   build\kernel\components\dfs\src\dfs_file.o
                                                  build\kernel\components\dfs\src\dfs_posix.o
dfs_file_stat                                     build\kernel\components\dfs\src\dfs_file.o
                                                  build\kernel\components\dfs\src\dfs_posix.o
dfs_file_unlink                                   build\kernel\components\dfs\src\dfs_file.o
                                                  build\kernel\components\dfs\src\dfs_posix.o
dfs_file_write                                    build\kernel\components\dfs\src\dfs_file.o
                                                  build\kernel\components\dfs\src\dfs_posix.o
dfs_filesystem_get_mounted_path                   build\kernel\components\dfs\src\dfs_fs.o
                                                  build\kernel\components\drivers\sdio\block_dev.o
dfs_filesystem_get_partition                      build\kernel\components\dfs\src\dfs_fs.o
                                                  build\kernel\components\drivers\usb\usbhost\class\udisk.o
                                                  build\kernel\components\drivers\sdio\block_dev.o
dfs_filesystem_lookup                             build\kernel\components\dfs\src\dfs_fs.o
                                                  build\kernel\components\dfs\src\dfs_file.o
                                                  build\kernel\components\dfs\src\dfs.o
dfs_init                                          build\kernel\components\dfs\src\dfs.o
dfs_lock                                          build\kernel\components\dfs\src\dfs.o
                                                  build\kernel\components\dfs\src\dfs_posix.o
                                                  build\kernel\components\dfs\src\dfs_fs.o
dfs_mkfs                                          build\kernel\components\dfs\src\dfs_fs.o
                                                  build\kernel\components\finsh\msh_file.o
dfs_mount                                         build\kernel\components\dfs\src\dfs_fs.o
                                                  build\kernel\components\drivers\usb\usbhost\class\udisk.o
                                                  build\kernel\components\dfs\src\dfs.o
                                                  build\applications\main.o
dfs_normalize_path                                build\kernel\components\dfs\src\dfs.o
                                                  build\kernel\components\dfs\src\dfs_posix.o
                                                  build\kernel\components\dfs\src\dfs_fs.o
                                                  build\kernel\components\dfs\src\dfs_file.o
dfs_register                                      build\kernel\components\dfs\src\dfs_fs.o
                                                  build\kernel\components\dfs\filesystems\elmfat\dfs_elm.o
                                                  build\kernel\components\dfs\filesystems\devfs\devfs.o
dfs_statfs                                        build\kernel\components\dfs\src\dfs_fs.o
                                                  build\kernel\components\dfs\src\dfs_posix.o
dfs_subdir                                        build\kernel\components\dfs\src\dfs.o
                                                  build\kernel\components\dfs\src\dfs_file.o
dfs_unlock                                        build\kernel\components\dfs\src\dfs.o
                                                  build\kernel\components\dfs\src\dfs_posix.o
                                                  build\kernel\components\dfs\src\dfs_fs.o
dfs_unmount                                       build\kernel\components\dfs\src\dfs_fs.o
                                                  build\kernel\components\drivers\usb\usbhost\class\udisk.o
                                                  build\kernel\components\drivers\sdio\block_dev.o
disk_initialize                                   build\kernel\components\dfs\filesystems\elmfat\dfs_elm.o
                                                  build\kernel\components\dfs\filesystems\elmfat\ff.o
disk_ioctl                                        build\kernel\components\dfs\filesystems\elmfat\dfs_elm.o
                                                  build\kernel\components\dfs\filesystems\elmfat\ff.o
disk_read                                         build\kernel\components\dfs\filesystems\elmfat\dfs_elm.o
                                                  build\kernel\components\dfs\filesystems\elmfat\ff.o
disk_status                                       build\kernel\components\dfs\filesystems\elmfat\dfs_elm.o
                                                  build\kernel\components\dfs\filesystems\elmfat\ff.o
disk_write                                        build\kernel\components\dfs\filesystems\elmfat\dfs_elm.o
                                                  build\kernel\components\dfs\filesystems\elmfat\ff.o
elm_get_vol                                       build\kernel\components\dfs\filesystems\elmfat\ff.o
                                                  build\kernel\components\dfs\filesystems\elmfat\dfs_elm.o
elm_init                                          build\kernel\components\dfs\filesystems\elmfat\dfs_elm.o
entry                                             build\kernel\src\components.o
                                                  libraries\MIMXRT1050\MIMXRT1052\gcc\startup_MIMXRT1052.o
environ                                           c:/rtthread/env/tools/gnu_gcc/arm_gcc/mingw/bin/../lib/gcc/arm-none-eabi/5.4.1/../../../../arm-none-eabi/lib/armv7e-m/fpu\libc.a(lib_a-environ.o)
                                                  c:/rtthread/env/tools/gnu_gcc/arm_gcc/mingw/bin/../lib/gcc/arm-none-eabi/5.4.1/../../../../arm-none-eabi/lib/armv7e-m/fpu\libc.a(lib_a-getenv_r.o)
                                                  c:/rtthread/env/tools/gnu_gcc/arm_gcc/mingw/bin/../lib/gcc/arm-none-eabi/5.4.1/../../../../arm-none-eabi/lib/armv7e-m/fpu\libc.a(lib_a-setenv_r.o)
exit                                              build\kernel\components\libc\compilers\newlib\syscalls.o
f_close                                           build\kernel\components\dfs\filesystems\elmfat\ff.o
                                                  build\kernel\components\dfs\filesystems\elmfat\dfs_elm.o
f_closedir                                        build\kernel\components\dfs\filesystems\elmfat\ff.o
f_getfree                                         build\kernel\components\dfs\filesystems\elmfat\ff.o
                                                  build\kernel\components\dfs\filesystems\elmfat\dfs_elm.o
f_lseek                                           build\kernel\components\dfs\filesystems\elmfat\ff.o
                                                  build\kernel\components\dfs\filesystems\elmfat\dfs_elm.o
f_mkdir                                           build\kernel\components\dfs\filesystems\elmfat\ff.o
                                                  build\kernel\components\dfs\filesystems\elmfat\dfs_elm.o
f_mkfs                                            build\kernel\components\dfs\filesystems\elmfat\ff.o
                                                  build\kernel\components\dfs\filesystems\elmfat\dfs_elm.o
f_mount                                           build\kernel\components\dfs\filesystems\elmfat\ff.o
                                                  build\kernel\components\dfs\filesystems\elmfat\dfs_elm.o
f_open                                            build\kernel\components\dfs\filesystems\elmfat\ff.o
                                                  build\kernel\components\dfs\filesystems\elmfat\dfs_elm.o
f_opendir                                         build\kernel\components\dfs\filesystems\elmfat\ff.o
                                                  build\kernel\components\dfs\filesystems\elmfat\dfs_elm.o
f_read                                            build\kernel\components\dfs\filesystems\elmfat\ff.o
                                                  build\kernel\components\dfs\filesystems\elmfat\dfs_elm.o
f_readdir                                         build\kernel\components\dfs\filesystems\elmfat\ff.o
                                                  build\kernel\components\dfs\filesystems\elmfat\dfs_elm.o
f_rename                                          build\kernel\components\dfs\filesystems\elmfat\ff.o
                                                  build\kernel\components\dfs\filesystems\elmfat\dfs_elm.o
f_seekdir                                         build\kernel\components\dfs\filesystems\elmfat\ff.o
                                                  build\kernel\components\dfs\filesystems\elmfat\dfs_elm.o
f_stat                                            build\kernel\components\dfs\filesystems\elmfat\ff.o
                                                  build\kernel\components\dfs\filesystems\elmfat\dfs_elm.o
f_sync                                            build\kernel\components\dfs\filesystems\elmfat\ff.o
                                                  build\kernel\components\dfs\filesystems\elmfat\dfs_elm.o
f_truncate                                        build\kernel\components\dfs\filesystems\elmfat\ff.o
                                                  build\kernel\components\dfs\filesystems\elmfat\dfs_elm.o
f_unlink                                          build\kernel\components\dfs\filesystems\elmfat\ff.o
                                                  build\kernel\components\dfs\filesystems\elmfat\dfs_elm.o
f_write                                           build\kernel\components\dfs\filesystems\elmfat\ff.o
                                                  build\kernel\components\dfs\filesystems\elmfat\dfs_elm.o
fclose                                            c:/rtthread/env/tools/gnu_gcc/arm_gcc/mingw/bin/../lib/gcc/arm-none-eabi/5.4.1/../../../../arm-none-eabi/lib/armv7e-m/fpu\libc.a(lib_a-fclose.o)
                                                  build\kernel\components\libc\compilers\newlib\stdio.o
fcntl                                             build\kernel\components\dfs\src\dfs_posix.o
fd_get                                            build\kernel\components\dfs\src\dfs.o
                                                  build\kernel\components\dfs\src\poll.o
                                                  build\kernel\components\dfs\src\dfs_posix.o
fd_is_open                                        build\kernel\components\dfs\src\dfs.o
                                                  build\kernel\components\dfs\src\dfs_file.o
fd_new                                            build\kernel\components\dfs\src\dfs.o
                                                  build\kernel\components\dfs\src\dfs_posix.o
fd_put                                            build\kernel\components\dfs\src\dfs.o
                                                  build\kernel\components\dfs\src\poll.o
                                                  build\kernel\components\dfs\src\dfs_posix.o
ff_cre_syncobj                                    build\kernel\components\dfs\filesystems\elmfat\dfs_elm.o
                                                  build\kernel\components\dfs\filesystems\elmfat\ff.o
ff_del_syncobj                                    build\kernel\components\dfs\filesystems\elmfat\dfs_elm.o
                                                  build\kernel\components\dfs\filesystems\elmfat\ff.o
ff_memalloc                                       build\kernel\components\dfs\filesystems\elmfat\dfs_elm.o
                                                  build\kernel\components\dfs\filesystems\elmfat\ff.o
ff_memfree                                        build\kernel\components\dfs\filesystems\elmfat\dfs_elm.o
                                                  build\kernel\components\dfs\filesystems\elmfat\ff.o
ff_oem2uni                                        build\kernel\components\dfs\filesystems\elmfat\ffunicode.o
                                                  build\kernel\components\dfs\filesystems\elmfat\ff.o
ff_rel_grant                                      build\kernel\components\dfs\filesystems\elmfat\dfs_elm.o
                                                  build\kernel\components\dfs\filesystems\elmfat\ff.o
ff_req_grant                                      build\kernel\components\dfs\filesystems\elmfat\dfs_elm.o
                                                  build\kernel\components\dfs\filesystems\elmfat\ff.o
ff_uni2oem                                        build\kernel\components\dfs\filesystems\elmfat\ffunicode.o
                                                  build\kernel\components\dfs\filesystems\elmfat\ff.o
ff_wtoupper                                       build\kernel\components\dfs\filesystems\elmfat\ffunicode.o
                                                  build\kernel\components\dfs\filesystems\elmfat\ff.o
fflush                                            c:/rtthread/env/tools/gnu_gcc/arm_gcc/mingw/bin/../lib/gcc/arm-none-eabi/5.4.1/../../../../arm-none-eabi/lib/armv7e-m/fpu\libc.a(lib_a-fflush.o)
                                                  c:/rtthread/env/tools/gnu_gcc/arm_gcc/mingw/bin/../lib/gcc/arm-none-eabi/5.4.1/../../../../arm-none-eabi/lib/armv7e-m/fpu\libc.a(lib_a-refill.o)
fileno                                            c:/rtthread/env/tools/gnu_gcc/arm_gcc/mingw/bin/../lib/gcc/arm-none-eabi/5.4.1/../../../../arm-none-eabi/lib/armv7e-m/fpu\libc.a(lib_a-fileno.o)
                                                  build\kernel\components\libc\compilers\newlib\stdio.o
filesystem_operation_table                        build\kernel\components\dfs\src\dfs.o
                                                  build\kernel\components\dfs\src\dfs_fs.o
filesystem_table                                  build\kernel\components\dfs\src\dfs.o
                                                  build\kernel\components\dfs\src\dfs_fs.o
finsh_get_echo                                    build\kernel\components\finsh\shell.o
finsh_get_prompt                                  build\kernel\components\finsh\shell.o
finsh_get_prompt_mode                             build\kernel\components\finsh\shell.o
finsh_set_echo                                    build\kernel\components\finsh\shell.o
finsh_set_prompt                                  build\kernel\components\finsh\shell.o
finsh_set_prompt_mode                             build\kernel\components\finsh\shell.o
finsh_system_function_init                        build\kernel\components\finsh\shell.o
finsh_system_init                                 build\kernel\components\finsh\shell.o
finsh_system_var_init                             build\kernel\components\finsh\shell.o
finsh_thread_entry                                build\kernel\components\finsh\shell.o
fiprintf                                          c:/rtthread/env/tools/gnu_gcc/arm_gcc/mingw/bin/../lib/gcc/arm-none-eabi/5.4.1/../../../../arm-none-eabi/lib/armv7e-m/fpu\libc.a(lib_a-fiprintf.o)
                                                  c:/rtthread/env/tools/gnu_gcc/arm_gcc/mingw/bin/../lib/gcc/arm-none-eabi/5.4.1/../../../../arm-none-eabi/lib/armv7e-m/fpu\libc.a(lib_a-assert.o)
flock                                             build\kernel\components\libc\compilers\newlib\syscalls.o
fopen                                             c:/rtthread/env/tools/gnu_gcc/arm_gcc/mingw/bin/../lib/gcc/arm-none-eabi/5.4.1/../../../../arm-none-eabi/lib/armv7e-m/fpu\libc.a(lib_a-fopen.o)
                                                  build\kernel\components\libc\compilers\newlib\stdio.o
fputwc                                            c:/rtthread/env/tools/gnu_gcc/arm_gcc/mingw/bin/../lib/gcc/arm-none-eabi/5.4.1/../../../../arm-none-eabi/lib/armv7e-m/fpu\libc.a(lib_a-fputwc.o)
free                                              c:/rtthread/env/tools/gnu_gcc/arm_gcc/mingw/bin/../lib/gcc/arm-none-eabi/5.4.1/../../../../arm-none-eabi/lib/armv7e-m/fpu\libc.a(lib_a-malloc.o)
                                                  libraries\MIMXRT1050\MIMXRT1052\drivers\fsl_common.o
fseek                                             c:/rtthread/env/tools/gnu_gcc/arm_gcc/mingw/bin/../lib/gcc/arm-none-eabi/5.4.1/../../../../arm-none-eabi/lib/armv7e-m/fpu\libc.a(lib_a-fseek.o)
fseeko                                            c:/rtthread/env/tools/gnu_gcc/arm_gcc/mingw/bin/../lib/gcc/arm-none-eabi/5.4.1/../../../../arm-none-eabi/lib/armv7e-m/fpu\libc.a(lib_a-fseeko.o)
fstat                                             build\kernel\components\dfs\src\dfs_posix.o
fsync                                             build\kernel\components\dfs\src\dfs_posix.o
ftruncate                                         build\kernel\components\dfs\src\dfs_posix.o
gUseRtos_c                                        libraries\MIMXRT1050\MIMXRT1052\drivers\fsl_os_abstraction_rtthread.o
g_UsbHostInstance                                 libraries\drivers\usb\host\usb_host_hci.o
                                                  libraries\drivers\usb\host\usb_host_devices.o
g_rtcXtalFreq                                     libraries\MIMXRT1050\MIMXRT1052\drivers\fsl_clock.o
                                                  build\board\MCUX_Config\clock_config.o
g_usdhcAdma2Table                                 libraries\drivers\drv_sdio.o
g_xtalFreq                                        libraries\MIMXRT1050\MIMXRT1052\drivers\fsl_clock.o
                                                  libraries\drivers\drv_uart.o
                                                  build\board\MCUX_Config\clock_config.o
get_fattime                                       build\kernel\components\dfs\filesystems\elmfat\dfs_elm.o
                                                  build\kernel\components\dfs\filesystems\elmfat\ff.o
getcwd                                            build\kernel\components\dfs\src\dfs_posix.o
                                                  build\kernel\components\finsh\msh.o
                                                  build\kernel\components\finsh\shell.o
gettimeofday                                      build\kernel\components\libc\compilers\common\time.o
getuid                                            build\kernel\components\libc\compilers\newlib\syscalls.o
gmtime                                            build\kernel\components\libc\compilers\common\time.o
gmtime_r                                          build\kernel\components\libc\compilers\common\time.o
heap_end                                          build\board\board.o
heap_start                                        build\board\board.o
hello                                             build\kernel\components\finsh\cmd.o
image_vector_table                                build\xip\fsl_flexspi_nor_boot.o
imxrt_mci_init                                    libraries\drivers\drv_sdio.o
imxrt_usbh_register                               libraries\drivers\drv_usbh.o
init_mmc                                          build\kernel\components\drivers\sdio\mmc.o
                                                  build\kernel\components\drivers\sdio\mmcsd_core.o
init_sd                                           build\kernel\components\drivers\sdio\sd.o
                                                  build\kernel\components\drivers\sdio\mmcsd_core.o
init_sdio                                         build\kernel\components\drivers\sdio\sdio.o
                                                  build\kernel\components\drivers\sdio\mmcsd_core.o
ioctl                                             build\kernel\components\dfs\src\dfs_posix.o
libc_get_time                                     build\kernel\components\libc\compilers\newlib\syscalls.o
libc_stdio_get_console                            build\kernel\components\libc\compilers\newlib\stdio.o
                                                  build\kernel\components\dfs\src\dfs.o
libc_stdio_set_console                            build\kernel\components\libc\compilers\newlib\stdio.o
                                                  build\kernel\components\libc\compilers\newlib\libc.o
libc_system_init                                  build\kernel\components\libc\compilers\newlib\libc.o
list                                              build\kernel\components\finsh\cmd.o
list_device                                       build\kernel\components\finsh\cmd.o
list_event                                        build\kernel\components\finsh\cmd.o
list_fd                                           build\kernel\components\dfs\src\dfs.o
list_mailbox                                      build\kernel\components\finsh\cmd.o
list_memheap                                      build\kernel\components\finsh\cmd.o
                                                  build\kernel\components\finsh\msh.o
list_mempool                                      build\kernel\components\finsh\cmd.o
list_msgqueue                                     build\kernel\components\finsh\cmd.o
list_mutex                                        build\kernel\components\finsh\cmd.o
list_sem                                          build\kernel\components\finsh\cmd.o
list_thread                                       build\kernel\components\finsh\cmd.o
                                                  build\kernel\components\finsh\msh.o
                                                  build\kernel\libcpu\arm\cortex-m7\cpuport.o
list_timer                                        build\kernel\components\finsh\cmd.o
localeconv                                        c:/rtthread/env/tools/gnu_gcc/arm_gcc/mingw/bin/../lib/gcc/arm-none-eabi/5.4.1/../../../../arm-none-eabi/lib/armv7e-m/fpu\libc.a(lib_a-localeconv.o)
localtime                                         build\kernel\components\libc\compilers\common\time.o
                                                  build\kernel\components\dfs\filesystems\elmfat\dfs_elm.o
localtime_r                                       build\kernel\components\libc\compilers\common\time.o
ls                                                build\kernel\components\dfs\src\dfs_file.o
                                                  build\kernel\components\finsh\msh_file.o
lseek                                             build\kernel\components\dfs\src\dfs_posix.o
                                                  build\kernel\components\libc\compilers\newlib\syscalls.o
main                                              build\applications\main.o
                                                  build\kernel\src\components.o
main_task                                         libraries\MIMXRT1050\MIMXRT1052\drivers\fsl_os_abstraction_rtthread.o
main_thread_entry                                 build\kernel\src\components.o
malloc                                            c:/rtthread/env/tools/gnu_gcc/arm_gcc/mingw/bin/../lib/gcc/arm-none-eabi/5.4.1/../../../../arm-none-eabi/lib/armv7e-m/fpu\libc.a(lib_a-malloc.o)
                                                  c:/rtthread/env/tools/gnu_gcc/arm_gcc/mingw/bin/../lib/gcc/arm-none-eabi/5.4.1/../../../../arm-none-eabi/lib/armv7e-m/fpu\libc.a(lib_a-setvbuf.o)
                                                  libraries\MIMXRT1050\MIMXRT1052\drivers\fsl_common.o
mask_tab                                          libraries\drivers\drv_gpio.o
memchr                                            c:/rtthread/env/tools/gnu_gcc/arm_gcc/mingw/bin/../lib/gcc/arm-none-eabi/5.4.1/../../../../arm-none-eabi/lib/armv7e-m/fpu\libc.a(lib_a-memchr.o)
                                                  c:/rtthread/env/tools/gnu_gcc/arm_gcc/mingw/bin/../lib/gcc/arm-none-eabi/5.4.1/../../../../arm-none-eabi/lib/armv7e-m/fpu\libc.a(lib_a-svfiprintf.o)
                                                  c:/rtthread/env/tools/gnu_gcc/arm_gcc/mingw/bin/../lib/gcc/arm-none-eabi/5.4.1/../../../../arm-none-eabi/lib/armv7e-m/fpu\libc.a(lib_a-fvwrite.o)
                                                  c:/rtthread/env/tools/gnu_gcc/arm_gcc/mingw/bin/../lib/gcc/arm-none-eabi/5.4.1/../../../../arm-none-eabi/lib/armv7e-m/fpu\libc.a(lib_a-vfiprintf.o)
                                                  c:/rtthread/env/tools/gnu_gcc/arm_gcc/mingw/bin/../lib/gcc/arm-none-eabi/5.4.1/../../../../arm-none-eabi/lib/armv7e-m/fpu\libc.a(lib_a-svfprintf.o)
                                                  c:/rtthread/env/tools/gnu_gcc/arm_gcc/mingw/bin/../lib/gcc/arm-none-eabi/5.4.1/../../../../arm-none-eabi/lib/armv7e-m/fpu\libc.a(lib_a-strstr.o)
memcmp                                            c:/rtthread/env/tools/gnu_gcc/arm_gcc/mingw/bin/../lib/gcc/arm-none-eabi/5.4.1/../../../../arm-none-eabi/lib/armv7e-m/fpu\libc.a(lib_a-memcmp.o)
                                                  c:/rtthread/env/tools/gnu_gcc/arm_gcc/mingw/bin/../lib/gcc/arm-none-eabi/5.4.1/../../../../arm-none-eabi/lib/armv7e-m/fpu\libc.a(lib_a-strstr.o)
                                                  build\kernel\components\finsh\shell.o
memcpy                                            c:/rtthread/env/tools/gnu_gcc/arm_gcc/mingw/bin/../lib/gcc/arm-none-eabi/5.4.1/../../../../arm-none-eabi/lib/armv7e-m/fpu\libc.a(lib_a-memcpy.o)
                                                  c:/rtthread/env/tools/gnu_gcc/arm_gcc/mingw/bin/../lib/gcc/arm-none-eabi/5.4.1/../../../../arm-none-eabi/lib/armv7e-m/fpu\libc.a(lib_a-svfiprintf.o)
                                                  c:/rtthread/env/tools/gnu_gcc/arm_gcc/mingw/bin/../lib/gcc/arm-none-eabi/5.4.1/../../../../arm-none-eabi/lib/armv7e-m/fpu\libc.a(lib_a-mprec.o)
                                                  c:/rtthread/env/tools/gnu_gcc/arm_gcc/mingw/bin/../lib/gcc/arm-none-eabi/5.4.1/../../../../arm-none-eabi/lib/armv7e-m/fpu\libc.a(lib_a-fvwrite.o)
                                                  c:/rtthread/env/tools/gnu_gcc/arm_gcc/mingw/bin/../lib/gcc/arm-none-eabi/5.4.1/../../../../arm-none-eabi/lib/armv7e-m/fpu\libc.a(lib_a-dtoa.o)
                                                  c:/rtthread/env/tools/gnu_gcc/arm_gcc/mingw/bin/../lib/gcc/arm-none-eabi/5.4.1/../../../../arm-none-eabi/lib/armv7e-m/fpu\libc.a(lib_a-strdup_r.o)
                                                  c:/rtthread/env/tools/gnu_gcc/arm_gcc/mingw/bin/../lib/gcc/arm-none-eabi/5.4.1/../../../../arm-none-eabi/lib/armv7e-m/fpu\libc.a(lib_a-setenv_r.o)
                                                  build\kernel\components\finsh\msh_file.o
                                                  build\kernel\components\finsh\msh.o
                                                  build\kernel\components\finsh\cmd.o
                                                  build\kernel\components\finsh\shell.o
                                                  build\kernel\components\drivers\src\ringbuffer.o
                                                  build\kernel\components\dfs\filesystems\elmfat\dfs_elm.o
memmove                                           c:/rtthread/env/tools/gnu_gcc/arm_gcc/mingw/bin/../lib/gcc/arm-none-eabi/5.4.1/../../../../arm-none-eabi/lib/armv7e-m/fpu\libc.a(lib_a-memmove.o)
                                                  c:/rtthread/env/tools/gnu_gcc/arm_gcc/mingw/bin/../lib/gcc/arm-none-eabi/5.4.1/../../../../arm-none-eabi/lib/armv7e-m/fpu\libc.a(lib_a-svfiprintf.o)
                                                  c:/rtthread/env/tools/gnu_gcc/arm_gcc/mingw/bin/../lib/gcc/arm-none-eabi/5.4.1/../../../../arm-none-eabi/lib/armv7e-m/fpu\libc.a(lib_a-fvwrite.o)
memset                                            c:/rtthread/env/tools/gnu_gcc/arm_gcc/mingw/bin/../lib/gcc/arm-none-eabi/5.4.1/../../../../arm-none-eabi/lib/armv7e-m/fpu\libc.a(lib_a-memset.o)
                                                  c:/rtthread/env/tools/gnu_gcc/arm_gcc/mingw/bin/../lib/gcc/arm-none-eabi/5.4.1/../../../../arm-none-eabi/lib/armv7e-m/fpu\libc.a(lib_a-fseeko.o)
                                                  c:/rtthread/env/tools/gnu_gcc/arm_gcc/mingw/bin/../lib/gcc/arm-none-eabi/5.4.1/../../../../arm-none-eabi/lib/armv7e-m/fpu\libc.a(lib_a-findfp.o)
                                                  libraries\drivers\drv_sdio.o
                                                  libraries\MIMXRT1050\MIMXRT1052\drivers\fsl_enc.o
                                                  libraries\MIMXRT1050\MIMXRT1052\drivers\fsl_usdhc.o
                                                  libraries\MIMXRT1050\MIMXRT1052\drivers\fsl_lpuart.o
                                                  build\kernel\components\finsh\msh.o
                                                  build\kernel\components\finsh\shell.o
                                                  build\kernel\components\drivers\sdio\mmc.o
                                                  build\kernel\components\drivers\sdio\sd.o
                                                  build\kernel\components\dfs\filesystems\elmfat\dfs_elm.o
                                                  build\kernel\components\dfs\src\dfs_posix.o
                                                  build\kernel\components\dfs\src\dfs_fs.o
                                                  build\kernel\components\dfs\src\dfs_file.o
                                                  build\kernel\components\dfs\src\dfs.o
mkdir                                             build\kernel\components\dfs\src\dfs_posix.o
                                                  build\kernel\components\libc\compilers\newlib\syscalls.o
                                                  build\kernel\components\finsh\msh_file.o
                                                  build\kernel\components\dfs\src\dfs_file.o
mkfifo                                            build\kernel\components\drivers\src\pipe.o
mkfs                                              build\kernel\components\dfs\src\dfs_fs.o
mktime                                            build\kernel\components\libc\compilers\common\time.o
                                                  build\kernel\components\dfs\filesystems\elmfat\dfs_elm.o
mmc_send_op_cond                                  build\kernel\components\drivers\sdio\mmc.o
                                                  build\kernel\components\drivers\sdio\mmcsd_core.o
mmcsd_all_get_cid                                 build\kernel\components\drivers\sdio\mmcsd_core.o
                                                  build\kernel\components\drivers\sdio\mmc.o
                                                  build\kernel\components\drivers\sdio\sd.o
mmcsd_alloc_host                                  build\kernel\components\drivers\sdio\mmcsd_core.o
                                                  libraries\drivers\drv_sdio.o
mmcsd_app_set_bus_width                           build\kernel\components\drivers\sdio\sd.o
mmcsd_change                                      build\kernel\components\drivers\sdio\mmcsd_core.o
                                                  libraries\drivers\drv_sdio.o
mmcsd_deselect_cards                              build\kernel\components\drivers\sdio\mmcsd_core.o
mmcsd_detect                                      build\kernel\components\drivers\sdio\mmcsd_core.o
mmcsd_free_host                                   build\kernel\components\drivers\sdio\mmcsd_core.o
                                                  libraries\drivers\drv_sdio.o
mmcsd_get_card_addr                               build\kernel\components\drivers\sdio\sd.o
                                                  build\kernel\components\drivers\sdio\sdio.o
mmcsd_get_cid                                     build\kernel\components\drivers\sdio\mmcsd_core.o
                                                  build\kernel\components\drivers\sdio\mmc.o
                                                  build\kernel\components\drivers\sdio\sd.o
mmcsd_get_csd                                     build\kernel\components\drivers\sdio\mmcsd_core.o
                                                  build\kernel\components\drivers\sdio\mmc.o
                                                  build\kernel\components\drivers\sdio\sd.o
mmcsd_get_scr                                     build\kernel\components\drivers\sdio\sd.o
mmcsd_go_idle                                     build\kernel\components\drivers\sdio\mmcsd_core.o
                                                  build\kernel\components\drivers\sdio\mmc.o
                                                  build\kernel\components\drivers\sdio\sd.o
mmcsd_host_lock                                   build\kernel\components\drivers\sdio\mmcsd_core.o
                                                  build\kernel\components\drivers\sdio\mmc.o
                                                  build\kernel\components\drivers\sdio\sdio.o
                                                  build\kernel\components\drivers\sdio\sd.o
                                                  build\kernel\components\drivers\sdio\block_dev.o
mmcsd_host_unlock                                 build\kernel\components\drivers\sdio\mmcsd_core.o
                                                  build\kernel\components\drivers\sdio\mmc.o
                                                  build\kernel\components\drivers\sdio\sdio.o
                                                  build\kernel\components\drivers\sdio\sd.o
                                                  build\kernel\components\drivers\sdio\block_dev.o
mmcsd_num_wr_blocks                               build\kernel\components\drivers\sdio\block_dev.o
mmcsd_req_complete                                build\kernel\components\drivers\sdio\mmcsd_core.o
                                                  libraries\drivers\drv_sdio.o
mmcsd_select_card                                 build\kernel\components\drivers\sdio\mmcsd_core.o
                                                  build\kernel\components\drivers\sdio\mmc.o
                                                  build\kernel\components\drivers\sdio\sdio.o
                                                  build\kernel\components\drivers\sdio\sd.o
mmcsd_select_voltage                              build\kernel\components\drivers\sdio\mmcsd_core.o
                                                  build\kernel\components\drivers\sdio\mmc.o
                                                  build\kernel\components\drivers\sdio\sdio.o
                                                  build\kernel\components\drivers\sdio\sd.o
mmcsd_send_app_cmd                                build\kernel\components\drivers\sdio\sd.o
mmcsd_send_app_op_cond                            build\kernel\components\drivers\sdio\sd.o
                                                  build\kernel\components\drivers\sdio\mmcsd_core.o
mmcsd_send_cmd                                    build\kernel\components\drivers\sdio\mmcsd_core.o
                                                  build\kernel\components\drivers\sdio\mmc.o
                                                  build\kernel\components\drivers\sdio\sdio.o
                                                  build\kernel\components\drivers\sdio\sd.o
                                                  build\kernel\components\drivers\sdio\block_dev.o
mmcsd_send_if_cond                                build\kernel\components\drivers\sdio\sd.o
                                                  build\kernel\components\drivers\sdio\mmcsd_core.o
mmcsd_send_request                                build\kernel\components\drivers\sdio\mmcsd_core.o
                                                  build\kernel\components\drivers\sdio\mmc.o
                                                  build\kernel\components\drivers\sdio\sdio.o
                                                  build\kernel\components\drivers\sdio\sd.o
                                                  build\kernel\components\drivers\sdio\block_dev.o
mmcsd_set_bus_mode                                build\kernel\components\drivers\sdio\mmcsd_core.o
                                                  build\kernel\components\drivers\sdio\mmc.o
                                                  build\kernel\components\drivers\sdio\sdio.o
                                                  build\kernel\components\drivers\sdio\sd.o
mmcsd_set_bus_width                               build\kernel\components\drivers\sdio\mmcsd_core.o
                                                  build\kernel\components\drivers\sdio\mmc.o
                                                  build\kernel\components\drivers\sdio\sdio.o
                                                  build\kernel\components\drivers\sdio\sd.o
mmcsd_set_chip_select                             build\kernel\components\drivers\sdio\mmcsd_core.o
mmcsd_set_clock                                   build\kernel\components\drivers\sdio\mmcsd_core.o
                                                  build\kernel\components\drivers\sdio\mmc.o
                                                  build\kernel\components\drivers\sdio\sdio.o
                                                  build\kernel\components\drivers\sdio\sd.o
mmcsd_set_data_timeout                            build\kernel\components\drivers\sdio\mmcsd_core.o
                                                  build\kernel\components\drivers\sdio\sdio.o
                                                  build\kernel\components\drivers\sdio\sd.o
                                                  build\kernel\components\drivers\sdio\block_dev.o
mmcsd_spi_read_ocr                                build\kernel\components\drivers\sdio\mmcsd_core.o
                                                  build\kernel\components\drivers\sdio\mmc.o
                                                  build\kernel\components\drivers\sdio\sd.o
mmcsd_spi_use_crc                                 build\kernel\components\drivers\sdio\mmcsd_core.o
                                                  build\kernel\components\drivers\sdio\mmc.o
                                                  build\kernel\components\drivers\sdio\sdio.o
                                                  build\kernel\components\drivers\sdio\sd.o
mmcsd_wait_cd_changed                             build\kernel\components\drivers\sdio\mmcsd_core.o
mouse_task                                        build\kernel\components\drivers\usb\usbhost\class\umouse.o
mouse_thread                                      build\kernel\components\drivers\usb\usbhost\class\umouse.o
msh_auto_complete                                 build\kernel\components\finsh\msh.o
                                                  build\kernel\components\finsh\shell.o
msh_auto_complete_path                            build\kernel\components\finsh\msh.o
msh_exec                                          build\kernel\components\finsh\msh.o
                                                  build\kernel\components\finsh\msh_file.o
                                                  build\kernel\components\finsh\shell.o
msh_exec_script                                   build\kernel\components\finsh\msh_file.o
                                                  build\kernel\components\finsh\msh.o
msh_help                                          build\kernel\components\finsh\msh.o
msh_is_used                                       build\kernel\components\finsh\msh.o
                                                  build\kernel\components\finsh\shell.o
open                                              build\kernel\components\dfs\src\dfs_posix.o
                                                  build\kernel\components\libc\compilers\newlib\syscalls.o
                                                  build\kernel\components\finsh\msh_file.o
                                                  build\kernel\components\drivers\src\pipe.o
opendir                                           build\kernel\components\dfs\src\dfs_posix.o
                                                  build\kernel\components\finsh\msh_file.o
                                                  build\kernel\components\finsh\msh.o
pipe                                              build\kernel\components\drivers\src\pipe.o
poll                                              build\kernel\components\dfs\src\poll.o
                                                  build\kernel\components\dfs\src\select.o
pulse_encoder_clear_count                         libraries\drivers\drv_pulse_encoder.o
pulse_encoder_control                             libraries\drivers\drv_pulse_encoder.o
pulse_encoder_get_count                           libraries\drivers\drv_pulse_encoder.o
pulse_encoder_init                                libraries\drivers\drv_pulse_encoder.o
putenv                                            c:/rtthread/env/tools/gnu_gcc/arm_gcc/mingw/bin/../lib/gcc/arm-none-eabi/5.4.1/../../../../arm-none-eabi/lib/armv7e-m/fpu\libc.a(lib_a-putenv.o)
                                                  build\kernel\components\libc\compilers\newlib\libc.o
qspiflash_config                                  build\xip\fsl_flexspi_nor_config.o
read                                              build\kernel\components\dfs\src\dfs_posix.o
                                                  build\kernel\components\libc\compilers\newlib\syscalls.o
                                                  build\kernel\components\finsh\msh_file.o
readdir                                           build\kernel\components\dfs\src\dfs_posix.o
                                                  build\kernel\components\finsh\msh_file.o
                                                  build\kernel\components\finsh\msh.o
reg_offset                                        libraries\drivers\drv_gpio.o
rename                                            build\kernel\components\dfs\src\dfs_posix.o
                                                  build\kernel\components\libc\compilers\newlib\syscalls.o
                                                  build\kernel\components\finsh\msh_file.o
rewinddir                                         build\kernel\components\dfs\src\dfs_posix.o
                                                  build\kernel\components\finsh\msh.o
rm                                                build\kernel\components\dfs\src\dfs_file.o
rmdir                                             build\kernel\components\dfs\src\dfs_posix.o
rt_application_init                               build\kernel\src\components.o
rt_assert_handler                                 build\kernel\src\kservice.o
                                                  libraries\drivers\drv_sdio.o
                                                  libraries\drivers\drv_uart.o
                                                  build\kernel\components\libc\compilers\newlib\syscalls.o
                                                  build\kernel\components\libc\compilers\common\time.o
                                                  build\kernel\components\finsh\msh.o
                                                  build\kernel\components\finsh\shell.o
                                                  build\kernel\components\drivers\usb\usbhost\class\umouse.o
                                                  build\kernel\components\drivers\usb\usbhost\class\hid.o
                                                  build\kernel\components\drivers\usb\usbhost\class\udisk.o
                                                  build\kernel\components\drivers\usb\usbhost\class\mass.o
                                                  build\kernel\components\drivers\usb\usbhost\core\hub.o
                                                  build\kernel\components\drivers\usb\usbhost\core\driver.o
                                                  build\kernel\components\drivers\usb\usbhost\core\usbhost_core.o
                                                  build\kernel\components\drivers\src\workqueue.o
                                                  build\kernel\components\drivers\src\waitqueue.o
                                                  build\kernel\components\drivers\src\ringbuffer.o
                                                  build\kernel\components\drivers\src\ringblk_buf.o
                                                  build\kernel\components\drivers\src\pipe.o
                                                  build\kernel\components\drivers\src\dataqueue.o
                                                  build\kernel\components\drivers\src\completion.o
                                                  build\kernel\components\drivers\serial\serial.o
                                                  build\kernel\components\drivers\sdio\sdio.o
                                                  build\kernel\components\drivers\sdio\mmcsd_core.o
                                                  build\kernel\components\drivers\misc\pulse_encoder.o
                                                  build\kernel\components\drivers\misc\pin.o
                                                  build\kernel\components\drivers\cputime\cputime.o
                                                  build\kernel\components\dfs\filesystems\elmfat\dfs_elm.o
                                                  build\kernel\components\dfs\filesystems\devfs\devfs.o
                                                  build\kernel\components\dfs\src\select.o
                                                  build\kernel\components\dfs\src\dfs_fs.o
                                                  build\kernel\components\dfs\src\dfs.o
                                                  build\kernel\libcpu\arm\cortex-m7\cpuport.o
                                                  build\kernel\libcpu\arm\cortex-m7\cpu_cache.o
                                                  build\kernel\libcpu\arm\common\showmem.o
                                                  build\kernel\src\timer.o
                                                  build\kernel\src\thread.o
                                                  build\kernel\src\scheduler.o
                                                  build\kernel\src\object.o
                                                  build\kernel\src\mempool.o
                                                  build\kernel\src\memheap.o
                                                  build\kernel\src\ipc.o
                                                  build\kernel\src\idle.o
                                                  build\kernel\src\device.o
                                                  build\kernel\src\components.o
rt_assert_hook                                    build\kernel\src\kservice.o
rt_assert_set_hook                                build\kernel\src\kservice.o
rt_calloc                                         build\kernel\src\memheap.o
                                                  build\kernel\components\libc\compilers\newlib\syscalls.o
                                                  build\kernel\components\finsh\shell.o
                                                  build\kernel\components\drivers\sdio\block_dev.o
                                                  build\kernel\components\dfs\src\select.o
                                                  build\kernel\components\dfs\src\dfs.o
rt_completion_done                                build\kernel\components\drivers\src\completion.o
                                                  libraries\drivers\drv_usbh.o
                                                  build\kernel\components\drivers\serial\serial.o
rt_completion_init                                build\kernel\components\drivers\src\completion.o
                                                  libraries\drivers\drv_usbh.o
                                                  build\kernel\components\drivers\serial\serial.o
rt_completion_wait                                build\kernel\components\drivers\src\completion.o
                                                  libraries\drivers\drv_usbh.o
                                                  build\kernel\components\drivers\serial\serial.o
rt_components_board_init                          build\kernel\src\components.o
                                                  build\board\board.o
rt_components_init                                build\kernel\src\components.o
rt_console_get_device                             build\kernel\src\kservice.o
                                                  build\kernel\components\libc\compilers\newlib\libc.o
rt_console_set_device                             build\kernel\src\kservice.o
                                                  build\board\board.o
rt_critical_level                                 build\kernel\src\scheduler.o
rt_current_priority                               build\kernel\src\scheduler.o
rt_current_thread                                 build\kernel\src\scheduler.o
                                                  build\kernel\src\thread.o
rt_data_queue_deinit                              build\kernel\components\drivers\src\dataqueue.o
                                                  build\kernel\components\drivers\serial\serial.o
rt_data_queue_init                                build\kernel\components\drivers\src\dataqueue.o
                                                  build\kernel\components\drivers\serial\serial.o
rt_data_queue_len                                 build\kernel\components\drivers\src\dataqueue.o
rt_data_queue_peek                                build\kernel\components\drivers\src\dataqueue.o
                                                  build\kernel\components\drivers\serial\serial.o
rt_data_queue_pop                                 build\kernel\components\drivers\src\dataqueue.o
                                                  build\kernel\components\drivers\serial\serial.o
rt_data_queue_push                                build\kernel\components\drivers\src\dataqueue.o
                                                  build\kernel\components\drivers\serial\serial.o
rt_data_queue_reset                               build\kernel\components\drivers\src\dataqueue.o
rt_delayed_work_init                              build\kernel\components\drivers\src\workqueue.o
rt_device_close                                   build\kernel\src\device.o
                                                  build\kernel\components\drivers\serial\serial.o
                                                  build\kernel\components\dfs\filesystems\elmfat\dfs_elm.o
                                                  build\kernel\components\dfs\filesystems\devfs\devfs.o
                                                  build\kernel\components\dfs\src\dfs_fs.o
                                                  build\kernel\src\kservice.o
                                                  build\applications\main.o
rt_device_control                                 build\kernel\src\device.o
                                                  build\kernel\components\libc\compilers\newlib\syscalls.o
                                                  build\kernel\components\libc\compilers\common\time.o
                                                  build\kernel\components\drivers\serial\serial.o
                                                  build\kernel\components\dfs\filesystems\elmfat\dfs_elm.o
                                                  build\kernel\components\dfs\filesystems\devfs\devfs.o
                                                  build\applications\main.o
rt_device_create                                  build\kernel\src\device.o
rt_device_destroy                                 build\kernel\src\device.o
rt_device_find                                    build\kernel\src\device.o
                                                  build\kernel\components\libc\compilers\newlib\syscalls.o
                                                  build\kernel\components\libc\compilers\common\time.o
                                                  build\kernel\components\drivers\usb\usbhost\core\usbhost.o
                                                  build\kernel\components\drivers\src\pipe.o
                                                  build\kernel\components\dfs\filesystems\devfs\devfs.o
                                                  build\kernel\components\dfs\src\dfs_fs.o
                                                  build\kernel\src\kservice.o
                                                  build\applications\main.o
rt_device_init                                    build\kernel\src\device.o
                                                  build\kernel\components\drivers\usb\usbhost\core\usbhost.o
rt_device_init_all                                build\kernel\src\device.o
rt_device_open                                    build\kernel\src\device.o
                                                  build\kernel\components\drivers\serial\serial.o
                                                  build\kernel\components\dfs\filesystems\elmfat\dfs_elm.o
                                                  build\kernel\components\dfs\filesystems\devfs\devfs.o
                                                  build\kernel\components\dfs\src\dfs_fs.o
                                                  build\kernel\src\kservice.o
                                                  build\applications\main.o
rt_device_pin_register                            build\kernel\components\drivers\misc\pin.o
                                                  libraries\drivers\drv_gpio.o
rt_device_pulse_encoder_register                  build\kernel\components\drivers\misc\pulse_encoder.o
                                                  libraries\drivers\drv_pulse_encoder.o
rt_device_read                                    build\kernel\src\device.o
                                                  build\kernel\components\drivers\serial\serial.o
                                                  build\kernel\components\dfs\filesystems\elmfat\dfs_elm.o
                                                  build\kernel\components\dfs\filesystems\devfs\devfs.o
                                                  build\applications\main.o
rt_device_register                                build\kernel\src\device.o
                                                  libraries\drivers\drv_usbh.o
                                                  build\kernel\components\drivers\usb\usbhost\class\udisk.o
                                                  build\kernel\components\drivers\src\pipe.o
                                                  build\kernel\components\drivers\serial\serial.o
                                                  build\kernel\components\drivers\sdio\block_dev.o
                                                  build\kernel\components\drivers\misc\pulse_encoder.o
                                                  build\kernel\components\drivers\misc\pin.o
rt_device_set_rx_indicate                         build\kernel\src\device.o
                                                  build\kernel\components\drivers\serial\serial.o
rt_device_set_tx_complete                         build\kernel\src\device.o
rt_device_unregister                              build\kernel\src\device.o
                                                  build\kernel\components\drivers\usb\usbhost\class\udisk.o
                                                  build\kernel\components\drivers\src\pipe.o
                                                  build\kernel\components\drivers\sdio\block_dev.o
rt_device_write                                   build\kernel\src\device.o
                                                  build\kernel\components\drivers\serial\serial.o
                                                  build\kernel\components\dfs\filesystems\elmfat\dfs_elm.o
                                                  build\kernel\components\dfs\filesystems\devfs\devfs.o
                                                  build\kernel\src\kservice.o
rt_enter_critical                                 build\kernel\src\scheduler.o
                                                  libraries\MIMXRT1050\MIMXRT1052\drivers\fsl_os_abstraction_rtthread.o
                                                  build\kernel\components\drivers\usb\usbhost\core\driver.o
                                                  build\kernel\components\drivers\usb\usbhost\core\usbhost_core.o
                                                  build\kernel\components\drivers\src\workqueue.o
                                                  build\kernel\components\drivers\src\dataqueue.o
                                                  build\kernel\components\dfs\filesystems\elmfat\dfs_elm.o
                                                  build\kernel\components\dfs\filesystems\devfs\devfs.o
                                                  build\kernel\components\dfs\src\dfs.o
                                                  build\kernel\src\object.o
rt_event_control                                  build\kernel\src\ipc.o
rt_event_create                                   build\kernel\src\ipc.o
                                                  libraries\MIMXRT1050\MIMXRT1052\drivers\fsl_os_abstraction_rtthread.o
rt_event_delete                                   build\kernel\src\ipc.o
                                                  libraries\MIMXRT1050\MIMXRT1052\drivers\fsl_os_abstraction_rtthread.o
rt_event_detach                                   build\kernel\src\ipc.o
rt_event_init                                     build\kernel\src\ipc.o
rt_event_recv                                     build\kernel\src\ipc.o
                                                  libraries\MIMXRT1050\MIMXRT1052\drivers\fsl_os_abstraction_rtthread.o
rt_event_send                                     build\kernel\src\ipc.o
                                                  libraries\MIMXRT1050\MIMXRT1052\drivers\fsl_os_abstraction_rtthread.o
rt_exit_critical                                  build\kernel\src\scheduler.o
                                                  libraries\MIMXRT1050\MIMXRT1052\drivers\fsl_os_abstraction_rtthread.o
                                                  build\kernel\components\drivers\usb\usbhost\core\driver.o
                                                  build\kernel\components\drivers\usb\usbhost\core\usbhost_core.o
                                                  build\kernel\components\drivers\src\workqueue.o
                                                  build\kernel\components\drivers\src\dataqueue.o
                                                  build\kernel\components\dfs\filesystems\elmfat\dfs_elm.o
                                                  build\kernel\components\dfs\filesystems\devfs\devfs.o
                                                  build\kernel\components\dfs\src\dfs.o
                                                  build\kernel\src\object.o
rt_free                                           build\kernel\src\memheap.o
                                                  libraries\MIMXRT1050\MIMXRT1052\drivers\fsl_os_abstraction_rtthread.o
                                                  build\kernel\components\libc\compilers\newlib\syscalls.o
                                                  build\kernel\components\finsh\msh_file.o
                                                  build\kernel\components\finsh\msh.o
                                                  build\kernel\components\finsh\shell.o
                                                  build\kernel\components\drivers\usb\usbhost\class\hid.o
                                                  build\kernel\components\drivers\usb\usbhost\class\udisk.o
                                                  build\kernel\components\drivers\usb\usbhost\class\mass.o
                                                  build\kernel\components\drivers\usb\usbhost\core\hub.o
                                                  build\kernel\components\drivers\usb\usbhost\core\usbhost_core.o
                                                  build\kernel\components\drivers\src\workqueue.o
                                                  build\kernel\components\drivers\src\ringbuffer.o
                                                  build\kernel\components\drivers\src\ringblk_buf.o
                                                  build\kernel\components\drivers\src\pipe.o
                                                  build\kernel\components\drivers\src\dataqueue.o
                                                  build\kernel\components\drivers\serial\serial.o
                                                  build\kernel\components\drivers\sdio\mmc.o
                                                  build\kernel\components\drivers\sdio\sdio.o
                                                  build\kernel\components\drivers\sdio\sd.o
                                                  build\kernel\components\drivers\sdio\mmcsd_core.o
                                                  build\kernel\components\drivers\sdio\block_dev.o
                                                  build\kernel\components\dfs\filesystems\elmfat\dfs_elm.o
                                                  build\kernel\components\dfs\filesystems\devfs\devfs.o
                                                  build\kernel\components\dfs\src\select.o
                                                  build\kernel\components\dfs\src\poll.o
                                                  build\kernel\components\dfs\src\dfs_posix.o
                                                  build\kernel\components\dfs\src\dfs_fs.o
                                                  build\kernel\components\dfs\src\dfs_file.o
                                                  build\kernel\components\dfs\src\dfs.o
                                                  build\kernel\src\object.o
                                                  build\kernel\src\mempool.o
                                                  build\kernel\src\kservice.o
                                                  build\kernel\src\ipc.o
                                                  build\kernel\src\idle.o
                                                  build\kernel\src\device.o
rt_free_align                                     build\kernel\src\kservice.o
                                                  libraries\drivers\drv_sdio.o
rt_get_errno                                      build\kernel\src\kservice.o
rt_hw_backtrace                                   build\kernel\libcpu\arm\common\backtrace.o
rt_hw_board_init                                  build\board\board.o
                                                  build\kernel\src\components.o
rt_hw_console_output                              build\kernel\src\kservice.o
rt_hw_context_switch                              build\kernel\libcpu\arm\cortex-m7\context_gcc.o
                                                  build\kernel\src\scheduler.o
rt_hw_context_switch_interrupt                    build\kernel\libcpu\arm\cortex-m7\context_gcc.o
                                                  build\kernel\src\scheduler.o
rt_hw_context_switch_to                           build\kernel\libcpu\arm\cortex-m7\context_gcc.o
                                                  build\kernel\src\scheduler.o
rt_hw_cpu_dcache_disable                          build\kernel\libcpu\arm\cortex-m7\cpu_cache.o
rt_hw_cpu_dcache_enable                           build\kernel\libcpu\arm\cortex-m7\cpu_cache.o
rt_hw_cpu_dcache_ops                              build\kernel\libcpu\arm\cortex-m7\cpu_cache.o
rt_hw_cpu_dcache_status                           build\kernel\libcpu\arm\cortex-m7\cpu_cache.o
rt_hw_cpu_icache_disable                          build\kernel\libcpu\arm\cortex-m7\cpu_cache.o
rt_hw_cpu_icache_enable                           build\kernel\libcpu\arm\cortex-m7\cpu_cache.o
rt_hw_cpu_icache_ops                              build\kernel\libcpu\arm\cortex-m7\cpu_cache.o
rt_hw_cpu_icache_status                           build\kernel\libcpu\arm\cortex-m7\cpu_cache.o
rt_hw_cpu_reset                                   build\kernel\libcpu\arm\cortex-m7\cpuport.o
rt_hw_cpu_shutdown                                build\kernel\libcpu\arm\cortex-m7\cpuport.o
rt_hw_exception_install                           build\kernel\libcpu\arm\cortex-m7\cpuport.o
rt_hw_hard_fault_exception                        build\kernel\libcpu\arm\cortex-m7\cpuport.o
                                                  build\kernel\libcpu\arm\cortex-m7\context_gcc.o
rt_hw_interrupt_disable                           build\kernel\libcpu\arm\cortex-m7\context_gcc.o
                                                  libraries\drivers\drv_gpio.o
                                                  build\kernel\components\finsh\cmd.o
                                                  build\kernel\components\drivers\src\workqueue.o
                                                  build\kernel\components\drivers\src\waitqueue.o
                                                  build\kernel\components\drivers\src\ringblk_buf.o
                                                  build\kernel\components\drivers\src\dataqueue.o
                                                  build\kernel\components\drivers\src\completion.o
                                                  build\kernel\components\drivers\serial\serial.o
                                                  build\kernel\components\dfs\src\poll.o
                                                  build\kernel\src\timer.o
                                                  build\kernel\src\thread.o
                                                  build\kernel\src\scheduler.o
                                                  build\kernel\src\object.o
                                                  build\kernel\src\mempool.o
                                                  build\kernel\src\irq.o
                                                  build\kernel\src\ipc.o
                                                  build\kernel\src\idle.o
                                                  build\kernel\src\components.o
                                                  build\kernel\src\clock.o
rt_hw_interrupt_enable                            build\kernel\libcpu\arm\cortex-m7\context_gcc.o
                                                  libraries\drivers\drv_gpio.o
                                                  build\kernel\components\finsh\cmd.o
                                                  build\kernel\components\drivers\src\workqueue.o
                                                  build\kernel\components\drivers\src\waitqueue.o
                                                  build\kernel\components\drivers\src\ringblk_buf.o
                                                  build\kernel\components\drivers\src\dataqueue.o
                                                  build\kernel\components\drivers\src\completion.o
                                                  build\kernel\components\drivers\serial\serial.o
                                                  build\kernel\components\dfs\src\poll.o
                                                  build\kernel\src\timer.o
                                                  build\kernel\src\thread.o
                                                  build\kernel\src\scheduler.o
                                                  build\kernel\src\object.o
                                                  build\kernel\src\mempool.o
                                                  build\kernel\src\irq.o
                                                  build\kernel\src\ipc.o
                                                  build\kernel\src\idle.o
                                                  build\kernel\src\clock.o
rt_hw_interrupt_thread_switch                     build\kernel\libcpu\arm\cortex-m7\context_gcc.o
rt_hw_pin_init                                    libraries\drivers\drv_gpio.o
rt_hw_pulse_encoder_init                          libraries\drivers\drv_pulse_encoder.o
rt_hw_serial_isr                                  build\kernel\components\drivers\serial\serial.o
                                                  libraries\drivers\drv_uart.o
rt_hw_serial_register                             build\kernel\components\drivers\serial\serial.o
                                                  libraries\drivers\drv_uart.o
rt_hw_show_memory                                 build\kernel\libcpu\arm\common\showmem.o
rt_hw_stack_init                                  build\kernel\libcpu\arm\cortex-m7\cpuport.o
                                                  build\kernel\src\thread.o
rt_hw_uart_init                                   libraries\drivers\drv_uart.o
rt_interrupt_enter                                build\kernel\src\irq.o
                                                  libraries\drivers\drv_usbh.o
                                                  libraries\drivers\drv_uart.o
                                                  libraries\drivers\drv_gpio.o
                                                  build\board\board.o
rt_interrupt_enter_sethook                        build\kernel\src\irq.o
rt_interrupt_from_thread                          build\kernel\libcpu\arm\cortex-m7\cpuport.o
                                                  build\kernel\libcpu\arm\cortex-m7\context_gcc.o
rt_interrupt_get_nest                             build\kernel\src\irq.o
                                                  build\kernel\components\drivers\src\waitqueue.o
                                                  build\kernel\components\drivers\src\dataqueue.o
                                                  build\kernel\components\drivers\src\completion.o
                                                  build\kernel\src\object.o
                                                  build\kernel\src\mempool.o
                                                  build\kernel\src\kservice.o
                                                  build\kernel\src\ipc.o
                                                  build\kernel\src\idle.o
rt_interrupt_leave                                build\kernel\src\irq.o
                                                  libraries\drivers\drv_usbh.o
                                                  libraries\drivers\drv_uart.o
                                                  libraries\drivers\drv_gpio.o
                                                  build\board\board.o
rt_interrupt_leave_sethook                        build\kernel\src\irq.o
rt_interrupt_nest                                 build\kernel\src\irq.o
                                                  build\kernel\src\scheduler.o
rt_interrupt_to_thread                            build\kernel\libcpu\arm\cortex-m7\cpuport.o
                                                  build\kernel\libcpu\arm\cortex-m7\context_gcc.o
rt_kprintf                                        build\kernel\src\kservice.o
                                                  libraries\drivers\usb\host\usb_host_devices.o
                                                  libraries\drivers\drv_usbh.o
                                                  libraries\drivers\drv_pulse_encoder.o
                                                  libraries\drivers\drv_sdio.o
                                                  build\kernel\components\libc\compilers\newlib\syscalls.o
                                                  build\kernel\components\finsh\msh_file.o
                                                  build\kernel\components\finsh\msh.o
                                                  build\kernel\components\finsh\cmd.o
                                                  build\kernel\components\finsh\shell.o
                                                  build\kernel\components\drivers\usb\usbhost\class\umouse.o
                                                  build\kernel\components\drivers\usb\usbhost\class\hid.o
                                                  build\kernel\components\drivers\usb\usbhost\class\udisk.o
                                                  build\kernel\components\drivers\usb\usbhost\class\mass.o
                                                  build\kernel\components\drivers\usb\usbhost\core\hub.o
                                                  build\kernel\components\drivers\usb\usbhost\core\usbhost.o
                                                  build\kernel\components\drivers\usb\usbhost\core\usbhost_core.o
                                                  build\kernel\components\drivers\src\waitqueue.o
                                                  build\kernel\components\drivers\src\dataqueue.o
                                                  build\kernel\components\drivers\src\completion.o
                                                  build\kernel\components\drivers\serial\serial.o
                                                  build\kernel\components\drivers\sdio\mmc.o
                                                  build\kernel\components\drivers\sdio\sdio.o
                                                  build\kernel\components\drivers\sdio\sd.o
                                                  build\kernel\components\drivers\sdio\mmcsd_core.o
                                                  build\kernel\components\drivers\sdio\block_dev.o
                                                  build\kernel\components\dfs\filesystems\elmfat\dfs_elm.o
                                                  build\kernel\components\dfs\src\dfs_posix.o
                                                  build\kernel\components\dfs\src\dfs_fs.o
                                                  build\kernel\components\dfs\src\dfs_file.o
                                                  build\kernel\components\dfs\src\dfs.o
                                                  build\kernel\libcpu\arm\cortex-m7\cpuport.o
                                                  build\kernel\libcpu\arm\common\showmem.o
                                                  build\kernel\libcpu\arm\common\backtrace.o
                                                  build\kernel\src\scheduler.o
                                                  build\kernel\src\object.o
                                                  build\kernel\src\mempool.o
                                                  build\kernel\src\ipc.o
                                                  build\kernel\src\idle.o
                                                  build\kernel\src\device.o
                                                  build\applications\main.o
rt_kputs                                          build\kernel\src\kservice.o
rt_malloc                                         build\kernel\src\memheap.o
                                                  libraries\drivers\drv_sdio.o
                                                  libraries\MIMXRT1050\MIMXRT1052\drivers\fsl_os_abstraction_rtthread.o
                                                  build\kernel\components\libc\compilers\newlib\syscalls.o
                                                  build\kernel\components\finsh\msh_file.o
                                                  build\kernel\components\finsh\msh.o
                                                  build\kernel\components\finsh\shell.o
                                                  build\kernel\components\drivers\usb\usbhost\class\hid.o
                                                  build\kernel\components\drivers\usb\usbhost\class\udisk.o
                                                  build\kernel\components\drivers\usb\usbhost\class\mass.o
                                                  build\kernel\components\drivers\usb\usbhost\core\hub.o
                                                  build\kernel\components\drivers\usb\usbhost\core\usbhost_core.o
                                                  build\kernel\components\drivers\src\workqueue.o
                                                  build\kernel\components\drivers\src\ringbuffer.o
                                                  build\kernel\components\drivers\src\ringblk_buf.o
                                                  build\kernel\components\drivers\src\pipe.o
                                                  build\kernel\components\drivers\src\dataqueue.o
                                                  build\kernel\components\drivers\serial\serial.o
                                                  build\kernel\components\drivers\sdio\mmc.o
                                                  build\kernel\components\drivers\sdio\sdio.o
                                                  build\kernel\components\drivers\sdio\sd.o
                                                  build\kernel\components\drivers\sdio\mmcsd_core.o
                                                  build\kernel\components\drivers\sdio\block_dev.o
                                                  build\kernel\components\dfs\filesystems\elmfat\dfs_elm.o
                                                  build\kernel\components\dfs\filesystems\devfs\devfs.o
                                                  build\kernel\components\dfs\src\poll.o
                                                  build\kernel\components\dfs\src\dfs_posix.o
                                                  build\kernel\components\dfs\src\dfs_file.o
                                                  build\kernel\components\dfs\src\dfs.o
                                                  build\kernel\src\thread.o
                                                  build\kernel\src\object.o
                                                  build\kernel\src\mempool.o
                                                  build\kernel\src\kservice.o
                                                  build\kernel\src\ipc.o
                                                  build\kernel\src\device.o
rt_malloc_align                                   build\kernel\src\kservice.o
                                                  libraries\drivers\drv_sdio.o
rt_mb_control                                     build\kernel\src\ipc.o
rt_mb_create                                      build\kernel\src\ipc.o
rt_mb_delete                                      build\kernel\src\ipc.o
rt_mb_detach                                      build\kernel\src\ipc.o
rt_mb_init                                        build\kernel\src\ipc.o
                                                  build\kernel\components\drivers\sdio\mmcsd_core.o
rt_mb_recv                                        build\kernel\src\ipc.o
                                                  build\kernel\components\drivers\sdio\mmcsd_core.o
rt_mb_send                                        build\kernel\src\ipc.o
                                                  build\kernel\components\drivers\sdio\mmcsd_core.o
rt_mb_send_wait                                   build\kernel\src\ipc.o
rt_mb_urgent                                      build\kernel\src\ipc.o
rt_memcmp                                         build\kernel\src\kservice.o
rt_memcpy                                         build\kernel\src\kservice.o
                                                  libraries\drivers\drv_usbh.o
                                                  libraries\drivers\drv_sdio.o
                                                  build\kernel\components\drivers\usb\usbhost\class\hid.o
                                                  build\kernel\components\drivers\usb\usbhost\core\usbhost_core.o
                                                  build\kernel\components\drivers\serial\serial.o
                                                  build\kernel\components\drivers\sdio\mmc.o
                                                  build\kernel\components\drivers\sdio\sd.o
                                                  build\kernel\components\drivers\sdio\mmcsd_core.o
                                                  build\kernel\components\drivers\sdio\block_dev.o
                                                  build\kernel\src\memheap.o
                                                  build\kernel\src\ipc.o
rt_memheap_alloc                                  build\kernel\src\memheap.o
rt_memheap_detach                                 build\kernel\src\memheap.o
rt_memheap_free                                   build\kernel\src\memheap.o
rt_memheap_init                                   build\kernel\src\memheap.o
rt_memheap_realloc                                build\kernel\src\memheap.o
rt_memmove                                        build\kernel\src\kservice.o
                                                  build\kernel\components\finsh\shell.o
rt_memory_info                                    build\kernel\src\memheap.o
rt_memset                                         build\kernel\src\kservice.o
                                                  libraries\drivers\drv_usbh.o
                                                  libraries\drivers\drv_sdio.o
                                                  libraries\MIMXRT1050\MIMXRT1052\drivers\fsl_os_abstraction_rtthread.o
                                                  build\kernel\components\drivers\usb\usbhost\class\hid.o
                                                  build\kernel\components\drivers\usb\usbhost\class\udisk.o
                                                  build\kernel\components\drivers\usb\usbhost\class\mass.o
                                                  build\kernel\components\drivers\usb\usbhost\core\hub.o
                                                  build\kernel\components\drivers\usb\usbhost\core\usbhost_core.o
                                                  build\kernel\components\drivers\src\pipe.o
                                                  build\kernel\components\drivers\serial\serial.o
                                                  build\kernel\components\drivers\sdio\mmc.o
                                                  build\kernel\components\drivers\sdio\sdio.o
                                                  build\kernel\components\drivers\sdio\sd.o
                                                  build\kernel\components\drivers\sdio\mmcsd_core.o
                                                  build\kernel\components\drivers\sdio\block_dev.o
                                                  build\kernel\components\dfs\filesystems\elmfat\dfs_elm.o
                                                  build\kernel\components\dfs\src\select.o
                                                  build\kernel\src\thread.o
                                                  build\kernel\src\object.o
                                                  build\kernel\src\memheap.o
                                                  build\kernel\src\device.o
rt_mmcsd_blk_init                                 build\kernel\components\drivers\sdio\block_dev.o
rt_mmcsd_blk_probe                                build\kernel\components\drivers\sdio\block_dev.o
                                                  build\kernel\components\drivers\sdio\mmc.o
                                                  build\kernel\components\drivers\sdio\sd.o
rt_mmcsd_blk_remove                               build\kernel\components\drivers\sdio\block_dev.o
                                                  build\kernel\components\drivers\sdio\mmc.o
                                                  build\kernel\components\drivers\sdio\sd.o
                                                  build\kernel\components\drivers\sdio\mmcsd_core.o
rt_mmcsd_core_init                                build\kernel\components\drivers\sdio\mmcsd_core.o
rt_mp_alloc                                       build\kernel\src\mempool.o
rt_mp_alloc_sethook                               build\kernel\src\mempool.o
rt_mp_create                                      build\kernel\src\mempool.o
rt_mp_delete                                      build\kernel\src\mempool.o
rt_mp_detach                                      build\kernel\src\mempool.o
rt_mp_free                                        build\kernel\src\mempool.o
rt_mp_free_sethook                                build\kernel\src\mempool.o
rt_mp_init                                        build\kernel\src\mempool.o
rt_mq_control                                     build\kernel\src\ipc.o
rt_mq_create                                      build\kernel\src\ipc.o
                                                  libraries\MIMXRT1050\MIMXRT1052\drivers\fsl_os_abstraction_rtthread.o
                                                  build\kernel\components\drivers\usb\usbhost\core\hub.o
rt_mq_delete                                      build\kernel\src\ipc.o
                                                  libraries\MIMXRT1050\MIMXRT1052\drivers\fsl_os_abstraction_rtthread.o
rt_mq_detach                                      build\kernel\src\ipc.o
rt_mq_init                                        build\kernel\src\ipc.o
rt_mq_recv                                        build\kernel\src\ipc.o
                                                  libraries\MIMXRT1050\MIMXRT1052\drivers\fsl_os_abstraction_rtthread.o
                                                  build\kernel\components\drivers\usb\usbhost\core\hub.o
rt_mq_send                                        build\kernel\src\ipc.o
                                                  libraries\MIMXRT1050\MIMXRT1052\drivers\fsl_os_abstraction_rtthread.o
                                                  build\kernel\components\drivers\usb\usbhost\core\hub.o
rt_mq_send_wait                                   build\kernel\src\ipc.o
rt_mq_urgent                                      build\kernel\src\ipc.o
rt_mutex_control                                  build\kernel\src\ipc.o
rt_mutex_create                                   build\kernel\src\ipc.o
                                                  libraries\MIMXRT1050\MIMXRT1052\drivers\fsl_os_abstraction_rtthread.o
                                                  build\kernel\components\dfs\filesystems\elmfat\dfs_elm.o
rt_mutex_delete                                   build\kernel\src\ipc.o
                                                  libraries\MIMXRT1050\MIMXRT1052\drivers\fsl_os_abstraction_rtthread.o
                                                  build\kernel\components\dfs\filesystems\elmfat\dfs_elm.o
rt_mutex_detach                                   build\kernel\src\ipc.o
                                                  build\kernel\components\drivers\src\pipe.o
                                                  build\kernel\components\drivers\sdio\mmcsd_core.o
rt_mutex_init                                     build\kernel\src\ipc.o
                                                  build\kernel\components\drivers\src\pipe.o
                                                  build\kernel\components\drivers\sdio\mmcsd_core.o
                                                  build\kernel\components\dfs\src\dfs.o
rt_mutex_release                                  build\kernel\src\ipc.o
                                                  libraries\MIMXRT1050\MIMXRT1052\drivers\fsl_os_abstraction_rtthread.o
                                                  build\kernel\components\drivers\src\pipe.o
                                                  build\kernel\components\drivers\sdio\mmcsd_core.o
                                                  build\kernel\components\dfs\filesystems\elmfat\dfs_elm.o
                                                  build\kernel\components\dfs\src\dfs.o
rt_mutex_take                                     build\kernel\src\ipc.o
                                                  libraries\MIMXRT1050\MIMXRT1052\drivers\fsl_os_abstraction_rtthread.o
                                                  build\kernel\components\drivers\src\pipe.o
                                                  build\kernel\components\drivers\sdio\mmcsd_core.o
                                                  build\kernel\components\dfs\filesystems\elmfat\dfs_elm.o
                                                  build\kernel\components\dfs\src\dfs.o
rt_object_allocate                                build\kernel\src\object.o
                                                  build\kernel\src\timer.o
                                                  build\kernel\src\thread.o
                                                  build\kernel\src\mempool.o
                                                  build\kernel\src\ipc.o
rt_object_attach_sethook                          build\kernel\src\object.o
rt_object_delete                                  build\kernel\src\object.o
                                                  build\kernel\src\timer.o
                                                  build\kernel\src\thread.o
                                                  build\kernel\src\mempool.o
                                                  build\kernel\src\ipc.o
                                                  build\kernel\src\idle.o
rt_object_detach                                  build\kernel\src\object.o
                                                  build\kernel\src\timer.o
                                                  build\kernel\src\thread.o
                                                  build\kernel\src\mempool.o
                                                  build\kernel\src\memheap.o
                                                  build\kernel\src\ipc.o
                                                  build\kernel\src\device.o
rt_object_detach_sethook                          build\kernel\src\object.o
rt_object_find                                    build\kernel\src\object.o
                                                  build\kernel\src\thread.o
                                                  build\kernel\src\device.o
rt_object_get_information                         build\kernel\src\object.o
                                                  build\kernel\components\finsh\cmd.o
                                                  build\kernel\components\dfs\filesystems\devfs\devfs.o
                                                  build\kernel\src\memheap.o
rt_object_get_length                              build\kernel\src\object.o
rt_object_get_pointers                            build\kernel\src\object.o
rt_object_get_type                                build\kernel\src\object.o
                                                  build\kernel\src\timer.o
                                                  build\kernel\src\thread.o
                                                  build\kernel\src\mempool.o
                                                  build\kernel\src\memheap.o
                                                  build\kernel\src\ipc.o
                                                  build\kernel\src\device.o
rt_object_init                                    build\kernel\src\object.o
                                                  build\kernel\src\timer.o
                                                  build\kernel\src\thread.o
                                                  build\kernel\src\mempool.o
                                                  build\kernel\src\memheap.o
                                                  build\kernel\src\ipc.o
                                                  build\kernel\src\device.o
rt_object_is_systemobject                         build\kernel\src\object.o
                                                  build\kernel\src\timer.o
                                                  build\kernel\src\thread.o
                                                  build\kernel\src\mempool.o
                                                  build\kernel\src\memheap.o
                                                  build\kernel\src\ipc.o
                                                  build\kernel\src\device.o
rt_object_put_hook                                build\kernel\src\object.o
                                                  build\kernel\src\timer.o
                                                  build\kernel\src\ipc.o
rt_object_put_sethook                             build\kernel\src\object.o
rt_object_take_hook                               build\kernel\src\object.o
                                                  build\kernel\src\timer.o
                                                  build\kernel\src\ipc.o
rt_object_take_sethook                            build\kernel\src\object.o
rt_object_trytake_hook                            build\kernel\src\object.o
                                                  build\kernel\src\ipc.o
rt_object_trytake_sethook                         build\kernel\src\object.o
rt_pin_attach_irq                                 build\kernel\components\drivers\misc\pin.o
rt_pin_detach_irq                                 build\kernel\components\drivers\misc\pin.o
rt_pin_get                                        build\kernel\components\drivers\misc\pin.o
rt_pin_irq_enable                                 build\kernel\components\drivers\misc\pin.o
rt_pin_mode                                       build\kernel\components\drivers\misc\pin.o
                                                  build\applications\main.o
rt_pin_read                                       build\kernel\components\drivers\misc\pin.o
rt_pin_write                                      build\kernel\components\drivers\misc\pin.o
                                                  build\applications\main.o
rt_pipe_close                                     build\kernel\components\drivers\src\pipe.o
rt_pipe_control                                   build\kernel\components\drivers\src\pipe.o
rt_pipe_create                                    build\kernel\components\drivers\src\pipe.o
rt_pipe_delete                                    build\kernel\components\drivers\src\pipe.o
rt_pipe_open                                      build\kernel\components\drivers\src\pipe.o
rt_pipe_read                                      build\kernel\components\drivers\src\pipe.o
rt_pipe_write                                     build\kernel\components\drivers\src\pipe.o
rt_rbb_blk_alloc                                  build\kernel\components\drivers\src\ringblk_buf.o
rt_rbb_blk_buf                                    build\kernel\components\drivers\src\ringblk_buf.o
rt_rbb_blk_free                                   build\kernel\components\drivers\src\ringblk_buf.o
rt_rbb_blk_get                                    build\kernel\components\drivers\src\ringblk_buf.o
rt_rbb_blk_put                                    build\kernel\components\drivers\src\ringblk_buf.o
rt_rbb_blk_queue_buf                              build\kernel\components\drivers\src\ringblk_buf.o
rt_rbb_blk_queue_free                             build\kernel\components\drivers\src\ringblk_buf.o
rt_rbb_blk_queue_get                              build\kernel\components\drivers\src\ringblk_buf.o
rt_rbb_blk_queue_len                              build\kernel\components\drivers\src\ringblk_buf.o
rt_rbb_blk_size                                   build\kernel\components\drivers\src\ringblk_buf.o
rt_rbb_create                                     build\kernel\components\drivers\src\ringblk_buf.o
rt_rbb_destroy                                    build\kernel\components\drivers\src\ringblk_buf.o
rt_rbb_get_buf_size                               build\kernel\components\drivers\src\ringblk_buf.o
rt_rbb_init                                       build\kernel\components\drivers\src\ringblk_buf.o
rt_rbb_next_blk_queue_len                         build\kernel\components\drivers\src\ringblk_buf.o
rt_realloc                                        build\kernel\src\memheap.o
                                                  build\kernel\components\libc\compilers\newlib\syscalls.o
                                                  build\kernel\components\dfs\src\dfs.o
rt_ringbuffer_create                              build\kernel\components\drivers\src\ringbuffer.o
                                                  build\kernel\components\drivers\src\pipe.o
rt_ringbuffer_data_len                            build\kernel\components\drivers\src\ringbuffer.o
                                                  build\kernel\components\drivers\src\pipe.o
rt_ringbuffer_destroy                             build\kernel\components\drivers\src\ringbuffer.o
                                                  build\kernel\components\drivers\src\pipe.o
rt_ringbuffer_get                                 build\kernel\components\drivers\src\ringbuffer.o
                                                  build\kernel\components\drivers\src\pipe.o
rt_ringbuffer_getchar                             build\kernel\components\drivers\src\ringbuffer.o
rt_ringbuffer_init                                build\kernel\components\drivers\src\ringbuffer.o
rt_ringbuffer_peak                                build\kernel\components\drivers\src\ringbuffer.o
rt_ringbuffer_put                                 build\kernel\components\drivers\src\ringbuffer.o
                                                  build\kernel\components\drivers\src\pipe.o
rt_ringbuffer_put_force                           build\kernel\components\drivers\src\ringbuffer.o
rt_ringbuffer_putchar                             build\kernel\components\drivers\src\ringbuffer.o
rt_ringbuffer_putchar_force                       build\kernel\components\drivers\src\ringbuffer.o
rt_ringbuffer_reset                               build\kernel\components\drivers\src\ringbuffer.o
rt_schedule                                       build\kernel\src\scheduler.o
                                                  build\kernel\components\libc\compilers\newlib\syscalls.o
                                                  build\kernel\components\drivers\src\workqueue.o
                                                  build\kernel\components\drivers\src\waitqueue.o
                                                  build\kernel\components\drivers\src\dataqueue.o
                                                  build\kernel\components\drivers\src\completion.o
                                                  build\kernel\components\dfs\src\poll.o
                                                  build\kernel\src\thread.o
                                                  build\kernel\src\mempool.o
                                                  build\kernel\src\ipc.o
                                                  build\kernel\src\clock.o
rt_schedule_insert_thread                         build\kernel\src\scheduler.o
                                                  build\kernel\src\thread.o
rt_schedule_remove_thread                         build\kernel\src\scheduler.o
                                                  build\kernel\src\thread.o
rt_scheduler_sethook                              build\kernel\src\scheduler.o
rt_sdio_init                                      build\kernel\components\drivers\sdio\sdio.o
                                                  build\kernel\components\drivers\sdio\mmcsd_core.o
rt_sem_control                                    build\kernel\src\ipc.o
rt_sem_create                                     build\kernel\src\ipc.o
                                                  libraries\MIMXRT1050\MIMXRT1052\drivers\fsl_os_abstraction_rtthread.o
                                                  build\kernel\components\drivers\usb\usbhost\class\udisk.o
                                                  build\kernel\components\drivers\sdio\sdio.o
                                                  build\kernel\components\drivers\sdio\block_dev.o
rt_sem_delete                                     build\kernel\src\ipc.o
                                                  libraries\MIMXRT1050\MIMXRT1052\drivers\fsl_os_abstraction_rtthread.o
                                                  build\kernel\components\drivers\usb\usbhost\class\udisk.o
                                                  build\kernel\components\drivers\sdio\sdio.o
                                                  build\kernel\components\drivers\sdio\block_dev.o
rt_sem_detach                                     build\kernel\src\ipc.o
                                                  build\kernel\components\drivers\sdio\mmcsd_core.o
                                                  build\kernel\src\memheap.o
rt_sem_init                                       build\kernel\src\ipc.o
                                                  build\kernel\components\finsh\shell.o
                                                  build\kernel\components\drivers\src\workqueue.o
                                                  build\kernel\components\drivers\sdio\mmcsd_core.o
                                                  build\kernel\src\memheap.o
rt_sem_release                                    build\kernel\src\ipc.o
                                                  libraries\MIMXRT1050\MIMXRT1052\drivers\fsl_os_abstraction_rtthread.o
                                                  build\kernel\components\drivers\src\workqueue.o
                                                  build\kernel\components\drivers\sdio\sdio.o
                                                  build\kernel\components\drivers\sdio\mmcsd_core.o
                                                  build\kernel\components\drivers\sdio\block_dev.o
                                                  build\kernel\src\memheap.o
rt_sem_take                                       build\kernel\src\ipc.o
                                                  libraries\MIMXRT1050\MIMXRT1052\drivers\fsl_os_abstraction_rtthread.o
                                                  build\kernel\components\drivers\src\workqueue.o
                                                  build\kernel\components\drivers\sdio\sdio.o
                                                  build\kernel\components\drivers\sdio\mmcsd_core.o
                                                  build\kernel\components\drivers\sdio\block_dev.o
                                                  build\kernel\src\memheap.o
rt_sem_trytake                                    build\kernel\src\ipc.o
                                                  build\kernel\components\drivers\src\workqueue.o
rt_set_errno                                      build\kernel\src\kservice.o
                                                  build\kernel\components\drivers\src\pipe.o
                                                  build\kernel\components\drivers\serial\serial.o
                                                  build\kernel\components\drivers\sdio\block_dev.o
                                                  build\kernel\components\drivers\cputime\cputime.o
                                                  build\kernel\components\dfs\src\dfs_posix.o
                                                  build\kernel\components\dfs\src\dfs_fs.o
                                                  build\kernel\src\mempool.o
                                                  build\kernel\src\memheap.o
                                                  build\kernel\src\device.o
rt_show_version                                   build\kernel\src\kservice.o
                                                  build\kernel\components\finsh\cmd.o
                                                  build\kernel\src\components.o
rt_snprintf                                       build\kernel\src\kservice.o
                                                  build\kernel\components\finsh\msh_file.o
                                                  build\kernel\components\drivers\usb\usbhost\class\udisk.o
                                                  build\kernel\components\drivers\src\pipe.o
                                                  build\kernel\components\drivers\sdio\block_dev.o
                                                  build\kernel\components\dfs\filesystems\elmfat\dfs_elm.o
                                                  build\kernel\components\dfs\src\dfs.o
rt_sprintf                                        build\kernel\src\kservice.o
                                                  build\kernel\components\finsh\msh_file.o
                                                  build\kernel\src\idle.o
rt_strcasecmp                                     build\kernel\src\kservice.o
rt_strcmp                                         build\kernel\src\kservice.o
                                                  build\kernel\components\finsh\msh_file.o
rt_strdup                                         build\kernel\src\kservice.o
                                                  build\kernel\components\dfs\src\dfs_file.o
                                                  build\kernel\components\dfs\src\dfs.o
rt_strlen                                         build\kernel\src\kservice.o
                                                  build\kernel\components\finsh\msh_file.o
                                                  build\kernel\components\finsh\msh.o
                                                  build\kernel\components\finsh\shell.o
                                                  build\kernel\components\dfs\filesystems\elmfat\dfs_elm.o
rt_strncmp                                        build\kernel\src\kservice.o
                                                  build\kernel\src\object.o
rt_strncpy                                        build\kernel\src\kservice.o
                                                  build\kernel\components\finsh\msh.o
                                                  build\kernel\components\dfs\filesystems\elmfat\dfs_elm.o
                                                  build\kernel\components\dfs\filesystems\devfs\devfs.o
                                                  build\kernel\src\object.o
rt_strnlen                                        build\kernel\src\kservice.o
rt_strstr                                         build\kernel\src\kservice.o
rt_system_heap_init                               build\kernel\src\memheap.o
                                                  build\board\board.o
rt_system_scheduler_init                          build\kernel\src\scheduler.o
                                                  build\kernel\src\components.o
rt_system_scheduler_start                         build\kernel\src\scheduler.o
                                                  build\kernel\src\components.o
rt_system_timer_init                              build\kernel\src\timer.o
                                                  build\kernel\src\components.o
rt_system_timer_thread_init                       build\kernel\src\timer.o
                                                  build\kernel\src\components.o
rt_thread_control                                 build\kernel\src\thread.o
                                                  build\kernel\src\ipc.o
rt_thread_create                                  build\kernel\src\thread.o
                                                  libraries\drivers\drv_usbh.o
                                                  build\kernel\components\finsh\shell.o
                                                  build\kernel\components\drivers\usb\usbhost\class\umouse.o
                                                  build\kernel\components\drivers\usb\usbhost\core\hub.o
                                                  build\kernel\components\drivers\src\workqueue.o
                                                  build\kernel\components\drivers\sdio\sdio.o
                                                  build\kernel\src\components.o
rt_thread_defunct                                 build\kernel\src\scheduler.o
                                                  build\kernel\src\thread.o
                                                  build\kernel\src\idle.o
rt_thread_delay                                   build\kernel\src\thread.o
                                                  build\kernel\components\drivers\usb\usbhost\class\udisk.o
                                                  build\kernel\components\drivers\usb\usbhost\class\mass.o
                                                  build\kernel\components\drivers\usb\usbhost\core\hub.o
                                                  build\kernel\components\drivers\usb\usbhost\core\usbhost_core.o
                                                  build\kernel\components\drivers\sdio\mmc.o
                                                  build\kernel\components\drivers\sdio\sdio.o
                                                  build\kernel\components\drivers\sdio\sd.o
                                                  build\kernel\components\drivers\sdio\mmcsd_core.o
rt_thread_delay_until                             build\kernel\src\thread.o
rt_thread_delete                                  build\kernel\src\thread.o
                                                  build\kernel\components\drivers\src\workqueue.o
                                                  build\kernel\components\drivers\sdio\sdio.o
rt_thread_detach                                  build\kernel\src\thread.o
rt_thread_exit                                    build\kernel\src\thread.o
rt_thread_find                                    build\kernel\src\thread.o
rt_thread_idle_delhook                            build\kernel\src\idle.o
rt_thread_idle_excute                             build\kernel\src\idle.o
rt_thread_idle_gethandler                         build\kernel\src\idle.o
rt_thread_idle_init                               build\kernel\src\idle.o
                                                  build\kernel\src\components.o
rt_thread_idle_sethook                            build\kernel\src\idle.o
rt_thread_init                                    build\kernel\src\thread.o
                                                  build\kernel\components\drivers\sdio\mmcsd_core.o
                                                  build\kernel\src\idle.o
rt_thread_inited_sethook                          build\kernel\src\thread.o
rt_thread_mdelay                                  build\kernel\src\thread.o
                                                  libraries\MIMXRT1050\MIMXRT1052\drivers\fsl_os_abstraction_rtthread.o
                                                  build\applications\main.o
rt_thread_priority_table                          build\kernel\src\scheduler.o
rt_thread_ready_priority_group                    build\kernel\src\scheduler.o
rt_thread_resume                                  build\kernel\src\thread.o
                                                  build\kernel\components\drivers\src\workqueue.o
                                                  build\kernel\components\drivers\src\waitqueue.o
                                                  build\kernel\components\drivers\src\dataqueue.o
                                                  build\kernel\components\drivers\src\completion.o
                                                  build\kernel\src\mempool.o
                                                  build\kernel\src\ipc.o
rt_thread_resume_sethook                          build\kernel\src\thread.o
rt_thread_self                                    build\kernel\src\thread.o
                                                  libraries\MIMXRT1050\MIMXRT1052\drivers\fsl_os_abstraction_rtthread.o
                                                  build\kernel\components\libc\compilers\newlib\syscalls.o
                                                  build\kernel\components\drivers\usb\usbhost\core\driver.o
                                                  build\kernel\components\drivers\src\workqueue.o
                                                  build\kernel\components\drivers\src\waitqueue.o
                                                  build\kernel\components\drivers\src\dataqueue.o
                                                  build\kernel\components\drivers\src\completion.o
                                                  build\kernel\components\dfs\src\poll.o
                                                  build\kernel\libcpu\arm\cortex-m7\cpuport.o
                                                  build\kernel\src\mempool.o
                                                  build\kernel\src\kservice.o
                                                  build\kernel\src\ipc.o
                                                  build\kernel\src\clock.o
rt_thread_sleep                                   build\kernel\src\thread.o
rt_thread_startup                                 build\kernel\src\thread.o
                                                  libraries\drivers\drv_usbh.o
                                                  build\kernel\components\finsh\shell.o
                                                  build\kernel\components\drivers\usb\usbhost\class\umouse.o
                                                  build\kernel\components\drivers\usb\usbhost\core\hub.o
                                                  build\kernel\components\drivers\src\workqueue.o
                                                  build\kernel\components\drivers\sdio\sdio.o
                                                  build\kernel\components\drivers\sdio\mmcsd_core.o
                                                  build\kernel\src\idle.o
                                                  build\kernel\src\components.o
rt_thread_suspend                                 build\kernel\src\thread.o
                                                  build\kernel\components\libc\compilers\newlib\syscalls.o
                                                  build\kernel\components\drivers\src\workqueue.o
                                                  build\kernel\components\drivers\src\waitqueue.o
                                                  build\kernel\components\drivers\src\dataqueue.o
                                                  build\kernel\components\drivers\src\completion.o
                                                  build\kernel\components\dfs\src\poll.o
                                                  build\kernel\src\mempool.o
                                                  build\kernel\src\ipc.o
rt_thread_suspend_sethook                         build\kernel\src\thread.o
rt_thread_switch_interrupt_flag                   build\kernel\libcpu\arm\cortex-m7\cpuport.o
                                                  build\kernel\libcpu\arm\cortex-m7\context_gcc.o
rt_thread_timeout                                 build\kernel\src\thread.o
rt_thread_yield                                   build\kernel\src\thread.o
rt_tick_from_millisecond                          build\kernel\src\clock.o
                                                  libraries\MIMXRT1050\MIMXRT1052\drivers\fsl_os_abstraction_rtthread.o
                                                  build\kernel\components\drivers\src\waitqueue.o
                                                  build\kernel\components\dfs\src\poll.o
                                                  build\kernel\src\thread.o
rt_tick_get                                       build\kernel\src\clock.o
                                                  build\kernel\components\libc\compilers\newlib\syscalls.o
                                                  build\kernel\components\libc\compilers\common\time.o
                                                  build\kernel\components\finsh\cmd.o
                                                  build\kernel\components\drivers\sdio\sdio.o
                                                  build\kernel\src\timer.o
                                                  build\kernel\src\thread.o
                                                  build\kernel\src\mempool.o
                                                  build\kernel\src\ipc.o
rt_tick_get_millisecond                           build\kernel\src\clock.o
                                                  libraries\MIMXRT1050\MIMXRT1052\drivers\fsl_os_abstraction_rtthread.o
rt_tick_increase                                  build\kernel\src\clock.o
                                                  build\board\board.o
rt_tick_set                                       build\kernel\src\clock.o
rt_timer_check                                    build\kernel\src\timer.o
                                                  build\kernel\src\clock.o
rt_timer_control                                  build\kernel\src\timer.o
                                                  build\kernel\components\drivers\src\waitqueue.o
                                                  build\kernel\components\drivers\src\dataqueue.o
                                                  build\kernel\components\drivers\src\completion.o
                                                  build\kernel\components\dfs\src\poll.o
                                                  build\kernel\src\thread.o
                                                  build\kernel\src\mempool.o
                                                  build\kernel\src\ipc.o
rt_timer_create                                   build\kernel\src\timer.o
rt_timer_delete                                   build\kernel\src\timer.o
rt_timer_detach                                   build\kernel\src\timer.o
                                                  build\kernel\components\drivers\src\workqueue.o
                                                  build\kernel\src\thread.o
rt_timer_enter_sethook                            build\kernel\src\timer.o
rt_timer_exit_sethook                             build\kernel\src\timer.o
rt_timer_init                                     build\kernel\src\timer.o
                                                  build\kernel\components\drivers\src\workqueue.o
                                                  build\kernel\src\thread.o
rt_timer_next_timeout_tick                        build\kernel\src\timer.o
rt_timer_start                                    build\kernel\src\timer.o
                                                  build\kernel\components\drivers\src\workqueue.o
                                                  build\kernel\components\drivers\src\waitqueue.o
                                                  build\kernel\components\drivers\src\dataqueue.o
                                                  build\kernel\components\drivers\src\completion.o
                                                  build\kernel\components\dfs\src\poll.o
                                                  build\kernel\src\thread.o
                                                  build\kernel\src\mempool.o
                                                  build\kernel\src\ipc.o
rt_timer_stop                                     build\kernel\src\timer.o
                                                  build\kernel\components\drivers\src\workqueue.o
                                                  build\kernel\src\thread.o
rt_udisk_run                                      build\kernel\components\drivers\usb\usbhost\class\udisk.o
                                                  build\kernel\components\drivers\usb\usbhost\class\mass.o
rt_udisk_stop                                     build\kernel\components\drivers\usb\usbhost\class\udisk.o
                                                  build\kernel\components\drivers\usb\usbhost\class\mass.o
rt_usb_hcd_control_xfer                           build\kernel\components\drivers\usb\usbhost\class\hid.o
rt_usb_hcd_pipe_xfer                              build\kernel\components\drivers\usb\usbhost\core\usbhost_core.o
                                                  build\kernel\components\drivers\usb\usbhost\class\umouse.o
                                                  build\kernel\components\drivers\usb\usbhost\class\hid.o
                                                  build\kernel\components\drivers\usb\usbhost\class\mass.o
                                                  build\kernel\components\drivers\usb\usbhost\core\hub.o
rt_usb_host_init                                  build\kernel\components\drivers\usb\usbhost\core\usbhost.o
                                                  libraries\drivers\drv_usbh.o
rt_usbh_alloc_instance                            build\kernel\components\drivers\usb\usbhost\core\usbhost_core.o
                                                  build\kernel\components\drivers\usb\usbhost\core\hub.o
rt_usbh_attatch_instance                          build\kernel\components\drivers\usb\usbhost\core\usbhost_core.o
                                                  build\kernel\components\drivers\usb\usbhost\core\hub.o
rt_usbh_class_driver_disable                      build\kernel\components\drivers\usb\usbhost\core\driver.o
                                                  build\kernel\components\drivers\usb\usbhost\core\usbhost_core.o
rt_usbh_class_driver_enable                       build\kernel\components\drivers\usb\usbhost\core\driver.o
                                                  build\kernel\components\drivers\usb\usbhost\core\usbhost_core.o
rt_usbh_class_driver_find                         build\kernel\components\drivers\usb\usbhost\core\driver.o
                                                  build\kernel\components\drivers\usb\usbhost\core\usbhost_core.o
rt_usbh_class_driver_hid                          build\kernel\components\drivers\usb\usbhost\class\hid.o
                                                  build\kernel\components\drivers\usb\usbhost\core\usbhost.o
rt_usbh_class_driver_hub                          build\kernel\components\drivers\usb\usbhost\core\hub.o
                                                  build\kernel\components\drivers\usb\usbhost\core\usbhost.o
rt_usbh_class_driver_init                         build\kernel\components\drivers\usb\usbhost\core\driver.o
                                                  build\kernel\components\drivers\usb\usbhost\core\usbhost.o
rt_usbh_class_driver_register                     build\kernel\components\drivers\usb\usbhost\core\driver.o
                                                  build\kernel\components\drivers\usb\usbhost\core\usbhost.o
rt_usbh_class_driver_storage                      build\kernel\components\drivers\usb\usbhost\class\mass.o
                                                  build\kernel\components\drivers\usb\usbhost\core\usbhost.o
rt_usbh_class_driver_unregister                   build\kernel\components\drivers\usb\usbhost\core\driver.o
rt_usbh_clear_feature                             build\kernel\components\drivers\usb\usbhost\core\usbhost_core.o
                                                  build\kernel\components\drivers\usb\usbhost\class\udisk.o
                                                  build\kernel\components\drivers\usb\usbhost\class\mass.o
rt_usbh_detach_instance                           build\kernel\components\drivers\usb\usbhost\core\usbhost_core.o
                                                  build\kernel\components\drivers\usb\usbhost\core\hub.o
rt_usbh_event_signal                              build\kernel\components\drivers\usb\usbhost\core\hub.o
rt_usbh_get_descriptor                            build\kernel\components\drivers\usb\usbhost\core\usbhost_core.o
rt_usbh_get_endpoint_descriptor                   build\kernel\components\drivers\usb\usbhost\core\usbhost_core.o
                                                  build\kernel\components\drivers\usb\usbhost\class\hid.o
                                                  build\kernel\components\drivers\usb\usbhost\class\mass.o
                                                  build\kernel\components\drivers\usb\usbhost\core\hub.o
rt_usbh_get_interface_descriptor                  build\kernel\components\drivers\usb\usbhost\core\usbhost_core.o
rt_usbh_hid_get_report                            build\kernel\components\drivers\usb\usbhost\class\hid.o
rt_usbh_hid_get_report_descriptor                 build\kernel\components\drivers\usb\usbhost\class\hid.o
rt_usbh_hid_protocal_mouse                        build\kernel\components\drivers\usb\usbhost\class\umouse.o
                                                  build\kernel\components\drivers\usb\usbhost\core\usbhost.o
rt_usbh_hid_protocal_register                     build\kernel\components\drivers\usb\usbhost\class\hid.o
                                                  build\kernel\components\drivers\usb\usbhost\core\usbhost.o
rt_usbh_hid_set_idle                              build\kernel\components\drivers\usb\usbhost\class\hid.o
                                                  build\kernel\components\drivers\usb\usbhost\class\umouse.o
rt_usbh_hid_set_protocal                          build\kernel\components\drivers\usb\usbhost\class\hid.o
                                                  build\kernel\components\drivers\usb\usbhost\class\umouse.o
rt_usbh_hid_set_report                            build\kernel\components\drivers\usb\usbhost\class\hid.o
rt_usbh_hub_clear_port_feature                    build\kernel\components\drivers\usb\usbhost\core\hub.o
                                                  build\kernel\components\drivers\usb\usbhost\core\usbhost_core.o
rt_usbh_hub_get_descriptor                        build\kernel\components\drivers\usb\usbhost\core\hub.o
rt_usbh_hub_get_port_status                       build\kernel\components\drivers\usb\usbhost\core\hub.o
rt_usbh_hub_get_status                            build\kernel\components\drivers\usb\usbhost\core\hub.o
rt_usbh_hub_init                                  build\kernel\components\drivers\usb\usbhost\core\hub.o
                                                  build\kernel\components\drivers\usb\usbhost\core\usbhost.o
rt_usbh_hub_port_debounce                         build\kernel\components\drivers\usb\usbhost\core\hub.o
rt_usbh_hub_reset_port                            build\kernel\components\drivers\usb\usbhost\core\hub.o
                                                  build\kernel\components\drivers\usb\usbhost\core\usbhost_core.o
rt_usbh_hub_set_port_feature                      build\kernel\components\drivers\usb\usbhost\core\hub.o
rt_usbh_root_hub_connect_handler                  build\kernel\components\drivers\usb\usbhost\core\hub.o
                                                  libraries\drivers\drv_usbh.o
rt_usbh_root_hub_disconnect_handler               build\kernel\components\drivers\usb\usbhost\core\hub.o
                                                  libraries\drivers\drv_usbh.o
rt_usbh_set_address                               build\kernel\components\drivers\usb\usbhost\core\usbhost_core.o
rt_usbh_set_configure                             build\kernel\components\drivers\usb\usbhost\core\usbhost_core.o
rt_usbh_set_interface                             build\kernel\components\drivers\usb\usbhost\core\usbhost_core.o
rt_usbh_storage_get_capacity                      build\kernel\components\drivers\usb\usbhost\class\mass.o
                                                  build\kernel\components\drivers\usb\usbhost\class\udisk.o
rt_usbh_storage_get_max_lun                       build\kernel\components\drivers\usb\usbhost\class\mass.o
                                                  build\kernel\components\drivers\usb\usbhost\class\udisk.o
rt_usbh_storage_inquiry                           build\kernel\components\drivers\usb\usbhost\class\mass.o
                                                  build\kernel\components\drivers\usb\usbhost\class\udisk.o
rt_usbh_storage_read10                            build\kernel\components\drivers\usb\usbhost\class\mass.o
                                                  build\kernel\components\drivers\usb\usbhost\class\udisk.o
rt_usbh_storage_request_sense                     build\kernel\components\drivers\usb\usbhost\class\mass.o
                                                  build\kernel\components\drivers\usb\usbhost\class\udisk.o
rt_usbh_storage_reset                             build\kernel\components\drivers\usb\usbhost\class\mass.o
                                                  build\kernel\components\drivers\usb\usbhost\class\udisk.o
rt_usbh_storage_test_unit_ready                   build\kernel\components\drivers\usb\usbhost\class\mass.o
                                                  build\kernel\components\drivers\usb\usbhost\class\udisk.o
rt_usbh_storage_write10                           build\kernel\components\drivers\usb\usbhost\class\mass.o
                                                  build\kernel\components\drivers\usb\usbhost\class\udisk.o
rt_vsnprintf                                      build\kernel\src\kservice.o
rt_vsprintf                                       build\kernel\src\kservice.o
rt_workqueue_cancel_all_work                      build\kernel\components\drivers\src\workqueue.o
rt_workqueue_cancel_work                          build\kernel\components\drivers\src\workqueue.o
rt_workqueue_cancel_work_sync                     build\kernel\components\drivers\src\workqueue.o
rt_workqueue_create                               build\kernel\components\drivers\src\workqueue.o
rt_workqueue_critical_work                        build\kernel\components\drivers\src\workqueue.o
rt_workqueue_destroy                              build\kernel\components\drivers\src\workqueue.o
rt_workqueue_dowork                               build\kernel\components\drivers\src\workqueue.o
rt_workqueue_submit_work                          build\kernel\components\drivers\src\workqueue.o
rt_wqueue_add                                     build\kernel\components\drivers\src\waitqueue.o
                                                  build\kernel\components\dfs\src\poll.o
rt_wqueue_remove                                  build\kernel\components\drivers\src\waitqueue.o
                                                  build\kernel\components\dfs\src\poll.o
rt_wqueue_wait                                    build\kernel\components\drivers\src\waitqueue.o
                                                  build\kernel\components\drivers\src\pipe.o
                                                  build\kernel\components\drivers\serial\serial.o
rt_wqueue_wakeup                                  build\kernel\components\drivers\src\waitqueue.o
                                                  build\kernel\components\drivers\src\pipe.o
                                                  build\kernel\components\drivers\serial\serial.o
rtthread_startup                                  build\kernel\src\components.o
s_usdhcBootDummy                                  libraries\MIMXRT1050\MIMXRT1052\drivers\fsl_usdhc.o
sdio_attach_irq                                   build\kernel\components\drivers\sdio\sdio.o
sdio_detach_irq                                   build\kernel\components\drivers\sdio\sdio.o
sdio_disable_func                                 build\kernel\components\drivers\sdio\sdio.o
sdio_enable_func                                  build\kernel\components\drivers\sdio\sdio.o
sdio_free_cis                                     build\kernel\components\drivers\sdio\sdio.o
sdio_get_drvdata                                  build\kernel\components\drivers\sdio\sdio.o
sdio_io_read_multi_fifo_b                         build\kernel\components\drivers\sdio\sdio.o
sdio_io_read_multi_incr_b                         build\kernel\components\drivers\sdio\sdio.o
sdio_io_readb                                     build\kernel\components\drivers\sdio\sdio.o
sdio_io_readl                                     build\kernel\components\drivers\sdio\sdio.o
sdio_io_readw                                     build\kernel\components\drivers\sdio\sdio.o
sdio_io_rw_direct                                 build\kernel\components\drivers\sdio\sdio.o
sdio_io_rw_extended                               build\kernel\components\drivers\sdio\sdio.o
sdio_io_rw_extended_block                         build\kernel\components\drivers\sdio\sdio.o
sdio_io_send_op_cond                              build\kernel\components\drivers\sdio\sdio.o
                                                  build\kernel\components\drivers\sdio\mmcsd_core.o
sdio_io_write_multi_fifo_b                        build\kernel\components\drivers\sdio\sdio.o
sdio_io_write_multi_incr_b                        build\kernel\components\drivers\sdio\sdio.o
sdio_io_writeb                                    build\kernel\components\drivers\sdio\sdio.o
sdio_io_writel                                    build\kernel\components\drivers\sdio\sdio.o
sdio_io_writew                                    build\kernel\components\drivers\sdio\sdio.o
sdio_irq_wakeup                                   build\kernel\components\drivers\sdio\sdio.o
sdio_register_driver                              build\kernel\components\drivers\sdio\sdio.o
sdio_set_block_size                               build\kernel\components\drivers\sdio\sdio.o
sdio_set_drvdata                                  build\kernel\components\drivers\sdio\sdio.o
sdio_unregister_driver                            build\kernel\components\drivers\sdio\sdio.o
seekdir                                           build\kernel\components\dfs\src\dfs_posix.o
select                                            build\kernel\components\dfs\src\select.o
setlocale                                         c:/rtthread/env/tools/gnu_gcc/arm_gcc/mingw/bin/../lib/gcc/arm-none-eabi/5.4.1/../../../../arm-none-eabi/lib/armv7e-m/fpu\libc.a(lib_a-locale.o)
setvbuf                                           c:/rtthread/env/tools/gnu_gcc/arm_gcc/mingw/bin/../lib/gcc/arm-none-eabi/5.4.1/../../../../arm-none-eabi/lib/armv7e-m/fpu\libc.a(lib_a-setvbuf.o)
                                                  build\kernel\components\libc\compilers\newlib\stdio.o
shell                                             build\kernel\components\finsh\shell.o
snprintf                                          c:/rtthread/env/tools/gnu_gcc/arm_gcc/mingw/bin/../lib/gcc/arm-none-eabi/5.4.1/../../../../arm-none-eabi/lib/armv7e-m/fpu\libc.a(lib_a-snprintf.o)
                                                  build\kernel\components\libc\compilers\newlib\stdio.o
startup_task                                      libraries\MIMXRT1050\MIMXRT1052\drivers\fsl_os_abstraction_rtthread.o
stat                                              build\kernel\components\dfs\src\dfs_posix.o
                                                  build\kernel\components\libc\compilers\newlib\syscalls.o
                                                  build\kernel\components\finsh\msh_file.o
statfs                                            build\kernel\components\dfs\src\dfs_posix.o
strchr                                            c:/rtthread/env/tools/gnu_gcc/arm_gcc/mingw/bin/../lib/gcc/arm-none-eabi/5.4.1/../../../../arm-none-eabi/lib/armv7e-m/fpu\libc.a(lib_a-strchr.o)
                                                  c:/rtthread/env/tools/gnu_gcc/arm_gcc/mingw/bin/../lib/gcc/arm-none-eabi/5.4.1/../../../../arm-none-eabi/lib/armv7e-m/fpu\libc.a(lib_a-strstr.o)
                                                  c:/rtthread/env/tools/gnu_gcc/arm_gcc/mingw/bin/../lib/gcc/arm-none-eabi/5.4.1/../../../../arm-none-eabi/lib/armv7e-m/fpu\libc.a(lib_a-strrchr.o)
                                                  c:/rtthread/env/tools/gnu_gcc/arm_gcc/mingw/bin/../lib/gcc/arm-none-eabi/5.4.1/../../../../arm-none-eabi/lib/armv7e-m/fpu\libc.a(lib_a-setenv_r.o)
                                                  c:/rtthread/env/tools/gnu_gcc/arm_gcc/mingw/bin/../lib/gcc/arm-none-eabi/5.4.1/../../../../arm-none-eabi/lib/armv7e-m/fpu\libc.a(lib_a-putenv_r.o)
strcmp                                            c:/rtthread/env/tools/gnu_gcc/arm_gcc/mingw/bin/../lib/gcc/arm-none-eabi/5.4.1/../../../../arm-none-eabi/lib/armv7e-m/fpu\libc.a(lib_a-strcmp.o)
                                                  c:/rtthread/env/tools/gnu_gcc/arm_gcc/mingw/bin/../lib/gcc/arm-none-eabi/5.4.1/../../../../arm-none-eabi/lib/armv7e-m/fpu\libc.a(lib_a-locale.o)
                                                  build\kernel\components\finsh\msh_file.o
                                                  build\kernel\components\dfs\src\dfs_fs.o
                                                  build\kernel\components\dfs\src\dfs_file.o
                                                  build\kernel\components\dfs\src\dfs.o
strcpy                                            c:/rtthread/env/tools/gnu_gcc/arm_gcc/mingw/bin/../lib/gcc/arm-none-eabi/5.4.1/../../../../arm-none-eabi/lib/armv7e-m/fpu\libc.a(lib_a-strcpy.o)
                                                  build\kernel\components\finsh\msh.o
                                                  build\kernel\components\finsh\shell.o
strlen                                            c:/rtthread/env/tools/gnu_gcc/arm_gcc/mingw/bin/../lib/gcc/arm-none-eabi/5.4.1/../../../../arm-none-eabi/lib/armv7e-m/fpu\libc.a(lib_a-strlen.o)
                                                  c:/rtthread/env/tools/gnu_gcc/arm_gcc/mingw/bin/../lib/gcc/arm-none-eabi/5.4.1/../../../../arm-none-eabi/lib/armv7e-m/fpu\libc.a(lib_a-svfiprintf.o)
                                                  c:/rtthread/env/tools/gnu_gcc/arm_gcc/mingw/bin/../lib/gcc/arm-none-eabi/5.4.1/../../../../arm-none-eabi/lib/armv7e-m/fpu\libc.a(lib_a-vfiprintf.o)
                                                  c:/rtthread/env/tools/gnu_gcc/arm_gcc/mingw/bin/../lib/gcc/arm-none-eabi/5.4.1/../../../../arm-none-eabi/lib/armv7e-m/fpu\libc.a(lib_a-svfprintf.o)
                                                  c:/rtthread/env/tools/gnu_gcc/arm_gcc/mingw/bin/../lib/gcc/arm-none-eabi/5.4.1/../../../../arm-none-eabi/lib/armv7e-m/fpu\libc.a(lib_a-strdup_r.o)
                                                  c:/rtthread/env/tools/gnu_gcc/arm_gcc/mingw/bin/../lib/gcc/arm-none-eabi/5.4.1/../../../../arm-none-eabi/lib/armv7e-m/fpu\libc.a(lib_a-setenv_r.o)
                                                  build\kernel\components\finsh\msh_file.o
                                                  build\kernel\components\finsh\msh.o
                                                  build\kernel\components\finsh\shell.o
                                                  build\kernel\components\dfs\src\dfs_posix.o
                                                  build\kernel\components\dfs\src\dfs_fs.o
                                                  build\kernel\components\dfs\src\dfs.o
strncmp                                           c:/rtthread/env/tools/gnu_gcc/arm_gcc/mingw/bin/../lib/gcc/arm-none-eabi/5.4.1/../../../../arm-none-eabi/lib/armv7e-m/fpu\libc.a(lib_a-strncmp.o)
                                                  c:/rtthread/env/tools/gnu_gcc/arm_gcc/mingw/bin/../lib/gcc/arm-none-eabi/5.4.1/../../../../arm-none-eabi/lib/armv7e-m/fpu\libc.a(lib_a-getenv_r.o)
                                                  build\kernel\components\finsh\msh.o
                                                  build\kernel\components\finsh\cmd.o
                                                  build\kernel\components\dfs\src\dfs_fs.o
strncpy                                           c:/rtthread/env/tools/gnu_gcc/arm_gcc/mingw/bin/../lib/gcc/arm-none-eabi/5.4.1/../../../../arm-none-eabi/lib/armv7e-m/fpu\libc.a(lib_a-strncpy.o)
                                                  build\kernel\components\finsh\shell.o
                                                  build\kernel\components\dfs\src\dfs_posix.o
strrchr                                           c:/rtthread/env/tools/gnu_gcc/arm_gcc/mingw/bin/../lib/gcc/arm-none-eabi/5.4.1/../../../../arm-none-eabi/lib/armv7e-m/fpu\libc.a(lib_a-strrchr.o)
                                                  build\kernel\components\dfs\src\dfs_file.o
strstr                                            c:/rtthread/env/tools/gnu_gcc/arm_gcc/mingw/bin/../lib/gcc/arm-none-eabi/5.4.1/../../../../arm-none-eabi/lib/armv7e-m/fpu\libc.a(lib_a-strstr.o)
                                                  build\kernel\components\finsh\msh_file.o
sysPllConfig_BOARD_BootClockRUN                   build\board\MCUX_Config\clock_config.o
telldir                                           build\kernel\components\dfs\src\dfs_posix.o
time                                              build\kernel\components\libc\compilers\common\time.o
                                                  build\kernel\components\dfs\filesystems\elmfat\dfs_elm.o
ttyname                                           build\kernel\components\libc\compilers\common\unistd.o
umask                                             build\kernel\components\libc\compilers\newlib\syscalls.o
unlink                                            build\kernel\components\dfs\src\dfs_posix.o
                                                  build\kernel\components\libc\compilers\newlib\syscalls.o
                                                  build\kernel\components\finsh\msh_file.o
usb1PllConfig_BOARD_BootClockRUN                  build\board\MCUX_Config\clock_config.o
usb2PllConfig_BOARD_BootClockRUN                  build\board\MCUX_Config\clock_config.o
usbh0_thread                                      libraries\drivers\drv_usbh.o
usbh1_thread                                      libraries\drivers\drv_usbh.o
version                                           build\kernel\components\finsh\cmd.o
vfiprintf                                         c:/rtthread/env/tools/gnu_gcc/arm_gcc/mingw/bin/../lib/gcc/arm-none-eabi/5.4.1/../../../../arm-none-eabi/lib/armv7e-m/fpu\libc.a(lib_a-vfiprintf.o)
wcrtomb                                           c:/rtthread/env/tools/gnu_gcc/arm_gcc/mingw/bin/../lib/gcc/arm-none-eabi/5.4.1/../../../../arm-none-eabi/lib/armv7e-m/fpu\libc.a(lib_a-wcrtomb.o)
working_directory                                 build\kernel\components\dfs\src\dfs.o
                                                  build\kernel\components\finsh\msh_file.o
                                                  build\kernel\components\dfs\src\dfs_posix.o
                                                  build\kernel\components\dfs\src\dfs_file.o
write                                             build\kernel\components\dfs\src\dfs_posix.o
                                                  build\kernel\components\libc\compilers\newlib\syscalls.o
                                                  build\kernel\components\finsh\msh_file.o
